# file opened: game.asm
    1 0000
    2 0000              					device 		zxspectrum48
    3 0000
    4 0000              begin_file
    5 0000              					include		"game.pas.asm"
# file opened: game.pas.asm
    1+0000                    org   23900
    2+5D5C C3 75 A2           jp    MAIN
    3+5D5F              _BLOCKVIBRSOUND
    4+5D5F CD 6E A9           call  scr_up
    5+5D62 CD 34 AA           call  scr_rt
    6+5D65 3E 01              ld    a,1
    7+5D67 32 4F B0           ld    (sound_loop),a
    8+5D6A 3E 02              ld    a,2
    9+5D6C 32 51 B0           ld    (sound_time),a
   10+5D6F AF                 xor   a
   11+5D70 32 50 B0           ld    (sound_freq),a
   12+5D73 CD 62 A3           call  sound_effect
   13+5D76 CD 02 B6           call  HALT
   14+5D79 CD B9 A9           call  scr_dn
   15+5D7C CD B9 A9           call  scr_dn
   16+5D7F 3E 01              ld    a,1
   17+5D81 32 4F B0           ld    (sound_loop),a
   18+5D84 3E 02              ld    a,2
   19+5D86 32 51 B0           ld    (sound_time),a
   20+5D89 3E 01              ld    a,1
   21+5D8B 32 50 B0           ld    (sound_freq),a
   22+5D8E CD 62 A3           call  sound_effect
   23+5D91 CD 02 B6           call  HALT
   24+5D94 CD 06 AA           call  scr_lf
   25+5D97 CD 06 AA           call  scr_lf
   26+5D9A 3E 01              ld    a,1
   27+5D9C 32 4F B0           ld    (sound_loop),a
   28+5D9F 3E 02              ld    a,2
   29+5DA1 32 51 B0           ld    (sound_time),a
   30+5DA4 AF                 xor   a
   31+5DA5 32 50 B0           ld    (sound_freq),a
   32+5DA8 CD 62 A3           call  sound_effect
   33+5DAB CD 02 B6           call  HALT
   34+5DAE CD 6E A9           call  scr_up
   35+5DB1 CD 6E A9           call  scr_up
   36+5DB4 3E 01              ld    a,1
   37+5DB6 32 4F B0           ld    (sound_loop),a
   38+5DB9 3E 02              ld    a,2
   39+5DBB 32 51 B0           ld    (sound_time),a
   40+5DBE 3E 01              ld    a,1
   41+5DC0 32 50 B0           ld    (sound_freq),a
   42+5DC3 CD 62 A3           call  sound_effect
   43+5DC6 CD 02 B6           call  HALT
   44+5DC9 CD 34 AA           call  scr_rt
   45+5DCC CD 34 AA           call  scr_rt
   46+5DCF 3E 01              ld    a,1
   47+5DD1 32 4F B0           ld    (sound_loop),a
   48+5DD4 3E 02              ld    a,2
   49+5DD6 32 51 B0           ld    (sound_time),a
   50+5DD9 AF                 xor   a
   51+5DDA 32 50 B0           ld    (sound_freq),a
   52+5DDD CD 62 A3           call  sound_effect
   53+5DE0 CD 02 B6           call  HALT
   54+5DE3 CD B9 A9           call  scr_dn
   55+5DE6 CD B9 A9           call  scr_dn
   56+5DE9 3E 01              ld    a,1
   57+5DEB 32 4F B0           ld    (sound_loop),a
   58+5DEE 3E 02              ld    a,2
   59+5DF0 32 51 B0           ld    (sound_time),a
   60+5DF3 3E 01              ld    a,1
   61+5DF5 32 50 B0           ld    (sound_freq),a
   62+5DF8 CD 62 A3           call  sound_effect
   63+5DFB CD 02 B6           call  HALT
   64+5DFE CD 06 AA           call  scr_lf
   65+5E01 3E 01              ld    a,1
   66+5E03 32 4F B0           ld    (sound_loop),a
   67+5E06 3E 02              ld    a,2
   68+5E08 32 51 B0           ld    (sound_time),a
   69+5E0B AF                 xor   a
   70+5E0C 32 50 B0           ld    (sound_freq),a
   71+5E0F CD 62 A3           call  sound_effect
   72+5E12 CD 02 B6           call  HALT
   73+5E15 CD 6E A9           call  scr_up
   74+5E18 C9                 ret
   75+5E19              _BLOCKVIBR
   76+5E19 CD 6E A9           call  scr_up
   77+5E1C CD 34 AA           call  scr_rt
   78+5E1F CD B9 A9           call  scr_dn
   79+5E22 CD B9 A9           call  scr_dn
   80+5E25 CD 06 AA           call  scr_lf
   81+5E28 CD 06 AA           call  scr_lf
   82+5E2B CD 6E A9           call  scr_up
   83+5E2E CD 6E A9           call  scr_up
   84+5E31 CD 34 AA           call  scr_rt
   85+5E34 CD 34 AA           call  scr_rt
   86+5E37 CD B9 A9           call  scr_dn
   87+5E3A CD B9 A9           call  scr_dn
   88+5E3D CD 06 AA           call  scr_lf
   89+5E40 CD 6E A9           call  scr_up
   90+5E43 C9                 ret
   91+5E44              _TITLE
   92+5E44 CD 04 B6           call  IM2INIT
   93+5E47 21 6D B0           ld    hl,_STARTMAP
   94+5E4A 22 2A B0           ld    (map_addr_array),hl
   95+5E4D 3E 16              ld    a,22
   96+5E4F 32 2C B0           ld    (map_xmax_array),a
   97+5E52 3E 20              ld    a,32
   98+5E54 32 2D B0           ld    (map_ymax_array),a
   99+5E57 21 2E D6           ld    hl,SPRMAP
  100+5E5A 22 2E B0           ld    (map_addr_sprites),hl
  101+5E5D AF                 xor   a
  102+5E5E 32 30 B0           ld    (map_xscr),a
  103+5E61 32 31 B0           ld    (map_yscr),a
  104+5E64 3E 20              ld    a,32
  105+5E66 32 32 B0           ld    (map_width_scr),a
  106+5E69 3E 16              ld    a,22
  107+5E6B 32 33 B0           ld    (map_height_scr),a
  108+5E6E 3E 01              ld    a,1
  109+5E70 32 34 B0           ld    (map_x),a
  110+5E73 32 35 B0           ld    (map_y),a
  111+5E76 CD 8F A3           call  map_put_1x1
  112+5E79 21 3C D1           ld    hl,SPRTITUL1
  113+5E7C E5                 push  hl
  114+5E7D 21 03 00           ld    hl,3
  115+5E80 7D                 ld    a,l
  116+5E81 32 F8 AF           ld    (attr_sprite),a
  117+5E84 21 03 00           ld    hl,3
  118+5E87 E5                 push  hl
  119+5E88 21 08 00           ld    hl,8
  120+5E8B 55                 ld    d,l
  121+5E8C E1                 pop   hl
  122+5E8D 5D                 ld    e,l
  123+5E8E E1                 pop   hl
  124+5E8F CD DA A4           call  put_spr_put
  125+5E92 21 1D D3           ld    hl,SPRTITUL2
  126+5E95 E5                 push  hl
  127+5E96 21 05 00           ld    hl,5
  128+5E99 7D                 ld    a,l
  129+5E9A 32 F8 AF           ld    (attr_sprite),a
  130+5E9D 21 0D 00           ld    hl,13
  131+5EA0 E5                 push  hl
  132+5EA1 21 0B 00           ld    hl,11
  133+5EA4 55                 ld    d,l
  134+5EA5 E1                 pop   hl
  135+5EA6 5D                 ld    e,l
  136+5EA7 E1                 pop   hl
  137+5EA8 CD DA A4           call  put_spr_put
  138+5EAB 21 12 C6           ld    hl,SPRBLOCK1
  139+5EAE E5                 push  hl
  140+5EAF 21 01 00           ld    hl,1
  141+5EB2 7D                 ld    a,l
  142+5EB3 32 F8 AF           ld    (attr_sprite),a
  143+5EB6 21 02 00           ld    hl,2
  144+5EB9 E5                 push  hl
  145+5EBA 21 03 00           ld    hl,3
  146+5EBD 55                 ld    d,l
  147+5EBE E1                 pop   hl
  148+5EBF 5D                 ld    e,l
  149+5EC0 E1                 pop   hl
  150+5EC1 CD DA A4           call  put_spr_put
  151+5EC4 21 6D C6           ld    hl,SPRBLOCK2
  152+5EC7 E5                 push  hl
  153+5EC8 21 02 00           ld    hl,2
  154+5ECB 7D                 ld    a,l
  155+5ECC 32 F8 AF           ld    (attr_sprite),a
  156+5ECF 21 07 00           ld    hl,7
  157+5ED2 E5                 push  hl
  158+5ED3 21 03 00           ld    hl,3
  159+5ED6 55                 ld    d,l
  160+5ED7 E1                 pop   hl
  161+5ED8 5D                 ld    e,l
  162+5ED9 E1                 pop   hl
  163+5EDA CD DA A4           call  put_spr_put
  164+5EDD 21 C8 C6           ld    hl,SPRBLOCK3
  165+5EE0 E5                 push  hl
  166+5EE1 21 03 00           ld    hl,3
  167+5EE4 7D                 ld    a,l
  168+5EE5 32 F8 AF           ld    (attr_sprite),a
  169+5EE8 21 0C 00           ld    hl,12
  170+5EEB E5                 push  hl
  171+5EEC 21 03 00           ld    hl,3
  172+5EEF 55                 ld    d,l
  173+5EF0 E1                 pop   hl
  174+5EF1 5D                 ld    e,l
  175+5EF2 E1                 pop   hl
  176+5EF3 CD DA A4           call  put_spr_put
  177+5EF6 21 23 C7           ld    hl,SPRBLOCK4
  178+5EF9 E5                 push  hl
  179+5EFA 21 04 00           ld    hl,4
  180+5EFD 7D                 ld    a,l
  181+5EFE 32 F8 AF           ld    (attr_sprite),a
  182+5F01 21 11 00           ld    hl,17
  183+5F04 E5                 push  hl
  184+5F05 21 03 00           ld    hl,3
  185+5F08 55                 ld    d,l
  186+5F09 E1                 pop   hl
  187+5F0A 5D                 ld    e,l
  188+5F0B E1                 pop   hl
  189+5F0C CD DA A4           call  put_spr_put
  190+5F0F 21 7E C7           ld    hl,SPRBLOCK5
  191+5F12 E5                 push  hl
  192+5F13 21 05 00           ld    hl,5
  193+5F16 7D                 ld    a,l
  194+5F17 32 F8 AF           ld    (attr_sprite),a
  195+5F1A 21 16 00           ld    hl,22
  196+5F1D E5                 push  hl
  197+5F1E 21 03 00           ld    hl,3
  198+5F21 55                 ld    d,l
  199+5F22 E1                 pop   hl
  200+5F23 5D                 ld    e,l
  201+5F24 E1                 pop   hl
  202+5F25 CD DA A4           call  put_spr_put
  203+5F28 21 D9 C7           ld    hl,SPRBLOCK6
  204+5F2B E5                 push  hl
  205+5F2C 21 06 00           ld    hl,6
  206+5F2F 7D                 ld    a,l
  207+5F30 32 F8 AF           ld    (attr_sprite),a
  208+5F33 21 1B 00           ld    hl,27
  209+5F36 E5                 push  hl
  210+5F37 21 03 00           ld    hl,3
  211+5F3A 55                 ld    d,l
  212+5F3B E1                 pop   hl
  213+5F3C 5D                 ld    e,l
  214+5F3D E1                 pop   hl
  215+5F3E CD DA A4           call  put_spr_put
  216+5F41 21 D9 C7           ld    hl,SPRBLOCK6
  217+5F44 E5                 push  hl
  218+5F45 21 06 00           ld    hl,6
  219+5F48 7D                 ld    a,l
  220+5F49 32 F8 AF           ld    (attr_sprite),a
  221+5F4C 21 02 00           ld    hl,2
  222+5F4F E5                 push  hl
  223+5F50 21 10 00           ld    hl,16
  224+5F53 55                 ld    d,l
  225+5F54 E1                 pop   hl
  226+5F55 5D                 ld    e,l
  227+5F56 E1                 pop   hl
  228+5F57 CD DA A4           call  put_spr_put
  229+5F5A 21 7E C7           ld    hl,SPRBLOCK5
  230+5F5D E5                 push  hl
  231+5F5E 21 05 00           ld    hl,5
  232+5F61 7D                 ld    a,l
  233+5F62 32 F8 AF           ld    (attr_sprite),a
  234+5F65 21 07 00           ld    hl,7
  235+5F68 E5                 push  hl
  236+5F69 21 10 00           ld    hl,16
  237+5F6C 55                 ld    d,l
  238+5F6D E1                 pop   hl
  239+5F6E 5D                 ld    e,l
  240+5F6F E1                 pop   hl
  241+5F70 CD DA A4           call  put_spr_put
  242+5F73 21 23 C7           ld    hl,SPRBLOCK4
  243+5F76 E5                 push  hl
  244+5F77 21 04 00           ld    hl,4
  245+5F7A 7D                 ld    a,l
  246+5F7B 32 F8 AF           ld    (attr_sprite),a
  247+5F7E 21 0C 00           ld    hl,12
  248+5F81 E5                 push  hl
  249+5F82 21 10 00           ld    hl,16
  250+5F85 55                 ld    d,l
  251+5F86 E1                 pop   hl
  252+5F87 5D                 ld    e,l
  253+5F88 E1                 pop   hl
  254+5F89 CD DA A4           call  put_spr_put
  255+5F8C 21 C8 C6           ld    hl,SPRBLOCK3
  256+5F8F E5                 push  hl
  257+5F90 21 03 00           ld    hl,3
  258+5F93 7D                 ld    a,l
  259+5F94 32 F8 AF           ld    (attr_sprite),a
  260+5F97 21 11 00           ld    hl,17
  261+5F9A E5                 push  hl
  262+5F9B 21 10 00           ld    hl,16
  263+5F9E 55                 ld    d,l
  264+5F9F E1                 pop   hl
  265+5FA0 5D                 ld    e,l
  266+5FA1 E1                 pop   hl
  267+5FA2 CD DA A4           call  put_spr_put
  268+5FA5 21 6D C6           ld    hl,SPRBLOCK2
  269+5FA8 E5                 push  hl
  270+5FA9 21 02 00           ld    hl,2
  271+5FAC 7D                 ld    a,l
  272+5FAD 32 F8 AF           ld    (attr_sprite),a
  273+5FB0 21 16 00           ld    hl,22
  274+5FB3 E5                 push  hl
  275+5FB4 21 10 00           ld    hl,16
  276+5FB7 55                 ld    d,l
  277+5FB8 E1                 pop   hl
  278+5FB9 5D                 ld    e,l
  279+5FBA E1                 pop   hl
  280+5FBB CD DA A4           call  put_spr_put
  281+5FBE 21 12 C6           ld    hl,SPRBLOCK1
  282+5FC1 E5                 push  hl
  283+5FC2 21 01 00           ld    hl,1
  284+5FC5 7D                 ld    a,l
  285+5FC6 32 F8 AF           ld    (attr_sprite),a
  286+5FC9 21 1B 00           ld    hl,27
  287+5FCC E5                 push  hl
  288+5FCD 21 10 00           ld    hl,16
  289+5FD0 55                 ld    d,l
  290+5FD1 E1                 pop   hl
  291+5FD2 5D                 ld    e,l
  292+5FD3 E1                 pop   hl
  293+5FD4 CD DA A4           call  put_spr_put
  294+5FD7              L0
  295+5FD7 AF                 xor   a
  296+5FD8 32 5C B0           ld    (_I),a
  297+5FDB              L3
  298+5FDB 3A 5C B0           ld    a,(_I)
  299+5FDE 6F                 ld    l,a
  300+5FDF 26 00              ld    h,0
  301+5FE1 23                 inc   hl
  302+5FE2 7D                 ld    a,l
  303+5FE3 32 5C B0           ld    (_I),a
  304+5FE6 CD 50 A4           call  readkey
  305+5FE9 3A 00 B0           ld    a,(code_key_1)
  306+5FEC 32 67 B0           ld    (_KEY1),a
  307+5FEF 3A 01 B0           ld    a,(code_key_2)
  308+5FF2 32 68 B0           ld    (_KEY2),a
  309+5FF5 3A 5C B0           ld    a,(_I)
  310+5FF8 32 4D B5           ld    (_L6),a
  311+5FFB FE 01              cp    1
  312+5FFD CA 03 60           jp    z,L9
  313+6000 C3 16 60           jp    L10
  314+6003              L9
  315+6003 3E 02              ld    a,2
  316+6005 32 FC AF           ld    (col_window),a
  317+6008 3E 03              ld    a,3
  318+600A 32 FD AF           ld    (row_window),a
  319+600D 32 FE AF           ld    (width_window),a
  320+6010 32 FF AF           ld    (height_window),a
  321+6013 C3 AC 60           jp    L7
  322+6016              L10
  323+6016 3A 4D B5           ld    a,(_L6)
  324+6019 FE 02              cp    2
  325+601B CA 21 60           jp    z,L11
  326+601E C3 34 60           jp    L12
  327+6021              L11
  328+6021 3E 07              ld    a,7
  329+6023 32 FC AF           ld    (col_window),a
  330+6026 3E 03              ld    a,3
  331+6028 32 FD AF           ld    (row_window),a
  332+602B 32 FE AF           ld    (width_window),a
  333+602E 32 FF AF           ld    (height_window),a
  334+6031 C3 AC 60           jp    L7
  335+6034              L12
  336+6034 3A 4D B5           ld    a,(_L6)
  337+6037 FE 03              cp    3
  338+6039 CA 3F 60           jp    z,L13
  339+603C C3 52 60           jp    L14
  340+603F              L13
  341+603F 3E 0C              ld    a,12
  342+6041 32 FC AF           ld    (col_window),a
  343+6044 3E 03              ld    a,3
  344+6046 32 FD AF           ld    (row_window),a
  345+6049 32 FE AF           ld    (width_window),a
  346+604C 32 FF AF           ld    (height_window),a
  347+604F C3 AC 60           jp    L7
  348+6052              L14
  349+6052 3A 4D B5           ld    a,(_L6)
  350+6055 FE 04              cp    4
  351+6057 CA 5D 60           jp    z,L15
  352+605A C3 70 60           jp    L16
  353+605D              L15
  354+605D 3E 11              ld    a,17
  355+605F 32 FC AF           ld    (col_window),a
  356+6062 3E 03              ld    a,3
  357+6064 32 FD AF           ld    (row_window),a
  358+6067 32 FE AF           ld    (width_window),a
  359+606A 32 FF AF           ld    (height_window),a
  360+606D C3 AC 60           jp    L7
  361+6070              L16
  362+6070 3A 4D B5           ld    a,(_L6)
  363+6073 FE 05              cp    5
  364+6075 CA 7B 60           jp    z,L17
  365+6078 C3 8E 60           jp    L18
  366+607B              L17
  367+607B 3E 16              ld    a,22
  368+607D 32 FC AF           ld    (col_window),a
  369+6080 3E 03              ld    a,3
  370+6082 32 FD AF           ld    (row_window),a
  371+6085 32 FE AF           ld    (width_window),a
  372+6088 32 FF AF           ld    (height_window),a
  373+608B C3 AC 60           jp    L7
  374+608E              L18
  375+608E 3A 4D B5           ld    a,(_L6)
  376+6091 FE 06              cp    6
  377+6093 CA 99 60           jp    z,L19
  378+6096 C3 AC 60           jp    L20
  379+6099              L19
  380+6099 3E 1B              ld    a,27
  381+609B 32 FC AF           ld    (col_window),a
  382+609E 3E 03              ld    a,3
  383+60A0 32 FD AF           ld    (row_window),a
  384+60A3 32 FE AF           ld    (width_window),a
  385+60A6 32 FF AF           ld    (height_window),a
  386+60A9 C3 AC 60           jp    L7
  387+60AC              L20
  388+60AC              L7
  389+60AC CD 19 5E           call  _BLOCKVIBR
  390+60AF CD 50 A4           call  readkey
  391+60B2 3A 00 B0           ld    a,(code_key_1)
  392+60B5 32 67 B0           ld    (_KEY1),a
  393+60B8 3A 01 B0           ld    a,(code_key_2)
  394+60BB 32 68 B0           ld    (_KEY2),a
  395+60BE 3A 5C B0           ld    a,(_I)
  396+60C1 32 4E B5           ld    (_L21),a
  397+60C4 FE 01              cp    1
  398+60C6 CA CC 60           jp    z,L24
  399+60C9 C3 E1 60           jp    L25
  400+60CC              L24
  401+60CC 3E 1B              ld    a,27
  402+60CE 32 FC AF           ld    (col_window),a
  403+60D1 3E 10              ld    a,16
  404+60D3 32 FD AF           ld    (row_window),a
  405+60D6 3E 03              ld    a,3
  406+60D8 32 FE AF           ld    (width_window),a
  407+60DB 32 FF AF           ld    (height_window),a
  408+60DE C3 81 61           jp    L22
  409+60E1              L25
  410+60E1 3A 4E B5           ld    a,(_L21)
  411+60E4 FE 02              cp    2
  412+60E6 CA EC 60           jp    z,L26
  413+60E9 C3 01 61           jp    L27
  414+60EC              L26
  415+60EC 3E 16              ld    a,22
  416+60EE 32 FC AF           ld    (col_window),a
  417+60F1 3E 10              ld    a,16
  418+60F3 32 FD AF           ld    (row_window),a
  419+60F6 3E 03              ld    a,3
  420+60F8 32 FE AF           ld    (width_window),a
  421+60FB 32 FF AF           ld    (height_window),a
  422+60FE C3 81 61           jp    L22
  423+6101              L27
  424+6101 3A 4E B5           ld    a,(_L21)
  425+6104 FE 03              cp    3
  426+6106 CA 0C 61           jp    z,L28
  427+6109 C3 21 61           jp    L29
  428+610C              L28
  429+610C 3E 11              ld    a,17
  430+610E 32 FC AF           ld    (col_window),a
  431+6111 3E 10              ld    a,16
  432+6113 32 FD AF           ld    (row_window),a
  433+6116 3E 03              ld    a,3
  434+6118 32 FE AF           ld    (width_window),a
  435+611B 32 FF AF           ld    (height_window),a
  436+611E C3 81 61           jp    L22
  437+6121              L29
  438+6121 3A 4E B5           ld    a,(_L21)
  439+6124 FE 04              cp    4
  440+6126 CA 2C 61           jp    z,L30
  441+6129 C3 41 61           jp    L31
  442+612C              L30
  443+612C 3E 0C              ld    a,12
  444+612E 32 FC AF           ld    (col_window),a
  445+6131 3E 10              ld    a,16
  446+6133 32 FD AF           ld    (row_window),a
  447+6136 3E 03              ld    a,3
  448+6138 32 FE AF           ld    (width_window),a
  449+613B 32 FF AF           ld    (height_window),a
  450+613E C3 81 61           jp    L22
  451+6141              L31
  452+6141 3A 4E B5           ld    a,(_L21)
  453+6144 FE 05              cp    5
  454+6146 CA 4C 61           jp    z,L32
  455+6149 C3 61 61           jp    L33
  456+614C              L32
  457+614C 3E 07              ld    a,7
  458+614E 32 FC AF           ld    (col_window),a
  459+6151 3E 10              ld    a,16
  460+6153 32 FD AF           ld    (row_window),a
  461+6156 3E 03              ld    a,3
  462+6158 32 FE AF           ld    (width_window),a
  463+615B 32 FF AF           ld    (height_window),a
  464+615E C3 81 61           jp    L22
  465+6161              L33
  466+6161 3A 4E B5           ld    a,(_L21)
  467+6164 FE 06              cp    6
  468+6166 CA 6C 61           jp    z,L34
  469+6169 C3 81 61           jp    L35
  470+616C              L34
  471+616C 3E 02              ld    a,2
  472+616E 32 FC AF           ld    (col_window),a
  473+6171 3E 10              ld    a,16
  474+6173 32 FD AF           ld    (row_window),a
  475+6176 3E 03              ld    a,3
  476+6178 32 FE AF           ld    (width_window),a
  477+617B 32 FF AF           ld    (height_window),a
  478+617E C3 81 61           jp    L22
  479+6181              L35
  480+6181              L22
  481+6181 CD 19 5E           call  _BLOCKVIBR
  482+6184 CD 50 A4           call  readkey
  483+6187 3A 00 B0           ld    a,(code_key_1)
  484+618A 32 67 B0           ld    (_KEY1),a
  485+618D 3A 01 B0           ld    a,(code_key_2)
  486+6190 32 68 B0           ld    (_KEY2),a
  487+6193 3E 06              ld    a,6
  488+6195 21 5C B0           ld    hl,_I
  489+6198 BE                 cp    (hl)
  490+6199 C2 9F 61           jp    nz,L5
  491+619C C3 AD 61           jp    L4
  492+619F              L5
  493+619F AF                 xor   a
  494+61A0 21 67 B0           ld    hl,_KEY1
  495+61A3 BE                 cp    (hl)
  496+61A4 CA AA 61           jp    z,L36
  497+61A7 C3 AD 61           jp    L4
  498+61AA              L36
  499+61AA C3 DB 5F           jp    L3
  500+61AD              L4
  501+61AD AF                 xor   a
  502+61AE 21 67 B0           ld    hl,_KEY1
  503+61B1 BE                 cp    (hl)
  504+61B2 CA B8 61           jp    z,L2
  505+61B5 C3 BB 61           jp    L1
  506+61B8              L2
  507+61B8 C3 D7 5F           jp    L0
  508+61BB              L1
  509+61BB C9                 ret
  510+61BC              _SCRTWO
  511+61BC 3E 01              ld    a,1
  512+61BE 32 FC AF           ld    (col_window),a
  513+61C1 32 FD AF           ld    (row_window),a
  514+61C4 3E 1E              ld    a,30
  515+61C6 32 FE AF           ld    (width_window),a
  516+61C9 3E 14              ld    a,20
  517+61CB 32 FF AF           ld    (height_window),a
  518+61CE CD CD A7           call  window
  519+61D1 21 07 00           ld    hl,7
  520+61D4 7D                 ld    a,l
  521+61D5 E6 07              and   %00000111
  522+61D7 6F                 ld    l,a
  523+61D8 3A F7 AF           ld    a,(attr_screen)
  524+61DB E6 F8              and   %11111000
  525+61DD B5                 or    l
  526+61DE 32 F7 AF           ld    (attr_screen),a
  527+61E1 21 0D 00           ld    hl,13
  528+61E4 AF                 xor   a
  529+61E5 CB 3D              srl   l
  530+61E7 17                 rla
  531+61E8 32 F6 AF           ld    (half_tile_screen),a
  532+61EB 7D                 ld    a,l
  533+61EC 32 F4 AF           ld    (col_screen),a
  534+61EF 21 04 00           ld    hl,4
  535+61F2 7D                 ld    a,l
  536+61F3 32 F5 AF           ld    (row_screen),a
  537+61F6 21 64 B5           ld    hl,_STR0
  538+61F9 ED 4B F4 AF        ld    bc,(col_screen)
  539+61FD CD 8D A5           call  print64
  540+6200 21 10 00           ld    hl,16
  541+6203 AF                 xor   a
  542+6204 CB 3D              srl   l
  543+6206 17                 rla
  544+6207 32 F6 AF           ld    (half_tile_screen),a
  545+620A 7D                 ld    a,l
  546+620B 32 F4 AF           ld    (col_screen),a
  547+620E 21 06 00           ld    hl,6
  548+6211 7D                 ld    a,l
  549+6212 32 F5 AF           ld    (row_screen),a
  550+6215 21 8A B5           ld    hl,_STR1
  551+6218 ED 4B F4 AF        ld    bc,(col_screen)
  552+621C CD 8D A5           call  print64
  553+621F 21 14 00           ld    hl,20
  554+6222 AF                 xor   a
  555+6223 CB 3D              srl   l
  556+6225 17                 rla
  557+6226 32 F6 AF           ld    (half_tile_screen),a
  558+6229 7D                 ld    a,l
  559+622A 32 F4 AF           ld    (col_screen),a
  560+622D 21 08 00           ld    hl,8
  561+6230 7D                 ld    a,l
  562+6231 32 F5 AF           ld    (row_screen),a
  563+6234 21 AA B5           ld    hl,_STR2
  564+6237 ED 4B F4 AF        ld    bc,(col_screen)
  565+623B CD 8D A5           call  print64
  566+623E 21 04 00           ld    hl,4
  567+6241 7D                 ld    a,l
  568+6242 E6 07              and   %00000111
  569+6244 6F                 ld    l,a
  570+6245 3A F7 AF           ld    a,(attr_screen)
  571+6248 E6 F8              and   %11111000
  572+624A B5                 or    l
  573+624B 32 F7 AF           ld    (attr_screen),a
  574+624E 21 10 00           ld    hl,16
  575+6251 AF                 xor   a
  576+6252 CB 3D              srl   l
  577+6254 17                 rla
  578+6255 32 F6 AF           ld    (half_tile_screen),a
  579+6258 7D                 ld    a,l
  580+6259 32 F4 AF           ld    (col_screen),a
  581+625C 21 0D 00           ld    hl,13
  582+625F 7D                 ld    a,l
  583+6260 32 F5 AF           ld    (row_screen),a
  584+6263 21 C3 B5           ld    hl,_STR3
  585+6266 ED 4B F4 AF        ld    bc,(col_screen)
  586+626A CD 8D A5           call  print64
  587+626D 21 06 00           ld    hl,6
  588+6270 7D                 ld    a,l
  589+6271 E6 07              and   %00000111
  590+6273 6F                 ld    l,a
  591+6274 3A F7 AF           ld    a,(attr_screen)
  592+6277 E6 F8              and   %11111000
  593+6279 B5                 or    l
  594+627A 32 F7 AF           ld    (attr_screen),a
  595+627D 21 12 00           ld    hl,18
  596+6280 AF                 xor   a
  597+6281 CB 3D              srl   l
  598+6283 17                 rla
  599+6284 32 F6 AF           ld    (half_tile_screen),a
  600+6287 7D                 ld    a,l
  601+6288 32 F4 AF           ld    (col_screen),a
  602+628B 21 13 00           ld    hl,19
  603+628E 7D                 ld    a,l
  604+628F 32 F5 AF           ld    (row_screen),a
  605+6292 21 E2 B5           ld    hl,_STR4
  606+6295 ED 4B F4 AF        ld    bc,(col_screen)
  607+6299 CD 8D A5           call  print64
  608+629C 21 32 00           ld    hl,50
  609+629F CD 5C AA           call  pause
  610+62A2              L37
  611+62A2 CD 50 A4           call  readkey
  612+62A5 3A 00 B0           ld    a,(code_key_1)
  613+62A8 32 67 B0           ld    (_KEY1),a
  614+62AB 3A 01 B0           ld    a,(code_key_2)
  615+62AE 32 68 B0           ld    (_KEY2),a
  616+62B1 AF                 xor   a
  617+62B2 21 67 B0           ld    hl,_KEY1
  618+62B5 BE                 cp    (hl)
  619+62B6 CA BC 62           jp    z,L39
  620+62B9 C3 BF 62           jp    L38
  621+62BC              L39
  622+62BC C3 A2 62           jp    L37
  623+62BF              L38
  624+62BF C9                 ret
  625+62C0              _NEXTBLOCKVIEW1
  626+62C0 3A 58 B0           ld    a,(_COLOR3)
  627+62C3 32 4F B5           ld    (_L40),a
  628+62C6 FE 01              cp    1
  629+62C8 CA CE 62           jp    z,L43
  630+62CB C3 EA 62           jp    L44
  631+62CE              L43
  632+62CE 21 12 C6           ld    hl,SPRBLOCK1
  633+62D1 E5                 push  hl
  634+62D2 21 01 00           ld    hl,1
  635+62D5 7D                 ld    a,l
  636+62D6 32 F8 AF           ld    (attr_sprite),a
  637+62D9 21 16 00           ld    hl,22
  638+62DC E5                 push  hl
  639+62DD 21 10 00           ld    hl,16
  640+62E0 55                 ld    d,l
  641+62E1 E1                 pop   hl
  642+62E2 5D                 ld    e,l
  643+62E3 E1                 pop   hl
  644+62E4 CD DA A4           call  put_spr_put
  645+62E7 C3 D4 63           jp    L41
  646+62EA              L44
  647+62EA 3A 4F B5           ld    a,(_L40)
  648+62ED FE 02              cp    2
  649+62EF CA F5 62           jp    z,L45
  650+62F2 C3 11 63           jp    L46
  651+62F5              L45
  652+62F5 21 6D C6           ld    hl,SPRBLOCK2
  653+62F8 E5                 push  hl
  654+62F9 21 02 00           ld    hl,2
  655+62FC 7D                 ld    a,l
  656+62FD 32 F8 AF           ld    (attr_sprite),a
  657+6300 21 16 00           ld    hl,22
  658+6303 E5                 push  hl
  659+6304 21 10 00           ld    hl,16
  660+6307 55                 ld    d,l
  661+6308 E1                 pop   hl
  662+6309 5D                 ld    e,l
  663+630A E1                 pop   hl
  664+630B CD DA A4           call  put_spr_put
  665+630E C3 D4 63           jp    L41
  666+6311              L46
  667+6311 3A 4F B5           ld    a,(_L40)
  668+6314 FE 03              cp    3
  669+6316 CA 1C 63           jp    z,L47
  670+6319 C3 38 63           jp    L48
  671+631C              L47
  672+631C 21 C8 C6           ld    hl,SPRBLOCK3
  673+631F E5                 push  hl
  674+6320 21 03 00           ld    hl,3
  675+6323 7D                 ld    a,l
  676+6324 32 F8 AF           ld    (attr_sprite),a
  677+6327 21 16 00           ld    hl,22
  678+632A E5                 push  hl
  679+632B 21 10 00           ld    hl,16
  680+632E 55                 ld    d,l
  681+632F E1                 pop   hl
  682+6330 5D                 ld    e,l
  683+6331 E1                 pop   hl
  684+6332 CD DA A4           call  put_spr_put
  685+6335 C3 D4 63           jp    L41
  686+6338              L48
  687+6338 3A 4F B5           ld    a,(_L40)
  688+633B FE 04              cp    4
  689+633D CA 43 63           jp    z,L49
  690+6340 C3 5F 63           jp    L50
  691+6343              L49
  692+6343 21 23 C7           ld    hl,SPRBLOCK4
  693+6346 E5                 push  hl
  694+6347 21 04 00           ld    hl,4
  695+634A 7D                 ld    a,l
  696+634B 32 F8 AF           ld    (attr_sprite),a
  697+634E 21 16 00           ld    hl,22
  698+6351 E5                 push  hl
  699+6352 21 10 00           ld    hl,16
  700+6355 55                 ld    d,l
  701+6356 E1                 pop   hl
  702+6357 5D                 ld    e,l
  703+6358 E1                 pop   hl
  704+6359 CD DA A4           call  put_spr_put
  705+635C C3 D4 63           jp    L41
  706+635F              L50
  707+635F 3A 4F B5           ld    a,(_L40)
  708+6362 FE 05              cp    5
  709+6364 CA 6A 63           jp    z,L51
  710+6367 C3 86 63           jp    L52
  711+636A              L51
  712+636A 21 7E C7           ld    hl,SPRBLOCK5
  713+636D E5                 push  hl
  714+636E 21 05 00           ld    hl,5
  715+6371 7D                 ld    a,l
  716+6372 32 F8 AF           ld    (attr_sprite),a
  717+6375 21 16 00           ld    hl,22
  718+6378 E5                 push  hl
  719+6379 21 10 00           ld    hl,16
  720+637C 55                 ld    d,l
  721+637D E1                 pop   hl
  722+637E 5D                 ld    e,l
  723+637F E1                 pop   hl
  724+6380 CD DA A4           call  put_spr_put
  725+6383 C3 D4 63           jp    L41
  726+6386              L52
  727+6386 3A 4F B5           ld    a,(_L40)
  728+6389 FE 06              cp    6
  729+638B CA 91 63           jp    z,L53
  730+638E C3 AD 63           jp    L54
  731+6391              L53
  732+6391 21 D9 C7           ld    hl,SPRBLOCK6
  733+6394 E5                 push  hl
  734+6395 21 06 00           ld    hl,6
  735+6398 7D                 ld    a,l
  736+6399 32 F8 AF           ld    (attr_sprite),a
  737+639C 21 16 00           ld    hl,22
  738+639F E5                 push  hl
  739+63A0 21 10 00           ld    hl,16
  740+63A3 55                 ld    d,l
  741+63A4 E1                 pop   hl
  742+63A5 5D                 ld    e,l
  743+63A6 E1                 pop   hl
  744+63A7 CD DA A4           call  put_spr_put
  745+63AA C3 D4 63           jp    L41
  746+63AD              L54
  747+63AD 3A 4F B5           ld    a,(_L40)
  748+63B0 FE 07              cp    7
  749+63B2 CA B8 63           jp    z,L55
  750+63B5 C3 D4 63           jp    L56
  751+63B8              L55
  752+63B8 21 34 C8           ld    hl,SPRBLOCK7
  753+63BB E5                 push  hl
  754+63BC 21 47 00           ld    hl,71
  755+63BF 7D                 ld    a,l
  756+63C0 32 F8 AF           ld    (attr_sprite),a
  757+63C3 21 16 00           ld    hl,22
  758+63C6 E5                 push  hl
  759+63C7 21 10 00           ld    hl,16
  760+63CA 55                 ld    d,l
  761+63CB E1                 pop   hl
  762+63CC 5D                 ld    e,l
  763+63CD E1                 pop   hl
  764+63CE CD DA A4           call  put_spr_put
  765+63D1 C3 D4 63           jp    L41
  766+63D4              L56
  767+63D4              L41
  768+63D4 C9                 ret
  769+63D5              _NEXTBLOCKVIEW2
  770+63D5 3A 59 B0           ld    a,(_COLOR4)
  771+63D8 32 50 B5           ld    (_L57),a
  772+63DB FE 01              cp    1
  773+63DD CA E3 63           jp    z,L60
  774+63E0 C3 FF 63           jp    L61
  775+63E3              L60
  776+63E3 21 12 C6           ld    hl,SPRBLOCK1
  777+63E6 E5                 push  hl
  778+63E7 21 01 00           ld    hl,1
  779+63EA 7D                 ld    a,l
  780+63EB 32 F8 AF           ld    (attr_sprite),a
  781+63EE 21 1B 00           ld    hl,27
  782+63F1 E5                 push  hl
  783+63F2 21 10 00           ld    hl,16
  784+63F5 55                 ld    d,l
  785+63F6 E1                 pop   hl
  786+63F7 5D                 ld    e,l
  787+63F8 E1                 pop   hl
  788+63F9 CD DA A4           call  put_spr_put
  789+63FC C3 E9 64           jp    L58
  790+63FF              L61
  791+63FF 3A 50 B5           ld    a,(_L57)
  792+6402 FE 02              cp    2
  793+6404 CA 0A 64           jp    z,L62
  794+6407 C3 26 64           jp    L63
  795+640A              L62
  796+640A 21 6D C6           ld    hl,SPRBLOCK2
  797+640D E5                 push  hl
  798+640E 21 02 00           ld    hl,2
  799+6411 7D                 ld    a,l
  800+6412 32 F8 AF           ld    (attr_sprite),a
  801+6415 21 1B 00           ld    hl,27
  802+6418 E5                 push  hl
  803+6419 21 10 00           ld    hl,16
  804+641C 55                 ld    d,l
  805+641D E1                 pop   hl
  806+641E 5D                 ld    e,l
  807+641F E1                 pop   hl
  808+6420 CD DA A4           call  put_spr_put
  809+6423 C3 E9 64           jp    L58
  810+6426              L63
  811+6426 3A 50 B5           ld    a,(_L57)
  812+6429 FE 03              cp    3
  813+642B CA 31 64           jp    z,L64
  814+642E C3 4D 64           jp    L65
  815+6431              L64
  816+6431 21 C8 C6           ld    hl,SPRBLOCK3
  817+6434 E5                 push  hl
  818+6435 21 03 00           ld    hl,3
  819+6438 7D                 ld    a,l
  820+6439 32 F8 AF           ld    (attr_sprite),a
  821+643C 21 1B 00           ld    hl,27
  822+643F E5                 push  hl
  823+6440 21 10 00           ld    hl,16
  824+6443 55                 ld    d,l
  825+6444 E1                 pop   hl
  826+6445 5D                 ld    e,l
  827+6446 E1                 pop   hl
  828+6447 CD DA A4           call  put_spr_put
  829+644A C3 E9 64           jp    L58
  830+644D              L65
  831+644D 3A 50 B5           ld    a,(_L57)
  832+6450 FE 04              cp    4
  833+6452 CA 58 64           jp    z,L66
  834+6455 C3 74 64           jp    L67
  835+6458              L66
  836+6458 21 23 C7           ld    hl,SPRBLOCK4
  837+645B E5                 push  hl
  838+645C 21 04 00           ld    hl,4
  839+645F 7D                 ld    a,l
  840+6460 32 F8 AF           ld    (attr_sprite),a
  841+6463 21 1B 00           ld    hl,27
  842+6466 E5                 push  hl
  843+6467 21 10 00           ld    hl,16
  844+646A 55                 ld    d,l
  845+646B E1                 pop   hl
  846+646C 5D                 ld    e,l
  847+646D E1                 pop   hl
  848+646E CD DA A4           call  put_spr_put
  849+6471 C3 E9 64           jp    L58
  850+6474              L67
  851+6474 3A 50 B5           ld    a,(_L57)
  852+6477 FE 05              cp    5
  853+6479 CA 7F 64           jp    z,L68
  854+647C C3 9B 64           jp    L69
  855+647F              L68
  856+647F 21 7E C7           ld    hl,SPRBLOCK5
  857+6482 E5                 push  hl
  858+6483 21 05 00           ld    hl,5
  859+6486 7D                 ld    a,l
  860+6487 32 F8 AF           ld    (attr_sprite),a
  861+648A 21 1B 00           ld    hl,27
  862+648D E5                 push  hl
  863+648E 21 10 00           ld    hl,16
  864+6491 55                 ld    d,l
  865+6492 E1                 pop   hl
  866+6493 5D                 ld    e,l
  867+6494 E1                 pop   hl
  868+6495 CD DA A4           call  put_spr_put
  869+6498 C3 E9 64           jp    L58
  870+649B              L69
  871+649B 3A 50 B5           ld    a,(_L57)
  872+649E FE 06              cp    6
  873+64A0 CA A6 64           jp    z,L70
  874+64A3 C3 C2 64           jp    L71
  875+64A6              L70
  876+64A6 21 D9 C7           ld    hl,SPRBLOCK6
  877+64A9 E5                 push  hl
  878+64AA 21 06 00           ld    hl,6
  879+64AD 7D                 ld    a,l
  880+64AE 32 F8 AF           ld    (attr_sprite),a
  881+64B1 21 1B 00           ld    hl,27
  882+64B4 E5                 push  hl
  883+64B5 21 10 00           ld    hl,16
  884+64B8 55                 ld    d,l
  885+64B9 E1                 pop   hl
  886+64BA 5D                 ld    e,l
  887+64BB E1                 pop   hl
  888+64BC CD DA A4           call  put_spr_put
  889+64BF C3 E9 64           jp    L58
  890+64C2              L71
  891+64C2 3A 50 B5           ld    a,(_L57)
  892+64C5 FE 07              cp    7
  893+64C7 CA CD 64           jp    z,L72
  894+64CA C3 E9 64           jp    L73
  895+64CD              L72
  896+64CD 21 34 C8           ld    hl,SPRBLOCK7
  897+64D0 E5                 push  hl
  898+64D1 21 47 00           ld    hl,71
  899+64D4 7D                 ld    a,l
  900+64D5 32 F8 AF           ld    (attr_sprite),a
  901+64D8 21 1B 00           ld    hl,27
  902+64DB E5                 push  hl
  903+64DC 21 10 00           ld    hl,16
  904+64DF 55                 ld    d,l
  905+64E0 E1                 pop   hl
  906+64E1 5D                 ld    e,l
  907+64E2 E1                 pop   hl
  908+64E3 CD DA A4           call  put_spr_put
  909+64E6 C3 E9 64           jp    L58
  910+64E9              L73
  911+64E9              L58
  912+64E9 C9                 ret
  913+64EA              _BLOCKGEN
  914+64EA              L74
  915+64EA 21 05 00           ld    hl,5
  916+64ED CD B6 A4           call  random
  917+64F0 23                 inc   hl
  918+64F1 7D                 ld    a,l
  919+64F2 32 52 B0           ld    (_X1),a
  920+64F5 21 05 00           ld    hl,5
  921+64F8 CD B6 A4           call  random
  922+64FB 23                 inc   hl
  923+64FC 7D                 ld    a,l
  924+64FD 32 53 B0           ld    (_Y1),a
  925+6500 3A 52 B0           ld    a,(_X1)
  926+6503 6F                 ld    l,a
  927+6504 26 00              ld    h,0
  928+6506 2B                 dec   hl
  929+6507 29                 add   hl,hl
  930+6508 54                 ld    d,h
  931+6509 5D                 ld    e,l
  932+650A 29                 add   hl,hl
  933+650B 19                 add   hl,de
  934+650C 11 BD B4           ld    de,_MAPBLOCK
  935+650F 19                 add   hl,de
  936+6510 E5                 push  hl
  937+6511 3A 53 B0           ld    a,(_Y1)
  938+6514 6F                 ld    l,a
  939+6515 26 00              ld    h,0
  940+6517 2B                 dec   hl
  941+6518 D1                 pop   de
  942+6519 19                 add   hl,de
  943+651A AF                 xor   a
  944+651B BE                 cp    (hl)
  945+651C C2 22 65           jp    nz,L76
  946+651F C3 25 65           jp    L75
  947+6522              L76
  948+6522 C3 EA 64           jp    L74
  949+6525              L75
  950+6525              L77
  951+6525 21 05 00           ld    hl,5
  952+6528 CD B6 A4           call  random
  953+652B 23                 inc   hl
  954+652C 7D                 ld    a,l
  955+652D 32 54 B0           ld    (_X2),a
  956+6530 21 05 00           ld    hl,5
  957+6533 CD B6 A4           call  random
  958+6536 23                 inc   hl
  959+6537 7D                 ld    a,l
  960+6538 32 55 B0           ld    (_Y2),a
  961+653B 3A 54 B0           ld    a,(_X2)
  962+653E 21 52 B0           ld    hl,_X1
  963+6541 BE                 cp    (hl)
  964+6542 CA 71 65           jp    z,L79
  965+6545 3A 55 B0           ld    a,(_Y2)
  966+6548 21 53 B0           ld    hl,_Y1
  967+654B BE                 cp    (hl)
  968+654C CA 71 65           jp    z,L79
  969+654F 3A 54 B0           ld    a,(_X2)
  970+6552 6F                 ld    l,a
  971+6553 26 00              ld    h,0
  972+6555 2B                 dec   hl
  973+6556 29                 add   hl,hl
  974+6557 54                 ld    d,h
  975+6558 5D                 ld    e,l
  976+6559 29                 add   hl,hl
  977+655A 19                 add   hl,de
  978+655B 11 BD B4           ld    de,_MAPBLOCK
  979+655E 19                 add   hl,de
  980+655F E5                 push  hl
  981+6560 3A 55 B0           ld    a,(_Y2)
  982+6563 6F                 ld    l,a
  983+6564 26 00              ld    h,0
  984+6566 2B                 dec   hl
  985+6567 D1                 pop   de
  986+6568 19                 add   hl,de
  987+6569 AF                 xor   a
  988+656A BE                 cp    (hl)
  989+656B C2 71 65           jp    nz,L79
  990+656E C3 74 65           jp    L78
  991+6571              L79
  992+6571 C3 25 65           jp    L77
  993+6574              L78
  994+6574 3A 56 B0           ld    a,(_COLOR1)
  995+6577 32 51 B5           ld    (_L80),a
  996+657A FE 01              cp    1
  997+657C CA 82 65           jp    z,L83
  998+657F C3 AE 65           jp    L84
  999+6582              L83
 1000+6582 21 12 C6           ld    hl,SPRBLOCK1
 1001+6585 E5                 push  hl
 1002+6586 21 01 00           ld    hl,1
 1003+6589 7D                 ld    a,l
 1004+658A 32 F8 AF           ld    (attr_sprite),a
 1005+658D 3A 52 B0           ld    a,(_X1)
 1006+6590 6F                 ld    l,a
 1007+6591 26 00              ld    h,0
 1008+6593 54                 ld    d,h
 1009+6594 5D                 ld    e,l
 1010+6595 29                 add   hl,hl
 1011+6596 19                 add   hl,de
 1012+6597 2B                 dec   hl
 1013+6598 E5                 push  hl
 1014+6599 3A 53 B0           ld    a,(_Y1)
 1015+659C 6F                 ld    l,a
 1016+659D 26 00              ld    h,0
 1017+659F 54                 ld    d,h
 1018+65A0 5D                 ld    e,l
 1019+65A1 29                 add   hl,hl
 1020+65A2 19                 add   hl,de
 1021+65A3 2B                 dec   hl
 1022+65A4 55                 ld    d,l
 1023+65A5 E1                 pop   hl
 1024+65A6 5D                 ld    e,l
 1025+65A7 E1                 pop   hl
 1026+65A8 CD DA A4           call  put_spr_put
 1027+65AB C3 F8 66           jp    L81
 1028+65AE              L84
 1029+65AE 3A 51 B5           ld    a,(_L80)
 1030+65B1 FE 02              cp    2
 1031+65B3 CA B9 65           jp    z,L85
 1032+65B6 C3 E5 65           jp    L86
 1033+65B9              L85
 1034+65B9 21 6D C6           ld    hl,SPRBLOCK2
 1035+65BC E5                 push  hl
 1036+65BD 21 02 00           ld    hl,2
 1037+65C0 7D                 ld    a,l
 1038+65C1 32 F8 AF           ld    (attr_sprite),a
 1039+65C4 3A 52 B0           ld    a,(_X1)
 1040+65C7 6F                 ld    l,a
 1041+65C8 26 00              ld    h,0
 1042+65CA 54                 ld    d,h
 1043+65CB 5D                 ld    e,l
 1044+65CC 29                 add   hl,hl
 1045+65CD 19                 add   hl,de
 1046+65CE 2B                 dec   hl
 1047+65CF E5                 push  hl
 1048+65D0 3A 53 B0           ld    a,(_Y1)
 1049+65D3 6F                 ld    l,a
 1050+65D4 26 00              ld    h,0
 1051+65D6 54                 ld    d,h
 1052+65D7 5D                 ld    e,l
 1053+65D8 29                 add   hl,hl
 1054+65D9 19                 add   hl,de
 1055+65DA 2B                 dec   hl
 1056+65DB 55                 ld    d,l
 1057+65DC E1                 pop   hl
 1058+65DD 5D                 ld    e,l
 1059+65DE E1                 pop   hl
 1060+65DF CD DA A4           call  put_spr_put
 1061+65E2 C3 F8 66           jp    L81
 1062+65E5              L86
 1063+65E5 3A 51 B5           ld    a,(_L80)
 1064+65E8 FE 03              cp    3
 1065+65EA CA F0 65           jp    z,L87
 1066+65ED C3 1C 66           jp    L88
 1067+65F0              L87
 1068+65F0 21 C8 C6           ld    hl,SPRBLOCK3
 1069+65F3 E5                 push  hl
 1070+65F4 21 03 00           ld    hl,3
 1071+65F7 7D                 ld    a,l
 1072+65F8 32 F8 AF           ld    (attr_sprite),a
 1073+65FB 3A 52 B0           ld    a,(_X1)
 1074+65FE 6F                 ld    l,a
 1075+65FF 26 00              ld    h,0
 1076+6601 54                 ld    d,h
 1077+6602 5D                 ld    e,l
 1078+6603 29                 add   hl,hl
 1079+6604 19                 add   hl,de
 1080+6605 2B                 dec   hl
 1081+6606 E5                 push  hl
 1082+6607 3A 53 B0           ld    a,(_Y1)
 1083+660A 6F                 ld    l,a
 1084+660B 26 00              ld    h,0
 1085+660D 54                 ld    d,h
 1086+660E 5D                 ld    e,l
 1087+660F 29                 add   hl,hl
 1088+6610 19                 add   hl,de
 1089+6611 2B                 dec   hl
 1090+6612 55                 ld    d,l
 1091+6613 E1                 pop   hl
 1092+6614 5D                 ld    e,l
 1093+6615 E1                 pop   hl
 1094+6616 CD DA A4           call  put_spr_put
 1095+6619 C3 F8 66           jp    L81
 1096+661C              L88
 1097+661C 3A 51 B5           ld    a,(_L80)
 1098+661F FE 04              cp    4
 1099+6621 CA 27 66           jp    z,L89
 1100+6624 C3 53 66           jp    L90
 1101+6627              L89
 1102+6627 21 23 C7           ld    hl,SPRBLOCK4
 1103+662A E5                 push  hl
 1104+662B 21 04 00           ld    hl,4
 1105+662E 7D                 ld    a,l
 1106+662F 32 F8 AF           ld    (attr_sprite),a
 1107+6632 3A 52 B0           ld    a,(_X1)
 1108+6635 6F                 ld    l,a
 1109+6636 26 00              ld    h,0
 1110+6638 54                 ld    d,h
 1111+6639 5D                 ld    e,l
 1112+663A 29                 add   hl,hl
 1113+663B 19                 add   hl,de
 1114+663C 2B                 dec   hl
 1115+663D E5                 push  hl
 1116+663E 3A 53 B0           ld    a,(_Y1)
 1117+6641 6F                 ld    l,a
 1118+6642 26 00              ld    h,0
 1119+6644 54                 ld    d,h
 1120+6645 5D                 ld    e,l
 1121+6646 29                 add   hl,hl
 1122+6647 19                 add   hl,de
 1123+6648 2B                 dec   hl
 1124+6649 55                 ld    d,l
 1125+664A E1                 pop   hl
 1126+664B 5D                 ld    e,l
 1127+664C E1                 pop   hl
 1128+664D CD DA A4           call  put_spr_put
 1129+6650 C3 F8 66           jp    L81
 1130+6653              L90
 1131+6653 3A 51 B5           ld    a,(_L80)
 1132+6656 FE 05              cp    5
 1133+6658 CA 5E 66           jp    z,L91
 1134+665B C3 8A 66           jp    L92
 1135+665E              L91
 1136+665E 21 7E C7           ld    hl,SPRBLOCK5
 1137+6661 E5                 push  hl
 1138+6662 21 05 00           ld    hl,5
 1139+6665 7D                 ld    a,l
 1140+6666 32 F8 AF           ld    (attr_sprite),a
 1141+6669 3A 52 B0           ld    a,(_X1)
 1142+666C 6F                 ld    l,a
 1143+666D 26 00              ld    h,0
 1144+666F 54                 ld    d,h
 1145+6670 5D                 ld    e,l
 1146+6671 29                 add   hl,hl
 1147+6672 19                 add   hl,de
 1148+6673 2B                 dec   hl
 1149+6674 E5                 push  hl
 1150+6675 3A 53 B0           ld    a,(_Y1)
 1151+6678 6F                 ld    l,a
 1152+6679 26 00              ld    h,0
 1153+667B 54                 ld    d,h
 1154+667C 5D                 ld    e,l
 1155+667D 29                 add   hl,hl
 1156+667E 19                 add   hl,de
 1157+667F 2B                 dec   hl
 1158+6680 55                 ld    d,l
 1159+6681 E1                 pop   hl
 1160+6682 5D                 ld    e,l
 1161+6683 E1                 pop   hl
 1162+6684 CD DA A4           call  put_spr_put
 1163+6687 C3 F8 66           jp    L81
 1164+668A              L92
 1165+668A 3A 51 B5           ld    a,(_L80)
 1166+668D FE 06              cp    6
 1167+668F CA 95 66           jp    z,L93
 1168+6692 C3 C1 66           jp    L94
 1169+6695              L93
 1170+6695 21 D9 C7           ld    hl,SPRBLOCK6
 1171+6698 E5                 push  hl
 1172+6699 21 06 00           ld    hl,6
 1173+669C 7D                 ld    a,l
 1174+669D 32 F8 AF           ld    (attr_sprite),a
 1175+66A0 3A 52 B0           ld    a,(_X1)
 1176+66A3 6F                 ld    l,a
 1177+66A4 26 00              ld    h,0
 1178+66A6 54                 ld    d,h
 1179+66A7 5D                 ld    e,l
 1180+66A8 29                 add   hl,hl
 1181+66A9 19                 add   hl,de
 1182+66AA 2B                 dec   hl
 1183+66AB E5                 push  hl
 1184+66AC 3A 53 B0           ld    a,(_Y1)
 1185+66AF 6F                 ld    l,a
 1186+66B0 26 00              ld    h,0
 1187+66B2 54                 ld    d,h
 1188+66B3 5D                 ld    e,l
 1189+66B4 29                 add   hl,hl
 1190+66B5 19                 add   hl,de
 1191+66B6 2B                 dec   hl
 1192+66B7 55                 ld    d,l
 1193+66B8 E1                 pop   hl
 1194+66B9 5D                 ld    e,l
 1195+66BA E1                 pop   hl
 1196+66BB CD DA A4           call  put_spr_put
 1197+66BE C3 F8 66           jp    L81
 1198+66C1              L94
 1199+66C1 3A 51 B5           ld    a,(_L80)
 1200+66C4 FE 07              cp    7
 1201+66C6 CA CC 66           jp    z,L95
 1202+66C9 C3 F8 66           jp    L96
 1203+66CC              L95
 1204+66CC 21 34 C8           ld    hl,SPRBLOCK7
 1205+66CF E5                 push  hl
 1206+66D0 21 47 00           ld    hl,71
 1207+66D3 7D                 ld    a,l
 1208+66D4 32 F8 AF           ld    (attr_sprite),a
 1209+66D7 3A 52 B0           ld    a,(_X1)
 1210+66DA 6F                 ld    l,a
 1211+66DB 26 00              ld    h,0
 1212+66DD 54                 ld    d,h
 1213+66DE 5D                 ld    e,l
 1214+66DF 29                 add   hl,hl
 1215+66E0 19                 add   hl,de
 1216+66E1 2B                 dec   hl
 1217+66E2 E5                 push  hl
 1218+66E3 3A 53 B0           ld    a,(_Y1)
 1219+66E6 6F                 ld    l,a
 1220+66E7 26 00              ld    h,0
 1221+66E9 54                 ld    d,h
 1222+66EA 5D                 ld    e,l
 1223+66EB 29                 add   hl,hl
 1224+66EC 19                 add   hl,de
 1225+66ED 2B                 dec   hl
 1226+66EE 55                 ld    d,l
 1227+66EF E1                 pop   hl
 1228+66F0 5D                 ld    e,l
 1229+66F1 E1                 pop   hl
 1230+66F2 CD DA A4           call  put_spr_put
 1231+66F5 C3 F8 66           jp    L81
 1232+66F8              L96
 1233+66F8              L81
 1234+66F8 3A 57 B0           ld    a,(_COLOR2)
 1235+66FB 32 52 B5           ld    (_L97),a
 1236+66FE FE 01              cp    1
 1237+6700 CA 06 67           jp    z,L100
 1238+6703 C3 32 67           jp    L101
 1239+6706              L100
 1240+6706 21 12 C6           ld    hl,SPRBLOCK1
 1241+6709 E5                 push  hl
 1242+670A 21 01 00           ld    hl,1
 1243+670D 7D                 ld    a,l
 1244+670E 32 F8 AF           ld    (attr_sprite),a
 1245+6711 3A 54 B0           ld    a,(_X2)
 1246+6714 6F                 ld    l,a
 1247+6715 26 00              ld    h,0
 1248+6717 54                 ld    d,h
 1249+6718 5D                 ld    e,l
 1250+6719 29                 add   hl,hl
 1251+671A 19                 add   hl,de
 1252+671B 2B                 dec   hl
 1253+671C E5                 push  hl
 1254+671D 3A 55 B0           ld    a,(_Y2)
 1255+6720 6F                 ld    l,a
 1256+6721 26 00              ld    h,0
 1257+6723 54                 ld    d,h
 1258+6724 5D                 ld    e,l
 1259+6725 29                 add   hl,hl
 1260+6726 19                 add   hl,de
 1261+6727 2B                 dec   hl
 1262+6728 55                 ld    d,l
 1263+6729 E1                 pop   hl
 1264+672A 5D                 ld    e,l
 1265+672B E1                 pop   hl
 1266+672C CD DA A4           call  put_spr_put
 1267+672F C3 7C 68           jp    L98
 1268+6732              L101
 1269+6732 3A 52 B5           ld    a,(_L97)
 1270+6735 FE 02              cp    2
 1271+6737 CA 3D 67           jp    z,L102
 1272+673A C3 69 67           jp    L103
 1273+673D              L102
 1274+673D 21 6D C6           ld    hl,SPRBLOCK2
 1275+6740 E5                 push  hl
 1276+6741 21 02 00           ld    hl,2
 1277+6744 7D                 ld    a,l
 1278+6745 32 F8 AF           ld    (attr_sprite),a
 1279+6748 3A 54 B0           ld    a,(_X2)
 1280+674B 6F                 ld    l,a
 1281+674C 26 00              ld    h,0
 1282+674E 54                 ld    d,h
 1283+674F 5D                 ld    e,l
 1284+6750 29                 add   hl,hl
 1285+6751 19                 add   hl,de
 1286+6752 2B                 dec   hl
 1287+6753 E5                 push  hl
 1288+6754 3A 55 B0           ld    a,(_Y2)
 1289+6757 6F                 ld    l,a
 1290+6758 26 00              ld    h,0
 1291+675A 54                 ld    d,h
 1292+675B 5D                 ld    e,l
 1293+675C 29                 add   hl,hl
 1294+675D 19                 add   hl,de
 1295+675E 2B                 dec   hl
 1296+675F 55                 ld    d,l
 1297+6760 E1                 pop   hl
 1298+6761 5D                 ld    e,l
 1299+6762 E1                 pop   hl
 1300+6763 CD DA A4           call  put_spr_put
 1301+6766 C3 7C 68           jp    L98
 1302+6769              L103
 1303+6769 3A 52 B5           ld    a,(_L97)
 1304+676C FE 03              cp    3
 1305+676E CA 74 67           jp    z,L104
 1306+6771 C3 A0 67           jp    L105
 1307+6774              L104
 1308+6774 21 C8 C6           ld    hl,SPRBLOCK3
 1309+6777 E5                 push  hl
 1310+6778 21 03 00           ld    hl,3
 1311+677B 7D                 ld    a,l
 1312+677C 32 F8 AF           ld    (attr_sprite),a
 1313+677F 3A 54 B0           ld    a,(_X2)
 1314+6782 6F                 ld    l,a
 1315+6783 26 00              ld    h,0
 1316+6785 54                 ld    d,h
 1317+6786 5D                 ld    e,l
 1318+6787 29                 add   hl,hl
 1319+6788 19                 add   hl,de
 1320+6789 2B                 dec   hl
 1321+678A E5                 push  hl
 1322+678B 3A 55 B0           ld    a,(_Y2)
 1323+678E 6F                 ld    l,a
 1324+678F 26 00              ld    h,0
 1325+6791 54                 ld    d,h
 1326+6792 5D                 ld    e,l
 1327+6793 29                 add   hl,hl
 1328+6794 19                 add   hl,de
 1329+6795 2B                 dec   hl
 1330+6796 55                 ld    d,l
 1331+6797 E1                 pop   hl
 1332+6798 5D                 ld    e,l
 1333+6799 E1                 pop   hl
 1334+679A CD DA A4           call  put_spr_put
 1335+679D C3 7C 68           jp    L98
 1336+67A0              L105
 1337+67A0 3A 52 B5           ld    a,(_L97)
 1338+67A3 FE 04              cp    4
 1339+67A5 CA AB 67           jp    z,L106
 1340+67A8 C3 D7 67           jp    L107
 1341+67AB              L106
 1342+67AB 21 23 C7           ld    hl,SPRBLOCK4
 1343+67AE E5                 push  hl
 1344+67AF 21 04 00           ld    hl,4
 1345+67B2 7D                 ld    a,l
 1346+67B3 32 F8 AF           ld    (attr_sprite),a
 1347+67B6 3A 54 B0           ld    a,(_X2)
 1348+67B9 6F                 ld    l,a
 1349+67BA 26 00              ld    h,0
 1350+67BC 54                 ld    d,h
 1351+67BD 5D                 ld    e,l
 1352+67BE 29                 add   hl,hl
 1353+67BF 19                 add   hl,de
 1354+67C0 2B                 dec   hl
 1355+67C1 E5                 push  hl
 1356+67C2 3A 55 B0           ld    a,(_Y2)
 1357+67C5 6F                 ld    l,a
 1358+67C6 26 00              ld    h,0
 1359+67C8 54                 ld    d,h
 1360+67C9 5D                 ld    e,l
 1361+67CA 29                 add   hl,hl
 1362+67CB 19                 add   hl,de
 1363+67CC 2B                 dec   hl
 1364+67CD 55                 ld    d,l
 1365+67CE E1                 pop   hl
 1366+67CF 5D                 ld    e,l
 1367+67D0 E1                 pop   hl
 1368+67D1 CD DA A4           call  put_spr_put
 1369+67D4 C3 7C 68           jp    L98
 1370+67D7              L107
 1371+67D7 3A 52 B5           ld    a,(_L97)
 1372+67DA FE 05              cp    5
 1373+67DC CA E2 67           jp    z,L108
 1374+67DF C3 0E 68           jp    L109
 1375+67E2              L108
 1376+67E2 21 7E C7           ld    hl,SPRBLOCK5
 1377+67E5 E5                 push  hl
 1378+67E6 21 05 00           ld    hl,5
 1379+67E9 7D                 ld    a,l
 1380+67EA 32 F8 AF           ld    (attr_sprite),a
 1381+67ED 3A 54 B0           ld    a,(_X2)
 1382+67F0 6F                 ld    l,a
 1383+67F1 26 00              ld    h,0
 1384+67F3 54                 ld    d,h
 1385+67F4 5D                 ld    e,l
 1386+67F5 29                 add   hl,hl
 1387+67F6 19                 add   hl,de
 1388+67F7 2B                 dec   hl
 1389+67F8 E5                 push  hl
 1390+67F9 3A 55 B0           ld    a,(_Y2)
 1391+67FC 6F                 ld    l,a
 1392+67FD 26 00              ld    h,0
 1393+67FF 54                 ld    d,h
 1394+6800 5D                 ld    e,l
 1395+6801 29                 add   hl,hl
 1396+6802 19                 add   hl,de
 1397+6803 2B                 dec   hl
 1398+6804 55                 ld    d,l
 1399+6805 E1                 pop   hl
 1400+6806 5D                 ld    e,l
 1401+6807 E1                 pop   hl
 1402+6808 CD DA A4           call  put_spr_put
 1403+680B C3 7C 68           jp    L98
 1404+680E              L109
 1405+680E 3A 52 B5           ld    a,(_L97)
 1406+6811 FE 06              cp    6
 1407+6813 CA 19 68           jp    z,L110
 1408+6816 C3 45 68           jp    L111
 1409+6819              L110
 1410+6819 21 D9 C7           ld    hl,SPRBLOCK6
 1411+681C E5                 push  hl
 1412+681D 21 06 00           ld    hl,6
 1413+6820 7D                 ld    a,l
 1414+6821 32 F8 AF           ld    (attr_sprite),a
 1415+6824 3A 54 B0           ld    a,(_X2)
 1416+6827 6F                 ld    l,a
 1417+6828 26 00              ld    h,0
 1418+682A 54                 ld    d,h
 1419+682B 5D                 ld    e,l
 1420+682C 29                 add   hl,hl
 1421+682D 19                 add   hl,de
 1422+682E 2B                 dec   hl
 1423+682F E5                 push  hl
 1424+6830 3A 55 B0           ld    a,(_Y2)
 1425+6833 6F                 ld    l,a
 1426+6834 26 00              ld    h,0
 1427+6836 54                 ld    d,h
 1428+6837 5D                 ld    e,l
 1429+6838 29                 add   hl,hl
 1430+6839 19                 add   hl,de
 1431+683A 2B                 dec   hl
 1432+683B 55                 ld    d,l
 1433+683C E1                 pop   hl
 1434+683D 5D                 ld    e,l
 1435+683E E1                 pop   hl
 1436+683F CD DA A4           call  put_spr_put
 1437+6842 C3 7C 68           jp    L98
 1438+6845              L111
 1439+6845 3A 52 B5           ld    a,(_L97)
 1440+6848 FE 07              cp    7
 1441+684A CA 50 68           jp    z,L112
 1442+684D C3 7C 68           jp    L113
 1443+6850              L112
 1444+6850 21 34 C8           ld    hl,SPRBLOCK7
 1445+6853 E5                 push  hl
 1446+6854 21 47 00           ld    hl,71
 1447+6857 7D                 ld    a,l
 1448+6858 32 F8 AF           ld    (attr_sprite),a
 1449+685B 3A 54 B0           ld    a,(_X2)
 1450+685E 6F                 ld    l,a
 1451+685F 26 00              ld    h,0
 1452+6861 54                 ld    d,h
 1453+6862 5D                 ld    e,l
 1454+6863 29                 add   hl,hl
 1455+6864 19                 add   hl,de
 1456+6865 2B                 dec   hl
 1457+6866 E5                 push  hl
 1458+6867 3A 55 B0           ld    a,(_Y2)
 1459+686A 6F                 ld    l,a
 1460+686B 26 00              ld    h,0
 1461+686D 54                 ld    d,h
 1462+686E 5D                 ld    e,l
 1463+686F 29                 add   hl,hl
 1464+6870 19                 add   hl,de
 1465+6871 2B                 dec   hl
 1466+6872 55                 ld    d,l
 1467+6873 E1                 pop   hl
 1468+6874 5D                 ld    e,l
 1469+6875 E1                 pop   hl
 1470+6876 CD DA A4           call  put_spr_put
 1471+6879 C3 7C 68           jp    L98
 1472+687C              L113
 1473+687C              L98
 1474+687C 3A 52 B0           ld    a,(_X1)
 1475+687F 6F                 ld    l,a
 1476+6880 26 00              ld    h,0
 1477+6882 2B                 dec   hl
 1478+6883 29                 add   hl,hl
 1479+6884 54                 ld    d,h
 1480+6885 5D                 ld    e,l
 1481+6886 29                 add   hl,hl
 1482+6887 19                 add   hl,de
 1483+6888 11 BD B4           ld    de,_MAPBLOCK
 1484+688B 19                 add   hl,de
 1485+688C E5                 push  hl
 1486+688D 3A 53 B0           ld    a,(_Y1)
 1487+6890 6F                 ld    l,a
 1488+6891 26 00              ld    h,0
 1489+6893 2B                 dec   hl
 1490+6894 D1                 pop   de
 1491+6895 19                 add   hl,de
 1492+6896 3A 56 B0           ld    a,(_COLOR1)
 1493+6899 77                 ld    (hl),a
 1494+689A 3A 54 B0           ld    a,(_X2)
 1495+689D 6F                 ld    l,a
 1496+689E 26 00              ld    h,0
 1497+68A0 2B                 dec   hl
 1498+68A1 29                 add   hl,hl
 1499+68A2 54                 ld    d,h
 1500+68A3 5D                 ld    e,l
 1501+68A4 29                 add   hl,hl
 1502+68A5 19                 add   hl,de
 1503+68A6 11 BD B4           ld    de,_MAPBLOCK
 1504+68A9 19                 add   hl,de
 1505+68AA E5                 push  hl
 1506+68AB 3A 55 B0           ld    a,(_Y2)
 1507+68AE 6F                 ld    l,a
 1508+68AF 26 00              ld    h,0
 1509+68B1 2B                 dec   hl
 1510+68B2 D1                 pop   de
 1511+68B3 19                 add   hl,de
 1512+68B4 3A 57 B0           ld    a,(_COLOR2)
 1513+68B7 77                 ld    (hl),a
 1514+68B8 CD C0 62           call  _NEXTBLOCKVIEW1
 1515+68BB CD D5 63           call  _NEXTBLOCKVIEW2
 1516+68BE 3A 58 B0           ld    a,(_COLOR3)
 1517+68C1 32 56 B0           ld    (_COLOR1),a
 1518+68C4 3A 59 B0           ld    a,(_COLOR4)
 1519+68C7 32 57 B0           ld    (_COLOR2),a
 1520+68CA 3A 61 B0           ld    a,(_COLORBLOCK)
 1521+68CD 6F                 ld    l,a
 1522+68CE 26 00              ld    h,0
 1523+68D0 CD B6 A4           call  random
 1524+68D3 23                 inc   hl
 1525+68D4 7D                 ld    a,l
 1526+68D5 32 58 B0           ld    (_COLOR3),a
 1527+68D8 3A 61 B0           ld    a,(_COLORBLOCK)
 1528+68DB 6F                 ld    l,a
 1529+68DC 26 00              ld    h,0
 1530+68DE CD B6 A4           call  random
 1531+68E1 23                 inc   hl
 1532+68E2 7D                 ld    a,l
 1533+68E3 32 59 B0           ld    (_COLOR4),a
 1534+68E6 C9                 ret
 1535+68E7              _BLOCKGEN2
 1536+68E7 AF                 xor   a
 1537+68E8 32 5C B0           ld    (_I),a
 1538+68EB 3E 01              ld    a,1
 1539+68ED 32 5A B0           ld    (_X),a
 1540+68F0 3E 06              ld    a,6
 1541+68F2 32 53 B5           ld    (Lim_X),a
 1542+68F5              L114
 1543+68F5 3E 01              ld    a,1
 1544+68F7 32 5B B0           ld    (_Y),a
 1545+68FA 3E 06              ld    a,6
 1546+68FC 32 54 B5           ld    (Lim_Y),a
 1547+68FF              L116
 1548+68FF 3A 5A B0           ld    a,(_X)
 1549+6902 6F                 ld    l,a
 1550+6903 26 00              ld    h,0
 1551+6905 2B                 dec   hl
 1552+6906 29                 add   hl,hl
 1553+6907 54                 ld    d,h
 1554+6908 5D                 ld    e,l
 1555+6909 29                 add   hl,hl
 1556+690A 19                 add   hl,de
 1557+690B 11 BD B4           ld    de,_MAPBLOCK
 1558+690E 19                 add   hl,de
 1559+690F E5                 push  hl
 1560+6910 3A 5B B0           ld    a,(_Y)
 1561+6913 6F                 ld    l,a
 1562+6914 26 00              ld    h,0
 1563+6916 2B                 dec   hl
 1564+6917 D1                 pop   de
 1565+6918 19                 add   hl,de
 1566+6919 AF                 xor   a
 1567+691A BE                 cp    (hl)
 1568+691B C2 EE 6A           jp    nz,L118
 1569+691E 3E 01              ld    a,1
 1570+6920 21 5C B0           ld    hl,_I
 1571+6923 BE                 cp    (hl)
 1572+6924 CA EE 6A           jp    z,L118
 1573+6927 DA EE 6A           jp    c,L118
 1574+692A              L119
 1575+692A 3A 56 B0           ld    a,(_COLOR1)
 1576+692D 32 55 B5           ld    (_L121),a
 1577+6930 FE 01              cp    1
 1578+6932 CA 38 69           jp    z,L124
 1579+6935 C3 64 69           jp    L125
 1580+6938              L124
 1581+6938 21 12 C6           ld    hl,SPRBLOCK1
 1582+693B E5                 push  hl
 1583+693C 21 01 00           ld    hl,1
 1584+693F 7D                 ld    a,l
 1585+6940 32 F8 AF           ld    (attr_sprite),a
 1586+6943 3A 5A B0           ld    a,(_X)
 1587+6946 6F                 ld    l,a
 1588+6947 26 00              ld    h,0
 1589+6949 54                 ld    d,h
 1590+694A 5D                 ld    e,l
 1591+694B 29                 add   hl,hl
 1592+694C 19                 add   hl,de
 1593+694D 2B                 dec   hl
 1594+694E E5                 push  hl
 1595+694F 3A 5B B0           ld    a,(_Y)
 1596+6952 6F                 ld    l,a
 1597+6953 26 00              ld    h,0
 1598+6955 54                 ld    d,h
 1599+6956 5D                 ld    e,l
 1600+6957 29                 add   hl,hl
 1601+6958 19                 add   hl,de
 1602+6959 2B                 dec   hl
 1603+695A 55                 ld    d,l
 1604+695B E1                 pop   hl
 1605+695C 5D                 ld    e,l
 1606+695D E1                 pop   hl
 1607+695E CD DA A4           call  put_spr_put
 1608+6961 C3 AE 6A           jp    L122
 1609+6964              L125
 1610+6964 3A 55 B5           ld    a,(_L121)
 1611+6967 FE 02              cp    2
 1612+6969 CA 6F 69           jp    z,L126
 1613+696C C3 9B 69           jp    L127
 1614+696F              L126
 1615+696F 21 6D C6           ld    hl,SPRBLOCK2
 1616+6972 E5                 push  hl
 1617+6973 21 02 00           ld    hl,2
 1618+6976 7D                 ld    a,l
 1619+6977 32 F8 AF           ld    (attr_sprite),a
 1620+697A 3A 5A B0           ld    a,(_X)
 1621+697D 6F                 ld    l,a
 1622+697E 26 00              ld    h,0
 1623+6980 54                 ld    d,h
 1624+6981 5D                 ld    e,l
 1625+6982 29                 add   hl,hl
 1626+6983 19                 add   hl,de
 1627+6984 2B                 dec   hl
 1628+6985 E5                 push  hl
 1629+6986 3A 5B B0           ld    a,(_Y)
 1630+6989 6F                 ld    l,a
 1631+698A 26 00              ld    h,0
 1632+698C 54                 ld    d,h
 1633+698D 5D                 ld    e,l
 1634+698E 29                 add   hl,hl
 1635+698F 19                 add   hl,de
 1636+6990 2B                 dec   hl
 1637+6991 55                 ld    d,l
 1638+6992 E1                 pop   hl
 1639+6993 5D                 ld    e,l
 1640+6994 E1                 pop   hl
 1641+6995 CD DA A4           call  put_spr_put
 1642+6998 C3 AE 6A           jp    L122
 1643+699B              L127
 1644+699B 3A 55 B5           ld    a,(_L121)
 1645+699E FE 03              cp    3
 1646+69A0 CA A6 69           jp    z,L128
 1647+69A3 C3 D2 69           jp    L129
 1648+69A6              L128
 1649+69A6 21 C8 C6           ld    hl,SPRBLOCK3
 1650+69A9 E5                 push  hl
 1651+69AA 21 03 00           ld    hl,3
 1652+69AD 7D                 ld    a,l
 1653+69AE 32 F8 AF           ld    (attr_sprite),a
 1654+69B1 3A 5A B0           ld    a,(_X)
 1655+69B4 6F                 ld    l,a
 1656+69B5 26 00              ld    h,0
 1657+69B7 54                 ld    d,h
 1658+69B8 5D                 ld    e,l
 1659+69B9 29                 add   hl,hl
 1660+69BA 19                 add   hl,de
 1661+69BB 2B                 dec   hl
 1662+69BC E5                 push  hl
 1663+69BD 3A 5B B0           ld    a,(_Y)
 1664+69C0 6F                 ld    l,a
 1665+69C1 26 00              ld    h,0
 1666+69C3 54                 ld    d,h
 1667+69C4 5D                 ld    e,l
 1668+69C5 29                 add   hl,hl
 1669+69C6 19                 add   hl,de
 1670+69C7 2B                 dec   hl
 1671+69C8 55                 ld    d,l
 1672+69C9 E1                 pop   hl
 1673+69CA 5D                 ld    e,l
 1674+69CB E1                 pop   hl
 1675+69CC CD DA A4           call  put_spr_put
 1676+69CF C3 AE 6A           jp    L122
 1677+69D2              L129
 1678+69D2 3A 55 B5           ld    a,(_L121)
 1679+69D5 FE 04              cp    4
 1680+69D7 CA DD 69           jp    z,L130
 1681+69DA C3 09 6A           jp    L131
 1682+69DD              L130
 1683+69DD 21 23 C7           ld    hl,SPRBLOCK4
 1684+69E0 E5                 push  hl
 1685+69E1 21 04 00           ld    hl,4
 1686+69E4 7D                 ld    a,l
 1687+69E5 32 F8 AF           ld    (attr_sprite),a
 1688+69E8 3A 5A B0           ld    a,(_X)
 1689+69EB 6F                 ld    l,a
 1690+69EC 26 00              ld    h,0
 1691+69EE 54                 ld    d,h
 1692+69EF 5D                 ld    e,l
 1693+69F0 29                 add   hl,hl
 1694+69F1 19                 add   hl,de
 1695+69F2 2B                 dec   hl
 1696+69F3 E5                 push  hl
 1697+69F4 3A 5B B0           ld    a,(_Y)
 1698+69F7 6F                 ld    l,a
 1699+69F8 26 00              ld    h,0
 1700+69FA 54                 ld    d,h
 1701+69FB 5D                 ld    e,l
 1702+69FC 29                 add   hl,hl
 1703+69FD 19                 add   hl,de
 1704+69FE 2B                 dec   hl
 1705+69FF 55                 ld    d,l
 1706+6A00 E1                 pop   hl
 1707+6A01 5D                 ld    e,l
 1708+6A02 E1                 pop   hl
 1709+6A03 CD DA A4           call  put_spr_put
 1710+6A06 C3 AE 6A           jp    L122
 1711+6A09              L131
 1712+6A09 3A 55 B5           ld    a,(_L121)
 1713+6A0C FE 05              cp    5
 1714+6A0E CA 14 6A           jp    z,L132
 1715+6A11 C3 40 6A           jp    L133
 1716+6A14              L132
 1717+6A14 21 7E C7           ld    hl,SPRBLOCK5
 1718+6A17 E5                 push  hl
 1719+6A18 21 05 00           ld    hl,5
 1720+6A1B 7D                 ld    a,l
 1721+6A1C 32 F8 AF           ld    (attr_sprite),a
 1722+6A1F 3A 5A B0           ld    a,(_X)
 1723+6A22 6F                 ld    l,a
 1724+6A23 26 00              ld    h,0
 1725+6A25 54                 ld    d,h
 1726+6A26 5D                 ld    e,l
 1727+6A27 29                 add   hl,hl
 1728+6A28 19                 add   hl,de
 1729+6A29 2B                 dec   hl
 1730+6A2A E5                 push  hl
 1731+6A2B 3A 5B B0           ld    a,(_Y)
 1732+6A2E 6F                 ld    l,a
 1733+6A2F 26 00              ld    h,0
 1734+6A31 54                 ld    d,h
 1735+6A32 5D                 ld    e,l
 1736+6A33 29                 add   hl,hl
 1737+6A34 19                 add   hl,de
 1738+6A35 2B                 dec   hl
 1739+6A36 55                 ld    d,l
 1740+6A37 E1                 pop   hl
 1741+6A38 5D                 ld    e,l
 1742+6A39 E1                 pop   hl
 1743+6A3A CD DA A4           call  put_spr_put
 1744+6A3D C3 AE 6A           jp    L122
 1745+6A40              L133
 1746+6A40 3A 55 B5           ld    a,(_L121)
 1747+6A43 FE 06              cp    6
 1748+6A45 CA 4B 6A           jp    z,L134
 1749+6A48 C3 77 6A           jp    L135
 1750+6A4B              L134
 1751+6A4B 21 D9 C7           ld    hl,SPRBLOCK6
 1752+6A4E E5                 push  hl
 1753+6A4F 21 06 00           ld    hl,6
 1754+6A52 7D                 ld    a,l
 1755+6A53 32 F8 AF           ld    (attr_sprite),a
 1756+6A56 3A 5A B0           ld    a,(_X)
 1757+6A59 6F                 ld    l,a
 1758+6A5A 26 00              ld    h,0
 1759+6A5C 54                 ld    d,h
 1760+6A5D 5D                 ld    e,l
 1761+6A5E 29                 add   hl,hl
 1762+6A5F 19                 add   hl,de
 1763+6A60 2B                 dec   hl
 1764+6A61 E5                 push  hl
 1765+6A62 3A 5B B0           ld    a,(_Y)
 1766+6A65 6F                 ld    l,a
 1767+6A66 26 00              ld    h,0
 1768+6A68 54                 ld    d,h
 1769+6A69 5D                 ld    e,l
 1770+6A6A 29                 add   hl,hl
 1771+6A6B 19                 add   hl,de
 1772+6A6C 2B                 dec   hl
 1773+6A6D 55                 ld    d,l
 1774+6A6E E1                 pop   hl
 1775+6A6F 5D                 ld    e,l
 1776+6A70 E1                 pop   hl
 1777+6A71 CD DA A4           call  put_spr_put
 1778+6A74 C3 AE 6A           jp    L122
 1779+6A77              L135
 1780+6A77 3A 55 B5           ld    a,(_L121)
 1781+6A7A FE 07              cp    7
 1782+6A7C CA 82 6A           jp    z,L136
 1783+6A7F C3 AE 6A           jp    L137
 1784+6A82              L136
 1785+6A82 21 34 C8           ld    hl,SPRBLOCK7
 1786+6A85 E5                 push  hl
 1787+6A86 21 47 00           ld    hl,71
 1788+6A89 7D                 ld    a,l
 1789+6A8A 32 F8 AF           ld    (attr_sprite),a
 1790+6A8D 3A 5A B0           ld    a,(_X)
 1791+6A90 6F                 ld    l,a
 1792+6A91 26 00              ld    h,0
 1793+6A93 54                 ld    d,h
 1794+6A94 5D                 ld    e,l
 1795+6A95 29                 add   hl,hl
 1796+6A96 19                 add   hl,de
 1797+6A97 2B                 dec   hl
 1798+6A98 E5                 push  hl
 1799+6A99 3A 5B B0           ld    a,(_Y)
 1800+6A9C 6F                 ld    l,a
 1801+6A9D 26 00              ld    h,0
 1802+6A9F 54                 ld    d,h
 1803+6AA0 5D                 ld    e,l
 1804+6AA1 29                 add   hl,hl
 1805+6AA2 19                 add   hl,de
 1806+6AA3 2B                 dec   hl
 1807+6AA4 55                 ld    d,l
 1808+6AA5 E1                 pop   hl
 1809+6AA6 5D                 ld    e,l
 1810+6AA7 E1                 pop   hl
 1811+6AA8 CD DA A4           call  put_spr_put
 1812+6AAB C3 AE 6A           jp    L122
 1813+6AAE              L137
 1814+6AAE              L122
 1815+6AAE 3A 5A B0           ld    a,(_X)
 1816+6AB1 6F                 ld    l,a
 1817+6AB2 26 00              ld    h,0
 1818+6AB4 2B                 dec   hl
 1819+6AB5 29                 add   hl,hl
 1820+6AB6 54                 ld    d,h
 1821+6AB7 5D                 ld    e,l
 1822+6AB8 29                 add   hl,hl
 1823+6AB9 19                 add   hl,de
 1824+6ABA 11 BD B4           ld    de,_MAPBLOCK
 1825+6ABD 19                 add   hl,de
 1826+6ABE E5                 push  hl
 1827+6ABF 3A 5B B0           ld    a,(_Y)
 1828+6AC2 6F                 ld    l,a
 1829+6AC3 26 00              ld    h,0
 1830+6AC5 2B                 dec   hl
 1831+6AC6 D1                 pop   de
 1832+6AC7 19                 add   hl,de
 1833+6AC8 3A 56 B0           ld    a,(_COLOR1)
 1834+6ACB 77                 ld    (hl),a
 1835+6ACC CD C0 62           call  _NEXTBLOCKVIEW1
 1836+6ACF 3A 58 B0           ld    a,(_COLOR3)
 1837+6AD2 32 56 B0           ld    (_COLOR1),a
 1838+6AD5 3A 61 B0           ld    a,(_COLORBLOCK)
 1839+6AD8 6F                 ld    l,a
 1840+6AD9 26 00              ld    h,0
 1841+6ADB CD B6 A4           call  random
 1842+6ADE 23                 inc   hl
 1843+6ADF 7D                 ld    a,l
 1844+6AE0 32 58 B0           ld    (_COLOR3),a
 1845+6AE3 3A 5C B0           ld    a,(_I)
 1846+6AE6 6F                 ld    l,a
 1847+6AE7 26 00              ld    h,0
 1848+6AE9 23                 inc   hl
 1849+6AEA 7D                 ld    a,l
 1850+6AEB 32 5C B0           ld    (_I),a
 1851+6AEE              L118
 1852+6AEE              L120
 1853+6AEE 3A 54 B5           ld    a,(Lim_Y)
 1854+6AF1 21 5B B0           ld    hl,_Y
 1855+6AF4 BE                 cp    (hl)
 1856+6AF5 CA FF 6A           jp    z,L117
 1857+6AF8 21 5B B0           ld    hl,_Y
 1858+6AFB 34                 inc   (hl)
 1859+6AFC C3 FF 68           jp    L116
 1860+6AFF              L117
 1861+6AFF 3A 53 B5           ld    a,(Lim_X)
 1862+6B02 21 5A B0           ld    hl,_X
 1863+6B05 BE                 cp    (hl)
 1864+6B06 CA 10 6B           jp    z,L115
 1865+6B09 21 5A B0           ld    hl,_X
 1866+6B0C 34                 inc   (hl)
 1867+6B0D C3 F5 68           jp    L114
 1868+6B10              L115
 1869+6B10 AF                 xor   a
 1870+6B11 32 5C B0           ld    (_I),a
 1871+6B14 3E 06              ld    a,6
 1872+6B16 32 5A B0           ld    (_X),a
 1873+6B19 3E 01              ld    a,1
 1874+6B1B 32 53 B5           ld    (Lim_X),a
 1875+6B1E              L138
 1876+6B1E 3E 06              ld    a,6
 1877+6B20 32 5B B0           ld    (_Y),a
 1878+6B23 3E 01              ld    a,1
 1879+6B25 32 54 B5           ld    (Lim_Y),a
 1880+6B28              L140
 1881+6B28 3A 5A B0           ld    a,(_X)
 1882+6B2B 6F                 ld    l,a
 1883+6B2C 26 00              ld    h,0
 1884+6B2E 2B                 dec   hl
 1885+6B2F 29                 add   hl,hl
 1886+6B30 54                 ld    d,h
 1887+6B31 5D                 ld    e,l
 1888+6B32 29                 add   hl,hl
 1889+6B33 19                 add   hl,de
 1890+6B34 11 BD B4           ld    de,_MAPBLOCK
 1891+6B37 19                 add   hl,de
 1892+6B38 E5                 push  hl
 1893+6B39 3A 5B B0           ld    a,(_Y)
 1894+6B3C 6F                 ld    l,a
 1895+6B3D 26 00              ld    h,0
 1896+6B3F 2B                 dec   hl
 1897+6B40 D1                 pop   de
 1898+6B41 19                 add   hl,de
 1899+6B42 AF                 xor   a
 1900+6B43 BE                 cp    (hl)
 1901+6B44 C2 17 6D           jp    nz,L142
 1902+6B47 3E 01              ld    a,1
 1903+6B49 21 5C B0           ld    hl,_I
 1904+6B4C BE                 cp    (hl)
 1905+6B4D CA 17 6D           jp    z,L142
 1906+6B50 DA 17 6D           jp    c,L142
 1907+6B53              L143
 1908+6B53 3A 57 B0           ld    a,(_COLOR2)
 1909+6B56 32 56 B5           ld    (_L145),a
 1910+6B59 FE 01              cp    1
 1911+6B5B CA 61 6B           jp    z,L148
 1912+6B5E C3 8D 6B           jp    L149
 1913+6B61              L148
 1914+6B61 21 12 C6           ld    hl,SPRBLOCK1
 1915+6B64 E5                 push  hl
 1916+6B65 21 01 00           ld    hl,1
 1917+6B68 7D                 ld    a,l
 1918+6B69 32 F8 AF           ld    (attr_sprite),a
 1919+6B6C 3A 5A B0           ld    a,(_X)
 1920+6B6F 6F                 ld    l,a
 1921+6B70 26 00              ld    h,0
 1922+6B72 54                 ld    d,h
 1923+6B73 5D                 ld    e,l
 1924+6B74 29                 add   hl,hl
 1925+6B75 19                 add   hl,de
 1926+6B76 2B                 dec   hl
 1927+6B77 E5                 push  hl
 1928+6B78 3A 5B B0           ld    a,(_Y)
 1929+6B7B 6F                 ld    l,a
 1930+6B7C 26 00              ld    h,0
 1931+6B7E 54                 ld    d,h
 1932+6B7F 5D                 ld    e,l
 1933+6B80 29                 add   hl,hl
 1934+6B81 19                 add   hl,de
 1935+6B82 2B                 dec   hl
 1936+6B83 55                 ld    d,l
 1937+6B84 E1                 pop   hl
 1938+6B85 5D                 ld    e,l
 1939+6B86 E1                 pop   hl
 1940+6B87 CD DA A4           call  put_spr_put
 1941+6B8A C3 D7 6C           jp    L146
 1942+6B8D              L149
 1943+6B8D 3A 56 B5           ld    a,(_L145)
 1944+6B90 FE 02              cp    2
 1945+6B92 CA 98 6B           jp    z,L150
 1946+6B95 C3 C4 6B           jp    L151
 1947+6B98              L150
 1948+6B98 21 6D C6           ld    hl,SPRBLOCK2
 1949+6B9B E5                 push  hl
 1950+6B9C 21 02 00           ld    hl,2
 1951+6B9F 7D                 ld    a,l
 1952+6BA0 32 F8 AF           ld    (attr_sprite),a
 1953+6BA3 3A 5A B0           ld    a,(_X)
 1954+6BA6 6F                 ld    l,a
 1955+6BA7 26 00              ld    h,0
 1956+6BA9 54                 ld    d,h
 1957+6BAA 5D                 ld    e,l
 1958+6BAB 29                 add   hl,hl
 1959+6BAC 19                 add   hl,de
 1960+6BAD 2B                 dec   hl
 1961+6BAE E5                 push  hl
 1962+6BAF 3A 5B B0           ld    a,(_Y)
 1963+6BB2 6F                 ld    l,a
 1964+6BB3 26 00              ld    h,0
 1965+6BB5 54                 ld    d,h
 1966+6BB6 5D                 ld    e,l
 1967+6BB7 29                 add   hl,hl
 1968+6BB8 19                 add   hl,de
 1969+6BB9 2B                 dec   hl
 1970+6BBA 55                 ld    d,l
 1971+6BBB E1                 pop   hl
 1972+6BBC 5D                 ld    e,l
 1973+6BBD E1                 pop   hl
 1974+6BBE CD DA A4           call  put_spr_put
 1975+6BC1 C3 D7 6C           jp    L146
 1976+6BC4              L151
 1977+6BC4 3A 56 B5           ld    a,(_L145)
 1978+6BC7 FE 03              cp    3
 1979+6BC9 CA CF 6B           jp    z,L152
 1980+6BCC C3 FB 6B           jp    L153
 1981+6BCF              L152
 1982+6BCF 21 C8 C6           ld    hl,SPRBLOCK3
 1983+6BD2 E5                 push  hl
 1984+6BD3 21 03 00           ld    hl,3
 1985+6BD6 7D                 ld    a,l
 1986+6BD7 32 F8 AF           ld    (attr_sprite),a
 1987+6BDA 3A 5A B0           ld    a,(_X)
 1988+6BDD 6F                 ld    l,a
 1989+6BDE 26 00              ld    h,0
 1990+6BE0 54                 ld    d,h
 1991+6BE1 5D                 ld    e,l
 1992+6BE2 29                 add   hl,hl
 1993+6BE3 19                 add   hl,de
 1994+6BE4 2B                 dec   hl
 1995+6BE5 E5                 push  hl
 1996+6BE6 3A 5B B0           ld    a,(_Y)
 1997+6BE9 6F                 ld    l,a
 1998+6BEA 26 00              ld    h,0
 1999+6BEC 54                 ld    d,h
 2000+6BED 5D                 ld    e,l
 2001+6BEE 29                 add   hl,hl
 2002+6BEF 19                 add   hl,de
 2003+6BF0 2B                 dec   hl
 2004+6BF1 55                 ld    d,l
 2005+6BF2 E1                 pop   hl
 2006+6BF3 5D                 ld    e,l
 2007+6BF4 E1                 pop   hl
 2008+6BF5 CD DA A4           call  put_spr_put
 2009+6BF8 C3 D7 6C           jp    L146
 2010+6BFB              L153
 2011+6BFB 3A 56 B5           ld    a,(_L145)
 2012+6BFE FE 04              cp    4
 2013+6C00 CA 06 6C           jp    z,L154
 2014+6C03 C3 32 6C           jp    L155
 2015+6C06              L154
 2016+6C06 21 23 C7           ld    hl,SPRBLOCK4
 2017+6C09 E5                 push  hl
 2018+6C0A 21 04 00           ld    hl,4
 2019+6C0D 7D                 ld    a,l
 2020+6C0E 32 F8 AF           ld    (attr_sprite),a
 2021+6C11 3A 5A B0           ld    a,(_X)
 2022+6C14 6F                 ld    l,a
 2023+6C15 26 00              ld    h,0
 2024+6C17 54                 ld    d,h
 2025+6C18 5D                 ld    e,l
 2026+6C19 29                 add   hl,hl
 2027+6C1A 19                 add   hl,de
 2028+6C1B 2B                 dec   hl
 2029+6C1C E5                 push  hl
 2030+6C1D 3A 5B B0           ld    a,(_Y)
 2031+6C20 6F                 ld    l,a
 2032+6C21 26 00              ld    h,0
 2033+6C23 54                 ld    d,h
 2034+6C24 5D                 ld    e,l
 2035+6C25 29                 add   hl,hl
 2036+6C26 19                 add   hl,de
 2037+6C27 2B                 dec   hl
 2038+6C28 55                 ld    d,l
 2039+6C29 E1                 pop   hl
 2040+6C2A 5D                 ld    e,l
 2041+6C2B E1                 pop   hl
 2042+6C2C CD DA A4           call  put_spr_put
 2043+6C2F C3 D7 6C           jp    L146
 2044+6C32              L155
 2045+6C32 3A 56 B5           ld    a,(_L145)
 2046+6C35 FE 05              cp    5
 2047+6C37 CA 3D 6C           jp    z,L156
 2048+6C3A C3 69 6C           jp    L157
 2049+6C3D              L156
 2050+6C3D 21 7E C7           ld    hl,SPRBLOCK5
 2051+6C40 E5                 push  hl
 2052+6C41 21 05 00           ld    hl,5
 2053+6C44 7D                 ld    a,l
 2054+6C45 32 F8 AF           ld    (attr_sprite),a
 2055+6C48 3A 5A B0           ld    a,(_X)
 2056+6C4B 6F                 ld    l,a
 2057+6C4C 26 00              ld    h,0
 2058+6C4E 54                 ld    d,h
 2059+6C4F 5D                 ld    e,l
 2060+6C50 29                 add   hl,hl
 2061+6C51 19                 add   hl,de
 2062+6C52 2B                 dec   hl
 2063+6C53 E5                 push  hl
 2064+6C54 3A 5B B0           ld    a,(_Y)
 2065+6C57 6F                 ld    l,a
 2066+6C58 26 00              ld    h,0
 2067+6C5A 54                 ld    d,h
 2068+6C5B 5D                 ld    e,l
 2069+6C5C 29                 add   hl,hl
 2070+6C5D 19                 add   hl,de
 2071+6C5E 2B                 dec   hl
 2072+6C5F 55                 ld    d,l
 2073+6C60 E1                 pop   hl
 2074+6C61 5D                 ld    e,l
 2075+6C62 E1                 pop   hl
 2076+6C63 CD DA A4           call  put_spr_put
 2077+6C66 C3 D7 6C           jp    L146
 2078+6C69              L157
 2079+6C69 3A 56 B5           ld    a,(_L145)
 2080+6C6C FE 06              cp    6
 2081+6C6E CA 74 6C           jp    z,L158
 2082+6C71 C3 A0 6C           jp    L159
 2083+6C74              L158
 2084+6C74 21 D9 C7           ld    hl,SPRBLOCK6
 2085+6C77 E5                 push  hl
 2086+6C78 21 06 00           ld    hl,6
 2087+6C7B 7D                 ld    a,l
 2088+6C7C 32 F8 AF           ld    (attr_sprite),a
 2089+6C7F 3A 5A B0           ld    a,(_X)
 2090+6C82 6F                 ld    l,a
 2091+6C83 26 00              ld    h,0
 2092+6C85 54                 ld    d,h
 2093+6C86 5D                 ld    e,l
 2094+6C87 29                 add   hl,hl
 2095+6C88 19                 add   hl,de
 2096+6C89 2B                 dec   hl
 2097+6C8A E5                 push  hl
 2098+6C8B 3A 5B B0           ld    a,(_Y)
 2099+6C8E 6F                 ld    l,a
 2100+6C8F 26 00              ld    h,0
 2101+6C91 54                 ld    d,h
 2102+6C92 5D                 ld    e,l
 2103+6C93 29                 add   hl,hl
 2104+6C94 19                 add   hl,de
 2105+6C95 2B                 dec   hl
 2106+6C96 55                 ld    d,l
 2107+6C97 E1                 pop   hl
 2108+6C98 5D                 ld    e,l
 2109+6C99 E1                 pop   hl
 2110+6C9A CD DA A4           call  put_spr_put
 2111+6C9D C3 D7 6C           jp    L146
 2112+6CA0              L159
 2113+6CA0 3A 56 B5           ld    a,(_L145)
 2114+6CA3 FE 07              cp    7
 2115+6CA5 CA AB 6C           jp    z,L160
 2116+6CA8 C3 D7 6C           jp    L161
 2117+6CAB              L160
 2118+6CAB 21 34 C8           ld    hl,SPRBLOCK7
 2119+6CAE E5                 push  hl
 2120+6CAF 21 47 00           ld    hl,71
 2121+6CB2 7D                 ld    a,l
 2122+6CB3 32 F8 AF           ld    (attr_sprite),a
 2123+6CB6 3A 5A B0           ld    a,(_X)
 2124+6CB9 6F                 ld    l,a
 2125+6CBA 26 00              ld    h,0
 2126+6CBC 54                 ld    d,h
 2127+6CBD 5D                 ld    e,l
 2128+6CBE 29                 add   hl,hl
 2129+6CBF 19                 add   hl,de
 2130+6CC0 2B                 dec   hl
 2131+6CC1 E5                 push  hl
 2132+6CC2 3A 5B B0           ld    a,(_Y)
 2133+6CC5 6F                 ld    l,a
 2134+6CC6 26 00              ld    h,0
 2135+6CC8 54                 ld    d,h
 2136+6CC9 5D                 ld    e,l
 2137+6CCA 29                 add   hl,hl
 2138+6CCB 19                 add   hl,de
 2139+6CCC 2B                 dec   hl
 2140+6CCD 55                 ld    d,l
 2141+6CCE E1                 pop   hl
 2142+6CCF 5D                 ld    e,l
 2143+6CD0 E1                 pop   hl
 2144+6CD1 CD DA A4           call  put_spr_put
 2145+6CD4 C3 D7 6C           jp    L146
 2146+6CD7              L161
 2147+6CD7              L146
 2148+6CD7 3A 5A B0           ld    a,(_X)
 2149+6CDA 6F                 ld    l,a
 2150+6CDB 26 00              ld    h,0
 2151+6CDD 2B                 dec   hl
 2152+6CDE 29                 add   hl,hl
 2153+6CDF 54                 ld    d,h
 2154+6CE0 5D                 ld    e,l
 2155+6CE1 29                 add   hl,hl
 2156+6CE2 19                 add   hl,de
 2157+6CE3 11 BD B4           ld    de,_MAPBLOCK
 2158+6CE6 19                 add   hl,de
 2159+6CE7 E5                 push  hl
 2160+6CE8 3A 5B B0           ld    a,(_Y)
 2161+6CEB 6F                 ld    l,a
 2162+6CEC 26 00              ld    h,0
 2163+6CEE 2B                 dec   hl
 2164+6CEF D1                 pop   de
 2165+6CF0 19                 add   hl,de
 2166+6CF1 3A 57 B0           ld    a,(_COLOR2)
 2167+6CF4 77                 ld    (hl),a
 2168+6CF5 CD D5 63           call  _NEXTBLOCKVIEW2
 2169+6CF8 3A 59 B0           ld    a,(_COLOR4)
 2170+6CFB 32 57 B0           ld    (_COLOR2),a
 2171+6CFE 3A 61 B0           ld    a,(_COLORBLOCK)
 2172+6D01 6F                 ld    l,a
 2173+6D02 26 00              ld    h,0
 2174+6D04 CD B6 A4           call  random
 2175+6D07 23                 inc   hl
 2176+6D08 7D                 ld    a,l
 2177+6D09 32 59 B0           ld    (_COLOR4),a
 2178+6D0C 3A 5C B0           ld    a,(_I)
 2179+6D0F 6F                 ld    l,a
 2180+6D10 26 00              ld    h,0
 2181+6D12 23                 inc   hl
 2182+6D13 7D                 ld    a,l
 2183+6D14 32 5C B0           ld    (_I),a
 2184+6D17              L142
 2185+6D17              L144
 2186+6D17 3A 5B B0           ld    a,(_Y)
 2187+6D1A 21 54 B5           ld    hl,Lim_Y
 2188+6D1D BE                 cp    (hl)
 2189+6D1E CA 28 6D           jp    z,L141
 2190+6D21 21 5B B0           ld    hl,_Y
 2191+6D24 35                 dec   (hl)
 2192+6D25 C3 28 6B           jp    L140
 2193+6D28              L141
 2194+6D28 3A 5A B0           ld    a,(_X)
 2195+6D2B 21 53 B5           ld    hl,Lim_X
 2196+6D2E BE                 cp    (hl)
 2197+6D2F CA 39 6D           jp    z,L139
 2198+6D32 21 5A B0           ld    hl,_X
 2199+6D35 35                 dec   (hl)
 2200+6D36 C3 1E 6B           jp    L138
 2201+6D39              L139
 2202+6D39 C9                 ret
 2203+6D3A              _PRINTLEVEL
 2204+6D3A 3E 04              ld    a,4
 2205+6D3C 32 FC AF           ld    (col_window),a
 2206+6D3F 3E 09              ld    a,9
 2207+6D41 32 FD AF           ld    (row_window),a
 2208+6D44 3E 0E              ld    a,14
 2209+6D46 32 FE AF           ld    (width_window),a
 2210+6D49 3E 04              ld    a,4
 2211+6D4B 32 FF AF           ld    (height_window),a
 2212+6D4E CD 1C A8           call  getimage
 2213+6D51 3A 65 B0           ld    a,(_LEVEL)
 2214+6D54 32 57 B5           ld    (_L162),a
 2215+6D57 FE 01              cp    1
 2216+6D59 CA 5F 6D           jp    z,L165
 2217+6D5C C3 7B 6D           jp    L166
 2218+6D5F              L165
 2219+6D5F 21 56 CA           ld    hl,SPRLEVEL1
 2220+6D62 E5                 push  hl
 2221+6D63 21 78 00           ld    hl,120
 2222+6D66 7D                 ld    a,l
 2223+6D67 32 F8 AF           ld    (attr_sprite),a
 2224+6D6A 21 05 00           ld    hl,5
 2225+6D6D E5                 push  hl
 2226+6D6E 21 0A 00           ld    hl,10
 2227+6D71 55                 ld    d,l
 2228+6D72 E1                 pop   hl
 2229+6D73 5D                 ld    e,l
 2230+6D74 E1                 pop   hl
 2231+6D75 CD DA A4           call  put_spr_put
 2232+6D78 C3 66 6E           jp    L163
 2233+6D7B              L166
 2234+6D7B 3A 57 B5           ld    a,(_L162)
 2235+6D7E FE 02              cp    2
 2236+6D80 CA 86 6D           jp    z,L167
 2237+6D83 C3 AA 6D           jp    L168
 2238+6D86              L167
 2239+6D86 21 47 CB           ld    hl,SPRLEVEL2
 2240+6D89 E5                 push  hl
 2241+6D8A 21 58 00           ld    hl,88
 2242+6D8D 7D                 ld    a,l
 2243+6D8E 32 F8 AF           ld    (attr_sprite),a
 2244+6D91 21 05 00           ld    hl,5
 2245+6D94 E5                 push  hl
 2246+6D95 21 0A 00           ld    hl,10
 2247+6D98 55                 ld    d,l
 2248+6D99 E1                 pop   hl
 2249+6D9A 5D                 ld    e,l
 2250+6D9B E1                 pop   hl
 2251+6D9C CD DA A4           call  put_spr_put
 2252+6D9F 3E 03              ld    a,3
 2253+6DA1 32 58 B0           ld    (_COLOR3),a
 2254+6DA4 32 59 B0           ld    (_COLOR4),a
 2255+6DA7 C3 66 6E           jp    L163
 2256+6DAA              L168
 2257+6DAA 3A 57 B5           ld    a,(_L162)
 2258+6DAD FE 03              cp    3
 2259+6DAF CA B5 6D           jp    z,L169
 2260+6DB2 C3 D9 6D           jp    L170
 2261+6DB5              L169
 2262+6DB5 21 38 CC           ld    hl,SPRLEVEL3
 2263+6DB8 E5                 push  hl
 2264+6DB9 21 60 00           ld    hl,96
 2265+6DBC 7D                 ld    a,l
 2266+6DBD 32 F8 AF           ld    (attr_sprite),a
 2267+6DC0 21 05 00           ld    hl,5
 2268+6DC3 E5                 push  hl
 2269+6DC4 21 0A 00           ld    hl,10
 2270+6DC7 55                 ld    d,l
 2271+6DC8 E1                 pop   hl
 2272+6DC9 5D                 ld    e,l
 2273+6DCA E1                 pop   hl
 2274+6DCB CD DA A4           call  put_spr_put
 2275+6DCE 3E 04              ld    a,4
 2276+6DD0 32 58 B0           ld    (_COLOR3),a
 2277+6DD3 32 59 B0           ld    (_COLOR4),a
 2278+6DD6 C3 66 6E           jp    L163
 2279+6DD9              L170
 2280+6DD9 3A 57 B5           ld    a,(_L162)
 2281+6DDC FE 04              cp    4
 2282+6DDE CA E4 6D           jp    z,L171
 2283+6DE1 C3 08 6E           jp    L172
 2284+6DE4              L171
 2285+6DE4 21 29 CD           ld    hl,SPRLEVEL4
 2286+6DE7 E5                 push  hl
 2287+6DE8 21 68 00           ld    hl,104
 2288+6DEB 7D                 ld    a,l
 2289+6DEC 32 F8 AF           ld    (attr_sprite),a
 2290+6DEF 21 05 00           ld    hl,5
 2291+6DF2 E5                 push  hl
 2292+6DF3 21 0A 00           ld    hl,10
 2293+6DF6 55                 ld    d,l
 2294+6DF7 E1                 pop   hl
 2295+6DF8 5D                 ld    e,l
 2296+6DF9 E1                 pop   hl
 2297+6DFA CD DA A4           call  put_spr_put
 2298+6DFD 3E 05              ld    a,5
 2299+6DFF 32 58 B0           ld    (_COLOR3),a
 2300+6E02 32 59 B0           ld    (_COLOR4),a
 2301+6E05 C3 66 6E           jp    L163
 2302+6E08              L172
 2303+6E08 3A 57 B5           ld    a,(_L162)
 2304+6E0B FE 05              cp    5
 2305+6E0D CA 13 6E           jp    z,L173
 2306+6E10 C3 37 6E           jp    L174
 2307+6E13              L173
 2308+6E13 21 1A CE           ld    hl,SPRLEVEL5
 2309+6E16 E5                 push  hl
 2310+6E17 21 70 00           ld    hl,112
 2311+6E1A 7D                 ld    a,l
 2312+6E1B 32 F8 AF           ld    (attr_sprite),a
 2313+6E1E 21 05 00           ld    hl,5
 2314+6E21 E5                 push  hl
 2315+6E22 21 0A 00           ld    hl,10
 2316+6E25 55                 ld    d,l
 2317+6E26 E1                 pop   hl
 2318+6E27 5D                 ld    e,l
 2319+6E28 E1                 pop   hl
 2320+6E29 CD DA A4           call  put_spr_put
 2321+6E2C 3E 06              ld    a,6
 2322+6E2E 32 58 B0           ld    (_COLOR3),a
 2323+6E31 32 59 B0           ld    (_COLOR4),a
 2324+6E34 C3 66 6E           jp    L163
 2325+6E37              L174
 2326+6E37 3A 57 B5           ld    a,(_L162)
 2327+6E3A FE 06              cp    6
 2328+6E3C CA 42 6E           jp    z,L175
 2329+6E3F C3 66 6E           jp    L176
 2330+6E42              L175
 2331+6E42 21 0B CF           ld    hl,SPRLEVEL6
 2332+6E45 E5                 push  hl
 2333+6E46 21 78 00           ld    hl,120
 2334+6E49 7D                 ld    a,l
 2335+6E4A 32 F8 AF           ld    (attr_sprite),a
 2336+6E4D 21 04 00           ld    hl,4
 2337+6E50 E5                 push  hl
 2338+6E51 21 09 00           ld    hl,9
 2339+6E54 55                 ld    d,l
 2340+6E55 E1                 pop   hl
 2341+6E56 5D                 ld    e,l
 2342+6E57 E1                 pop   hl
 2343+6E58 CD DA A4           call  put_spr_put
 2344+6E5B 3E 07              ld    a,7
 2345+6E5D 32 58 B0           ld    (_COLOR3),a
 2346+6E60 32 59 B0           ld    (_COLOR4),a
 2347+6E63 C3 66 6E           jp    L163
 2348+6E66              L176
 2349+6E66              L163
 2350+6E66 21 64 00           ld    hl,100
 2351+6E69 CD 5C AA           call  pause
 2352+6E6C CD C6 A8           call  putimage
 2353+6E6F C9                 ret
 2354+6E70              _STARTSCR
 2355+6E70 CD 4A B6           call  MUSOFF
 2356+6E73 3E 01              ld    a,1
 2357+6E75 32 FC AF           ld    (col_window),a
 2358+6E78 32 FD AF           ld    (row_window),a
 2359+6E7B 3E 1E              ld    a,30
 2360+6E7D 32 FE AF           ld    (width_window),a
 2361+6E80 3E 14              ld    a,20
 2362+6E82 32 FF AF           ld    (height_window),a
 2363+6E85 CD CD A7           call  window
 2364+6E88 21 2D B3           ld    hl,_MAP
 2365+6E8B 22 2A B0           ld    (map_addr_array),hl
 2366+6E8E 3E 14              ld    a,20
 2367+6E90 32 2C B0           ld    (map_xmax_array),a
 2368+6E93 32 2D B0           ld    (map_ymax_array),a
 2369+6E96 21 2E D6           ld    hl,SPRMAP
 2370+6E99 22 2E B0           ld    (map_addr_sprites),hl
 2371+6E9C 3E 01              ld    a,1
 2372+6E9E 32 30 B0           ld    (map_xscr),a
 2373+6EA1 32 31 B0           ld    (map_yscr),a
 2374+6EA4 3E 14              ld    a,20
 2375+6EA6 32 32 B0           ld    (map_width_scr),a
 2376+6EA9 32 33 B0           ld    (map_height_scr),a
 2377+6EAC 3E 01              ld    a,1
 2378+6EAE 32 34 B0           ld    (map_x),a
 2379+6EB1 32 35 B0           ld    (map_y),a
 2380+6EB4 CD 8F A3           call  map_put_1x1
 2381+6EB7 21 FE D4           ld    hl,SPRRECORD
 2382+6EBA E5                 push  hl
 2383+6EBB 21 47 00           ld    hl,71
 2384+6EBE 7D                 ld    a,l
 2385+6EBF 32 F8 AF           ld    (attr_sprite),a
 2386+6EC2 21 17 00           ld    hl,23
 2387+6EC5 E5                 push  hl
 2388+6EC6 21 02 00           ld    hl,2
 2389+6EC9 55                 ld    d,l
 2390+6ECA E1                 pop   hl
 2391+6ECB 5D                 ld    e,l
 2392+6ECC E1                 pop   hl
 2393+6ECD CD DA A4           call  put_spr_put
 2394+6ED0 21 06 00           ld    hl,6
 2395+6ED3 7D                 ld    a,l
 2396+6ED4 E6 07              and   %00000111
 2397+6ED6 6F                 ld    l,a
 2398+6ED7 3A F7 AF           ld    a,(attr_screen)
 2399+6EDA E6 F8              and   %11111000
 2400+6EDC B5                 or    l
 2401+6EDD 32 F7 AF           ld    (attr_screen),a
 2402+6EE0 21 32 00           ld    hl,50
 2403+6EE3 AF                 xor   a
 2404+6EE4 CB 3D              srl   l
 2405+6EE6 17                 rla
 2406+6EE7 32 F6 AF           ld    (half_tile_screen),a
 2407+6EEA 7D                 ld    a,l
 2408+6EEB 32 F4 AF           ld    (col_screen),a
 2409+6EEE 21 04 00           ld    hl,4
 2410+6EF1 7D                 ld    a,l
 2411+6EF2 32 F5 AF           ld    (row_screen),a
 2412+6EF5 2A 6B B0           ld    hl,(_BESTSCORE)
 2413+6EF8 11 00 00           ld    de,0
 2414+6EFB EB                 ex    de,hl
 2415+6EFC A7                 and   a
 2416+6EFD ED 52              sbc   hl,de
 2417+6EFF C2 0F 6F           jp    nz,L177
 2418+6F02              L178
 2419+6F02 21 FD B5           ld    hl,_STR5
 2420+6F05 ED 4B F4 AF        ld    bc,(col_screen)
 2421+6F09 CD 8D A5           call  print64
 2422+6F0C C3 25 6F           jp    L179
 2423+6F0F              L177
 2424+6F0F 2A 6B B0           ld    hl,(_BESTSCORE)
 2425+6F12 29                 add   hl,hl
 2426+6F13 54                 ld    d,h
 2427+6F14 5D                 ld    e,l
 2428+6F15 29                 add   hl,hl
 2429+6F16 29                 add   hl,hl
 2430+6F17 19                 add   hl,de
 2431+6F18 CD 3A A5           call  convert_16bit_to_string
 2432+6F1B 21 E0 AF           ld    hl,string_number
 2433+6F1E ED 4B F4 AF        ld    bc,(col_screen)
 2434+6F22 CD 8D A5           call  print64
 2435+6F25              L179
 2436+6F25 21 3B D5           ld    hl,SPRSCORE
 2437+6F28 E5                 push  hl
 2438+6F29 21 47 00           ld    hl,71
 2439+6F2C 7D                 ld    a,l
 2440+6F2D 32 F8 AF           ld    (attr_sprite),a
 2441+6F30 21 18 00           ld    hl,24
 2442+6F33 E5                 push  hl
 2443+6F34 21 08 00           ld    hl,8
 2444+6F37 55                 ld    d,l
 2445+6F38 E1                 pop   hl
 2446+6F39 5D                 ld    e,l
 2447+6F3A E1                 pop   hl
 2448+6F3B CD DA A4           call  put_spr_put
 2449+6F3E 21 00 00           ld    hl,0
 2450+6F41 22 69 B0           ld    (_SCORE),hl
 2451+6F44 21 06 00           ld    hl,6
 2452+6F47 7D                 ld    a,l
 2453+6F48 E6 07              and   %00000111
 2454+6F4A 6F                 ld    l,a
 2455+6F4B 3A F7 AF           ld    a,(attr_screen)
 2456+6F4E E6 F8              and   %11111000
 2457+6F50 B5                 or    l
 2458+6F51 32 F7 AF           ld    (attr_screen),a
 2459+6F54 21 32 00           ld    hl,50
 2460+6F57 AF                 xor   a
 2461+6F58 CB 3D              srl   l
 2462+6F5A 17                 rla
 2463+6F5B 32 F6 AF           ld    (half_tile_screen),a
 2464+6F5E 7D                 ld    a,l
 2465+6F5F 32 F4 AF           ld    (col_screen),a
 2466+6F62 21 0A 00           ld    hl,10
 2467+6F65 7D                 ld    a,l
 2468+6F66 32 F5 AF           ld    (row_screen),a
 2469+6F69 21 FD B5           ld    hl,_STR5
 2470+6F6C ED 4B F4 AF        ld    bc,(col_screen)
 2471+6F70 CD 8D A5           call  print64
 2472+6F73 21 64 D5           ld    hl,SPRQUEUE
 2473+6F76 E5                 push  hl
 2474+6F77 21 47 00           ld    hl,71
 2475+6F7A 7D                 ld    a,l
 2476+6F7B 32 F8 AF           ld    (attr_sprite),a
 2477+6F7E 21 16 00           ld    hl,22
 2478+6F81 E5                 push  hl
 2479+6F82 21 0E 00           ld    hl,14
 2480+6F85 55                 ld    d,l
 2481+6F86 E1                 pop   hl
 2482+6F87 5D                 ld    e,l
 2483+6F88 E1                 pop   hl
 2484+6F89 CD DA A4           call  put_spr_put
 2485+6F8C 21 BD B4           ld    hl,_MAPBLOCK
 2486+6F8F 11 BE B4           ld    de,_MAPBLOCK+1
 2487+6F92 01 23 00           ld    bc,35
 2488+6F95 36 00              ld    (hl),0
 2489+6F97 ED B0              ldir
 2490+6F99 3E 01              ld    a,1
 2491+6F9B 32 61 B0           ld    (_COLORBLOCK),a
 2492+6F9E 32 65 B0           ld    (_LEVEL),a
 2493+6FA1 32 64 B0           ld    (_LEVELOLD),a
 2494+6FA4 2A 78 5C           ld    hl,(23672)
 2495+6FA7 22 E8 AF           ld    (rnd),hl
 2496+6FAA 3A 61 B0           ld    a,(_COLORBLOCK)
 2497+6FAD 6F                 ld    l,a
 2498+6FAE 26 00              ld    h,0
 2499+6FB0 CD B6 A4           call  random
 2500+6FB3 23                 inc   hl
 2501+6FB4 7D                 ld    a,l
 2502+6FB5 32 56 B0           ld    (_COLOR1),a
 2503+6FB8 3A 61 B0           ld    a,(_COLORBLOCK)
 2504+6FBB 6F                 ld    l,a
 2505+6FBC 26 00              ld    h,0
 2506+6FBE CD B6 A4           call  random
 2507+6FC1 23                 inc   hl
 2508+6FC2 7D                 ld    a,l
 2509+6FC3 32 57 B0           ld    (_COLOR2),a
 2510+6FC6 3A 61 B0           ld    a,(_COLORBLOCK)
 2511+6FC9 6F                 ld    l,a
 2512+6FCA 26 00              ld    h,0
 2513+6FCC CD B6 A4           call  random
 2514+6FCF 23                 inc   hl
 2515+6FD0 7D                 ld    a,l
 2516+6FD1 32 58 B0           ld    (_COLOR3),a
 2517+6FD4 3A 61 B0           ld    a,(_COLORBLOCK)
 2518+6FD7 6F                 ld    l,a
 2519+6FD8 26 00              ld    h,0
 2520+6FDA CD B6 A4           call  random
 2521+6FDD 23                 inc   hl
 2522+6FDE 7D                 ld    a,l
 2523+6FDF 32 59 B0           ld    (_COLOR4),a
 2524+6FE2 2A 78 5C           ld    hl,(23672)
 2525+6FE5 22 E8 AF           ld    (rnd),hl
 2526+6FE8 CD EA 64           call  _BLOCKGEN
 2527+6FEB CD 3A 6D           call  _PRINTLEVEL
 2528+6FEE C9                 ret
 2529+6FEF              _DELET
 2530+6FEF 21 E1 B4           ld    hl,_MAPDELX
 2531+6FF2 11 E2 B4           ld    de,_MAPDELX+1
 2532+6FF5 01 23 00           ld    bc,35
 2533+6FF8 36 00              ld    (hl),0
 2534+6FFA ED B0              ldir
 2535+6FFC 21 05 B5           ld    hl,_MAPDELY
 2536+6FFF 11 06 B5           ld    de,_MAPDELY+1
 2537+7002 01 23 00           ld    bc,35
 2538+7005 36 00              ld    (hl),0
 2539+7007 ED B0              ldir
 2540+7009 21 29 B5           ld    hl,_MAPDEL
 2541+700C 11 2A B5           ld    de,_MAPDEL+1
 2542+700F 01 23 00           ld    bc,35
 2543+7012 36 00              ld    (hl),0
 2544+7014 ED B0              ldir
 2545+7016 3E 01              ld    a,1
 2546+7018 32 5B B0           ld    (_Y),a
 2547+701B 3E 06              ld    a,6
 2548+701D 32 54 B5           ld    (Lim_Y),a
 2549+7020              L180
 2550+7020 21 BD B4           ld    hl,_MAPBLOCK+0
 2551+7023 E5                 push  hl
 2552+7024 3A 5B B0           ld    a,(_Y)
 2553+7027 6F                 ld    l,a
 2554+7028 26 00              ld    h,0
 2555+702A 2B                 dec   hl
 2556+702B D1                 pop   de
 2557+702C 19                 add   hl,de
 2558+702D 6E                 ld    l,(hl)
 2559+702E 26 00              ld    h,0
 2560+7030 7D                 ld    a,l
 2561+7031 32 60 B0           ld    (_Z),a
 2562+7034 11 00 00           ld    de,0
 2563+7037 EB                 ex    de,hl
 2564+7038 A7                 and   a
 2565+7039 ED 52              sbc   hl,de
 2566+703B D2 40 71           jp    nc,L182
 2567+703E 21 E1 B4           ld    hl,_MAPDELX+0
 2568+7041 E5                 push  hl
 2569+7042 3A 5B B0           ld    a,(_Y)
 2570+7045 6F                 ld    l,a
 2571+7046 26 00              ld    h,0
 2572+7048 2B                 dec   hl
 2573+7049 D1                 pop   de
 2574+704A 19                 add   hl,de
 2575+704B AF                 xor   a
 2576+704C BE                 cp    (hl)
 2577+704D C2 40 71           jp    nz,L182
 2578+7050              L183
 2579+7050 3A 60 B0           ld    a,(_Z)
 2580+7053 6F                 ld    l,a
 2581+7054 26 00              ld    h,0
 2582+7056 E5                 push  hl
 2583+7057 21 C3 B4           ld    hl,_MAPBLOCK+6
 2584+705A E5                 push  hl
 2585+705B 3A 5B B0           ld    a,(_Y)
 2586+705E 6F                 ld    l,a
 2587+705F 26 00              ld    h,0
 2588+7061 2B                 dec   hl
 2589+7062 D1                 pop   de
 2590+7063 19                 add   hl,de
 2591+7064 6E                 ld    l,(hl)
 2592+7065 26 00              ld    h,0
 2593+7067 D1                 pop   de
 2594+7068 A7                 and   a
 2595+7069 ED 52              sbc   hl,de
 2596+706B C2 40 71           jp    nz,L185
 2597+706E 3A 60 B0           ld    a,(_Z)
 2598+7071 6F                 ld    l,a
 2599+7072 26 00              ld    h,0
 2600+7074 E5                 push  hl
 2601+7075 21 C9 B4           ld    hl,_MAPBLOCK+12
 2602+7078 E5                 push  hl
 2603+7079 3A 5B B0           ld    a,(_Y)
 2604+707C 6F                 ld    l,a
 2605+707D 26 00              ld    h,0
 2606+707F 2B                 dec   hl
 2607+7080 D1                 pop   de
 2608+7081 19                 add   hl,de
 2609+7082 6E                 ld    l,(hl)
 2610+7083 26 00              ld    h,0
 2611+7085 D1                 pop   de
 2612+7086 A7                 and   a
 2613+7087 ED 52              sbc   hl,de
 2614+7089 C2 40 71           jp    nz,L185
 2615+708C 3A 60 B0           ld    a,(_Z)
 2616+708F 6F                 ld    l,a
 2617+7090 26 00              ld    h,0
 2618+7092 E5                 push  hl
 2619+7093 21 CF B4           ld    hl,_MAPBLOCK+18
 2620+7096 E5                 push  hl
 2621+7097 3A 5B B0           ld    a,(_Y)
 2622+709A 6F                 ld    l,a
 2623+709B 26 00              ld    h,0
 2624+709D 2B                 dec   hl
 2625+709E D1                 pop   de
 2626+709F 19                 add   hl,de
 2627+70A0 6E                 ld    l,(hl)
 2628+70A1 26 00              ld    h,0
 2629+70A3 D1                 pop   de
 2630+70A4 A7                 and   a
 2631+70A5 ED 52              sbc   hl,de
 2632+70A7 C2 40 71           jp    nz,L185
 2633+70AA 3A 60 B0           ld    a,(_Z)
 2634+70AD 6F                 ld    l,a
 2635+70AE 26 00              ld    h,0
 2636+70B0 E5                 push  hl
 2637+70B1 21 D5 B4           ld    hl,_MAPBLOCK+24
 2638+70B4 E5                 push  hl
 2639+70B5 3A 5B B0           ld    a,(_Y)
 2640+70B8 6F                 ld    l,a
 2641+70B9 26 00              ld    h,0
 2642+70BB 2B                 dec   hl
 2643+70BC D1                 pop   de
 2644+70BD 19                 add   hl,de
 2645+70BE 6E                 ld    l,(hl)
 2646+70BF 26 00              ld    h,0
 2647+70C1 D1                 pop   de
 2648+70C2 A7                 and   a
 2649+70C3 ED 52              sbc   hl,de
 2650+70C5 C2 40 71           jp    nz,L185
 2651+70C8 3A 60 B0           ld    a,(_Z)
 2652+70CB 6F                 ld    l,a
 2653+70CC 26 00              ld    h,0
 2654+70CE E5                 push  hl
 2655+70CF 21 DB B4           ld    hl,_MAPBLOCK+30
 2656+70D2 E5                 push  hl
 2657+70D3 3A 5B B0           ld    a,(_Y)
 2658+70D6 6F                 ld    l,a
 2659+70D7 26 00              ld    h,0
 2660+70D9 2B                 dec   hl
 2661+70DA D1                 pop   de
 2662+70DB 19                 add   hl,de
 2663+70DC 6E                 ld    l,(hl)
 2664+70DD 26 00              ld    h,0
 2665+70DF D1                 pop   de
 2666+70E0 A7                 and   a
 2667+70E1 ED 52              sbc   hl,de
 2668+70E3 C2 40 71           jp    nz,L185
 2669+70E6              L186
 2670+70E6 21 E1 B4           ld    hl,_MAPDELX+0
 2671+70E9 E5                 push  hl
 2672+70EA 3A 5B B0           ld    a,(_Y)
 2673+70ED 6F                 ld    l,a
 2674+70EE 26 00              ld    h,0
 2675+70F0 2B                 dec   hl
 2676+70F1 D1                 pop   de
 2677+70F2 19                 add   hl,de
 2678+70F3 36 01              ld    (hl),1
 2679+70F5 21 E7 B4           ld    hl,_MAPDELX+6
 2680+70F8 E5                 push  hl
 2681+70F9 3A 5B B0           ld    a,(_Y)
 2682+70FC 6F                 ld    l,a
 2683+70FD 26 00              ld    h,0
 2684+70FF 2B                 dec   hl
 2685+7100 D1                 pop   de
 2686+7101 19                 add   hl,de
 2687+7102 36 01              ld    (hl),1
 2688+7104 21 ED B4           ld    hl,_MAPDELX+12
 2689+7107 E5                 push  hl
 2690+7108 3A 5B B0           ld    a,(_Y)
 2691+710B 6F                 ld    l,a
 2692+710C 26 00              ld    h,0
 2693+710E 2B                 dec   hl
 2694+710F D1                 pop   de
 2695+7110 19                 add   hl,de
 2696+7111 36 01              ld    (hl),1
 2697+7113 21 F3 B4           ld    hl,_MAPDELX+18
 2698+7116 E5                 push  hl
 2699+7117 3A 5B B0           ld    a,(_Y)
 2700+711A 6F                 ld    l,a
 2701+711B 26 00              ld    h,0
 2702+711D 2B                 dec   hl
 2703+711E D1                 pop   de
 2704+711F 19                 add   hl,de
 2705+7120 36 01              ld    (hl),1
 2706+7122 21 F9 B4           ld    hl,_MAPDELX+24
 2707+7125 E5                 push  hl
 2708+7126 3A 5B B0           ld    a,(_Y)
 2709+7129 6F                 ld    l,a
 2710+712A 26 00              ld    h,0
 2711+712C 2B                 dec   hl
 2712+712D D1                 pop   de
 2713+712E 19                 add   hl,de
 2714+712F 36 01              ld    (hl),1
 2715+7131 21 FF B4           ld    hl,_MAPDELX+30
 2716+7134 E5                 push  hl
 2717+7135 3A 5B B0           ld    a,(_Y)
 2718+7138 6F                 ld    l,a
 2719+7139 26 00              ld    h,0
 2720+713B 2B                 dec   hl
 2721+713C D1                 pop   de
 2722+713D 19                 add   hl,de
 2723+713E 36 01              ld    (hl),1
 2724+7140              L185
 2725+7140              L187
 2726+7140              L182
 2727+7140              L184
 2728+7140 AF                 xor   a
 2729+7141 21 60 B0           ld    hl,_Z
 2730+7144 BE                 cp    (hl)
 2731+7145 D2 1D 72           jp    nc,L188
 2732+7148 21 E1 B4           ld    hl,_MAPDELX+0
 2733+714B E5                 push  hl
 2734+714C 3A 5B B0           ld    a,(_Y)
 2735+714F 6F                 ld    l,a
 2736+7150 26 00              ld    h,0
 2737+7152 2B                 dec   hl
 2738+7153 D1                 pop   de
 2739+7154 19                 add   hl,de
 2740+7155 AF                 xor   a
 2741+7156 BE                 cp    (hl)
 2742+7157 C2 1D 72           jp    nz,L188
 2743+715A              L189
 2744+715A 3A 60 B0           ld    a,(_Z)
 2745+715D 6F                 ld    l,a
 2746+715E 26 00              ld    h,0
 2747+7160 E5                 push  hl
 2748+7161 21 C3 B4           ld    hl,_MAPBLOCK+6
 2749+7164 E5                 push  hl
 2750+7165 3A 5B B0           ld    a,(_Y)
 2751+7168 6F                 ld    l,a
 2752+7169 26 00              ld    h,0
 2753+716B 2B                 dec   hl
 2754+716C D1                 pop   de
 2755+716D 19                 add   hl,de
 2756+716E 6E                 ld    l,(hl)
 2757+716F 26 00              ld    h,0
 2758+7171 D1                 pop   de
 2759+7172 A7                 and   a
 2760+7173 ED 52              sbc   hl,de
 2761+7175 C2 1D 72           jp    nz,L191
 2762+7178 3A 60 B0           ld    a,(_Z)
 2763+717B 6F                 ld    l,a
 2764+717C 26 00              ld    h,0
 2765+717E E5                 push  hl
 2766+717F 21 C9 B4           ld    hl,_MAPBLOCK+12
 2767+7182 E5                 push  hl
 2768+7183 3A 5B B0           ld    a,(_Y)
 2769+7186 6F                 ld    l,a
 2770+7187 26 00              ld    h,0
 2771+7189 2B                 dec   hl
 2772+718A D1                 pop   de
 2773+718B 19                 add   hl,de
 2774+718C 6E                 ld    l,(hl)
 2775+718D 26 00              ld    h,0
 2776+718F D1                 pop   de
 2777+7190 A7                 and   a
 2778+7191 ED 52              sbc   hl,de
 2779+7193 C2 1D 72           jp    nz,L191
 2780+7196 3A 60 B0           ld    a,(_Z)
 2781+7199 6F                 ld    l,a
 2782+719A 26 00              ld    h,0
 2783+719C E5                 push  hl
 2784+719D 21 CF B4           ld    hl,_MAPBLOCK+18
 2785+71A0 E5                 push  hl
 2786+71A1 3A 5B B0           ld    a,(_Y)
 2787+71A4 6F                 ld    l,a
 2788+71A5 26 00              ld    h,0
 2789+71A7 2B                 dec   hl
 2790+71A8 D1                 pop   de
 2791+71A9 19                 add   hl,de
 2792+71AA 6E                 ld    l,(hl)
 2793+71AB 26 00              ld    h,0
 2794+71AD D1                 pop   de
 2795+71AE A7                 and   a
 2796+71AF ED 52              sbc   hl,de
 2797+71B1 C2 1D 72           jp    nz,L191
 2798+71B4 3A 60 B0           ld    a,(_Z)
 2799+71B7 6F                 ld    l,a
 2800+71B8 26 00              ld    h,0
 2801+71BA E5                 push  hl
 2802+71BB 21 D5 B4           ld    hl,_MAPBLOCK+24
 2803+71BE E5                 push  hl
 2804+71BF 3A 5B B0           ld    a,(_Y)
 2805+71C2 6F                 ld    l,a
 2806+71C3 26 00              ld    h,0
 2807+71C5 2B                 dec   hl
 2808+71C6 D1                 pop   de
 2809+71C7 19                 add   hl,de
 2810+71C8 6E                 ld    l,(hl)
 2811+71C9 26 00              ld    h,0
 2812+71CB D1                 pop   de
 2813+71CC A7                 and   a
 2814+71CD ED 52              sbc   hl,de
 2815+71CF C2 1D 72           jp    nz,L191
 2816+71D2              L192
 2817+71D2 21 E1 B4           ld    hl,_MAPDELX+0
 2818+71D5 E5                 push  hl
 2819+71D6 3A 5B B0           ld    a,(_Y)
 2820+71D9 6F                 ld    l,a
 2821+71DA 26 00              ld    h,0
 2822+71DC 2B                 dec   hl
 2823+71DD D1                 pop   de
 2824+71DE 19                 add   hl,de
 2825+71DF 36 01              ld    (hl),1
 2826+71E1 21 E7 B4           ld    hl,_MAPDELX+6
 2827+71E4 E5                 push  hl
 2828+71E5 3A 5B B0           ld    a,(_Y)
 2829+71E8 6F                 ld    l,a
 2830+71E9 26 00              ld    h,0
 2831+71EB 2B                 dec   hl
 2832+71EC D1                 pop   de
 2833+71ED 19                 add   hl,de
 2834+71EE 36 01              ld    (hl),1
 2835+71F0 21 ED B4           ld    hl,_MAPDELX+12
 2836+71F3 E5                 push  hl
 2837+71F4 3A 5B B0           ld    a,(_Y)
 2838+71F7 6F                 ld    l,a
 2839+71F8 26 00              ld    h,0
 2840+71FA 2B                 dec   hl
 2841+71FB D1                 pop   de
 2842+71FC 19                 add   hl,de
 2843+71FD 36 01              ld    (hl),1
 2844+71FF 21 F3 B4           ld    hl,_MAPDELX+18
 2845+7202 E5                 push  hl
 2846+7203 3A 5B B0           ld    a,(_Y)
 2847+7206 6F                 ld    l,a
 2848+7207 26 00              ld    h,0
 2849+7209 2B                 dec   hl
 2850+720A D1                 pop   de
 2851+720B 19                 add   hl,de
 2852+720C 36 01              ld    (hl),1
 2853+720E 21 F9 B4           ld    hl,_MAPDELX+24
 2854+7211 E5                 push  hl
 2855+7212 3A 5B B0           ld    a,(_Y)
 2856+7215 6F                 ld    l,a
 2857+7216 26 00              ld    h,0
 2858+7218 2B                 dec   hl
 2859+7219 D1                 pop   de
 2860+721A 19                 add   hl,de
 2861+721B 36 01              ld    (hl),1
 2862+721D              L191
 2863+721D              L193
 2864+721D              L188
 2865+721D              L190
 2866+721D AF                 xor   a
 2867+721E 21 60 B0           ld    hl,_Z
 2868+7221 BE                 cp    (hl)
 2869+7222 D2 CD 72           jp    nc,L194
 2870+7225 21 E1 B4           ld    hl,_MAPDELX+0
 2871+7228 E5                 push  hl
 2872+7229 3A 5B B0           ld    a,(_Y)
 2873+722C 6F                 ld    l,a
 2874+722D 26 00              ld    h,0
 2875+722F 2B                 dec   hl
 2876+7230 D1                 pop   de
 2877+7231 19                 add   hl,de
 2878+7232 AF                 xor   a
 2879+7233 BE                 cp    (hl)
 2880+7234 C2 CD 72           jp    nz,L194
 2881+7237              L195
 2882+7237 3A 60 B0           ld    a,(_Z)
 2883+723A 6F                 ld    l,a
 2884+723B 26 00              ld    h,0
 2885+723D E5                 push  hl
 2886+723E 21 C3 B4           ld    hl,_MAPBLOCK+6
 2887+7241 E5                 push  hl
 2888+7242 3A 5B B0           ld    a,(_Y)
 2889+7245 6F                 ld    l,a
 2890+7246 26 00              ld    h,0
 2891+7248 2B                 dec   hl
 2892+7249 D1                 pop   de
 2893+724A 19                 add   hl,de
 2894+724B 6E                 ld    l,(hl)
 2895+724C 26 00              ld    h,0
 2896+724E D1                 pop   de
 2897+724F A7                 and   a
 2898+7250 ED 52              sbc   hl,de
 2899+7252 C2 CD 72           jp    nz,L197
 2900+7255 3A 60 B0           ld    a,(_Z)
 2901+7258 6F                 ld    l,a
 2902+7259 26 00              ld    h,0
 2903+725B E5                 push  hl
 2904+725C 21 C9 B4           ld    hl,_MAPBLOCK+12
 2905+725F E5                 push  hl
 2906+7260 3A 5B B0           ld    a,(_Y)
 2907+7263 6F                 ld    l,a
 2908+7264 26 00              ld    h,0
 2909+7266 2B                 dec   hl
 2910+7267 D1                 pop   de
 2911+7268 19                 add   hl,de
 2912+7269 6E                 ld    l,(hl)
 2913+726A 26 00              ld    h,0
 2914+726C D1                 pop   de
 2915+726D A7                 and   a
 2916+726E ED 52              sbc   hl,de
 2917+7270 C2 CD 72           jp    nz,L197
 2918+7273 3A 60 B0           ld    a,(_Z)
 2919+7276 6F                 ld    l,a
 2920+7277 26 00              ld    h,0
 2921+7279 E5                 push  hl
 2922+727A 21 CF B4           ld    hl,_MAPBLOCK+18
 2923+727D E5                 push  hl
 2924+727E 3A 5B B0           ld    a,(_Y)
 2925+7281 6F                 ld    l,a
 2926+7282 26 00              ld    h,0
 2927+7284 2B                 dec   hl
 2928+7285 D1                 pop   de
 2929+7286 19                 add   hl,de
 2930+7287 6E                 ld    l,(hl)
 2931+7288 26 00              ld    h,0
 2932+728A D1                 pop   de
 2933+728B A7                 and   a
 2934+728C ED 52              sbc   hl,de
 2935+728E C2 CD 72           jp    nz,L197
 2936+7291              L198
 2937+7291 21 E1 B4           ld    hl,_MAPDELX+0
 2938+7294 E5                 push  hl
 2939+7295 3A 5B B0           ld    a,(_Y)
 2940+7298 6F                 ld    l,a
 2941+7299 26 00              ld    h,0
 2942+729B 2B                 dec   hl
 2943+729C D1                 pop   de
 2944+729D 19                 add   hl,de
 2945+729E 36 01              ld    (hl),1
 2946+72A0 21 E7 B4           ld    hl,_MAPDELX+6
 2947+72A3 E5                 push  hl
 2948+72A4 3A 5B B0           ld    a,(_Y)
 2949+72A7 6F                 ld    l,a
 2950+72A8 26 00              ld    h,0
 2951+72AA 2B                 dec   hl
 2952+72AB D1                 pop   de
 2953+72AC 19                 add   hl,de
 2954+72AD 36 01              ld    (hl),1
 2955+72AF 21 ED B4           ld    hl,_MAPDELX+12
 2956+72B2 E5                 push  hl
 2957+72B3 3A 5B B0           ld    a,(_Y)
 2958+72B6 6F                 ld    l,a
 2959+72B7 26 00              ld    h,0
 2960+72B9 2B                 dec   hl
 2961+72BA D1                 pop   de
 2962+72BB 19                 add   hl,de
 2963+72BC 36 01              ld    (hl),1
 2964+72BE 21 F3 B4           ld    hl,_MAPDELX+18
 2965+72C1 E5                 push  hl
 2966+72C2 3A 5B B0           ld    a,(_Y)
 2967+72C5 6F                 ld    l,a
 2968+72C6 26 00              ld    h,0
 2969+72C8 2B                 dec   hl
 2970+72C9 D1                 pop   de
 2971+72CA 19                 add   hl,de
 2972+72CB 36 01              ld    (hl),1
 2973+72CD              L197
 2974+72CD              L199
 2975+72CD              L194
 2976+72CD              L196
 2977+72CD AF                 xor   a
 2978+72CE 21 60 B0           ld    hl,_Z
 2979+72D1 BE                 cp    (hl)
 2980+72D2 D2 50 73           jp    nc,L200
 2981+72D5 21 E1 B4           ld    hl,_MAPDELX+0
 2982+72D8 E5                 push  hl
 2983+72D9 3A 5B B0           ld    a,(_Y)
 2984+72DC 6F                 ld    l,a
 2985+72DD 26 00              ld    h,0
 2986+72DF 2B                 dec   hl
 2987+72E0 D1                 pop   de
 2988+72E1 19                 add   hl,de
 2989+72E2 AF                 xor   a
 2990+72E3 BE                 cp    (hl)
 2991+72E4 C2 50 73           jp    nz,L200
 2992+72E7              L201
 2993+72E7 3A 60 B0           ld    a,(_Z)
 2994+72EA 6F                 ld    l,a
 2995+72EB 26 00              ld    h,0
 2996+72ED E5                 push  hl
 2997+72EE 21 C3 B4           ld    hl,_MAPBLOCK+6
 2998+72F1 E5                 push  hl
 2999+72F2 3A 5B B0           ld    a,(_Y)
 3000+72F5 6F                 ld    l,a
 3001+72F6 26 00              ld    h,0
 3002+72F8 2B                 dec   hl
 3003+72F9 D1                 pop   de
 3004+72FA 19                 add   hl,de
 3005+72FB 6E                 ld    l,(hl)
 3006+72FC 26 00              ld    h,0
 3007+72FE D1                 pop   de
 3008+72FF A7                 and   a
 3009+7300 ED 52              sbc   hl,de
 3010+7302 C2 50 73           jp    nz,L203
 3011+7305 3A 60 B0           ld    a,(_Z)
 3012+7308 6F                 ld    l,a
 3013+7309 26 00              ld    h,0
 3014+730B E5                 push  hl
 3015+730C 21 C9 B4           ld    hl,_MAPBLOCK+12
 3016+730F E5                 push  hl
 3017+7310 3A 5B B0           ld    a,(_Y)
 3018+7313 6F                 ld    l,a
 3019+7314 26 00              ld    h,0
 3020+7316 2B                 dec   hl
 3021+7317 D1                 pop   de
 3022+7318 19                 add   hl,de
 3023+7319 6E                 ld    l,(hl)
 3024+731A 26 00              ld    h,0
 3025+731C D1                 pop   de
 3026+731D A7                 and   a
 3027+731E ED 52              sbc   hl,de
 3028+7320 C2 50 73           jp    nz,L203
 3029+7323              L204
 3030+7323 21 E1 B4           ld    hl,_MAPDELX+0
 3031+7326 E5                 push  hl
 3032+7327 3A 5B B0           ld    a,(_Y)
 3033+732A 6F                 ld    l,a
 3034+732B 26 00              ld    h,0
 3035+732D 2B                 dec   hl
 3036+732E D1                 pop   de
 3037+732F 19                 add   hl,de
 3038+7330 36 01              ld    (hl),1
 3039+7332 21 E7 B4           ld    hl,_MAPDELX+6
 3040+7335 E5                 push  hl
 3041+7336 3A 5B B0           ld    a,(_Y)
 3042+7339 6F                 ld    l,a
 3043+733A 26 00              ld    h,0
 3044+733C 2B                 dec   hl
 3045+733D D1                 pop   de
 3046+733E 19                 add   hl,de
 3047+733F 36 01              ld    (hl),1
 3048+7341 21 ED B4           ld    hl,_MAPDELX+12
 3049+7344 E5                 push  hl
 3050+7345 3A 5B B0           ld    a,(_Y)
 3051+7348 6F                 ld    l,a
 3052+7349 26 00              ld    h,0
 3053+734B 2B                 dec   hl
 3054+734C D1                 pop   de
 3055+734D 19                 add   hl,de
 3056+734E 36 01              ld    (hl),1
 3057+7350              L203
 3058+7350              L205
 3059+7350              L200
 3060+7350              L202
 3061+7350 21 C3 B4           ld    hl,_MAPBLOCK+6
 3062+7353 E5                 push  hl
 3063+7354 3A 5B B0           ld    a,(_Y)
 3064+7357 6F                 ld    l,a
 3065+7358 26 00              ld    h,0
 3066+735A 2B                 dec   hl
 3067+735B D1                 pop   de
 3068+735C 19                 add   hl,de
 3069+735D 6E                 ld    l,(hl)
 3070+735E 26 00              ld    h,0
 3071+7360 7D                 ld    a,l
 3072+7361 32 60 B0           ld    (_Z),a
 3073+7364 11 00 00           ld    de,0
 3074+7367 EB                 ex    de,hl
 3075+7368 A7                 and   a
 3076+7369 ED 52              sbc   hl,de
 3077+736B D2 43 74           jp    nc,L206
 3078+736E 21 E7 B4           ld    hl,_MAPDELX+6
 3079+7371 E5                 push  hl
 3080+7372 3A 5B B0           ld    a,(_Y)
 3081+7375 6F                 ld    l,a
 3082+7376 26 00              ld    h,0
 3083+7378 2B                 dec   hl
 3084+7379 D1                 pop   de
 3085+737A 19                 add   hl,de
 3086+737B AF                 xor   a
 3087+737C BE                 cp    (hl)
 3088+737D C2 43 74           jp    nz,L206
 3089+7380              L207
 3090+7380 3A 60 B0           ld    a,(_Z)
 3091+7383 6F                 ld    l,a
 3092+7384 26 00              ld    h,0
 3093+7386 E5                 push  hl
 3094+7387 21 C9 B4           ld    hl,_MAPBLOCK+12
 3095+738A E5                 push  hl
 3096+738B 3A 5B B0           ld    a,(_Y)
 3097+738E 6F                 ld    l,a
 3098+738F 26 00              ld    h,0
 3099+7391 2B                 dec   hl
 3100+7392 D1                 pop   de
 3101+7393 19                 add   hl,de
 3102+7394 6E                 ld    l,(hl)
 3103+7395 26 00              ld    h,0
 3104+7397 D1                 pop   de
 3105+7398 A7                 and   a
 3106+7399 ED 52              sbc   hl,de
 3107+739B C2 43 74           jp    nz,L209
 3108+739E 3A 60 B0           ld    a,(_Z)
 3109+73A1 6F                 ld    l,a
 3110+73A2 26 00              ld    h,0
 3111+73A4 E5                 push  hl
 3112+73A5 21 CF B4           ld    hl,_MAPBLOCK+18
 3113+73A8 E5                 push  hl
 3114+73A9 3A 5B B0           ld    a,(_Y)
 3115+73AC 6F                 ld    l,a
 3116+73AD 26 00              ld    h,0
 3117+73AF 2B                 dec   hl
 3118+73B0 D1                 pop   de
 3119+73B1 19                 add   hl,de
 3120+73B2 6E                 ld    l,(hl)
 3121+73B3 26 00              ld    h,0
 3122+73B5 D1                 pop   de
 3123+73B6 A7                 and   a
 3124+73B7 ED 52              sbc   hl,de
 3125+73B9 C2 43 74           jp    nz,L209
 3126+73BC 3A 60 B0           ld    a,(_Z)
 3127+73BF 6F                 ld    l,a
 3128+73C0 26 00              ld    h,0
 3129+73C2 E5                 push  hl
 3130+73C3 21 D5 B4           ld    hl,_MAPBLOCK+24
 3131+73C6 E5                 push  hl
 3132+73C7 3A 5B B0           ld    a,(_Y)
 3133+73CA 6F                 ld    l,a
 3134+73CB 26 00              ld    h,0
 3135+73CD 2B                 dec   hl
 3136+73CE D1                 pop   de
 3137+73CF 19                 add   hl,de
 3138+73D0 6E                 ld    l,(hl)
 3139+73D1 26 00              ld    h,0
 3140+73D3 D1                 pop   de
 3141+73D4 A7                 and   a
 3142+73D5 ED 52              sbc   hl,de
 3143+73D7 C2 43 74           jp    nz,L209
 3144+73DA 3A 60 B0           ld    a,(_Z)
 3145+73DD 6F                 ld    l,a
 3146+73DE 26 00              ld    h,0
 3147+73E0 E5                 push  hl
 3148+73E1 21 DB B4           ld    hl,_MAPBLOCK+30
 3149+73E4 E5                 push  hl
 3150+73E5 3A 5B B0           ld    a,(_Y)
 3151+73E8 6F                 ld    l,a
 3152+73E9 26 00              ld    h,0
 3153+73EB 2B                 dec   hl
 3154+73EC D1                 pop   de
 3155+73ED 19                 add   hl,de
 3156+73EE 6E                 ld    l,(hl)
 3157+73EF 26 00              ld    h,0
 3158+73F1 D1                 pop   de
 3159+73F2 A7                 and   a
 3160+73F3 ED 52              sbc   hl,de
 3161+73F5 C2 43 74           jp    nz,L209
 3162+73F8              L210
 3163+73F8 21 E7 B4           ld    hl,_MAPDELX+6
 3164+73FB E5                 push  hl
 3165+73FC 3A 5B B0           ld    a,(_Y)
 3166+73FF 6F                 ld    l,a
 3167+7400 26 00              ld    h,0
 3168+7402 2B                 dec   hl
 3169+7403 D1                 pop   de
 3170+7404 19                 add   hl,de
 3171+7405 36 01              ld    (hl),1
 3172+7407 21 ED B4           ld    hl,_MAPDELX+12
 3173+740A E5                 push  hl
 3174+740B 3A 5B B0           ld    a,(_Y)
 3175+740E 6F                 ld    l,a
 3176+740F 26 00              ld    h,0
 3177+7411 2B                 dec   hl
 3178+7412 D1                 pop   de
 3179+7413 19                 add   hl,de
 3180+7414 36 01              ld    (hl),1
 3181+7416 21 F3 B4           ld    hl,_MAPDELX+18
 3182+7419 E5                 push  hl
 3183+741A 3A 5B B0           ld    a,(_Y)
 3184+741D 6F                 ld    l,a
 3185+741E 26 00              ld    h,0
 3186+7420 2B                 dec   hl
 3187+7421 D1                 pop   de
 3188+7422 19                 add   hl,de
 3189+7423 36 01              ld    (hl),1
 3190+7425 21 F9 B4           ld    hl,_MAPDELX+24
 3191+7428 E5                 push  hl
 3192+7429 3A 5B B0           ld    a,(_Y)
 3193+742C 6F                 ld    l,a
 3194+742D 26 00              ld    h,0
 3195+742F 2B                 dec   hl
 3196+7430 D1                 pop   de
 3197+7431 19                 add   hl,de
 3198+7432 36 01              ld    (hl),1
 3199+7434 21 FF B4           ld    hl,_MAPDELX+30
 3200+7437 E5                 push  hl
 3201+7438 3A 5B B0           ld    a,(_Y)
 3202+743B 6F                 ld    l,a
 3203+743C 26 00              ld    h,0
 3204+743E 2B                 dec   hl
 3205+743F D1                 pop   de
 3206+7440 19                 add   hl,de
 3207+7441 36 01              ld    (hl),1
 3208+7443              L209
 3209+7443              L211
 3210+7443              L206
 3211+7443              L208
 3212+7443 AF                 xor   a
 3213+7444 21 60 B0           ld    hl,_Z
 3214+7447 BE                 cp    (hl)
 3215+7448 D2 F3 74           jp    nc,L212
 3216+744B 21 E7 B4           ld    hl,_MAPDELX+6
 3217+744E E5                 push  hl
 3218+744F 3A 5B B0           ld    a,(_Y)
 3219+7452 6F                 ld    l,a
 3220+7453 26 00              ld    h,0
 3221+7455 2B                 dec   hl
 3222+7456 D1                 pop   de
 3223+7457 19                 add   hl,de
 3224+7458 AF                 xor   a
 3225+7459 BE                 cp    (hl)
 3226+745A C2 F3 74           jp    nz,L212
 3227+745D              L213
 3228+745D 3A 60 B0           ld    a,(_Z)
 3229+7460 6F                 ld    l,a
 3230+7461 26 00              ld    h,0
 3231+7463 E5                 push  hl
 3232+7464 21 C9 B4           ld    hl,_MAPBLOCK+12
 3233+7467 E5                 push  hl
 3234+7468 3A 5B B0           ld    a,(_Y)
 3235+746B 6F                 ld    l,a
 3236+746C 26 00              ld    h,0
 3237+746E 2B                 dec   hl
 3238+746F D1                 pop   de
 3239+7470 19                 add   hl,de
 3240+7471 6E                 ld    l,(hl)
 3241+7472 26 00              ld    h,0
 3242+7474 D1                 pop   de
 3243+7475 A7                 and   a
 3244+7476 ED 52              sbc   hl,de
 3245+7478 C2 F3 74           jp    nz,L215
 3246+747B 3A 60 B0           ld    a,(_Z)
 3247+747E 6F                 ld    l,a
 3248+747F 26 00              ld    h,0
 3249+7481 E5                 push  hl
 3250+7482 21 CF B4           ld    hl,_MAPBLOCK+18
 3251+7485 E5                 push  hl
 3252+7486 3A 5B B0           ld    a,(_Y)
 3253+7489 6F                 ld    l,a
 3254+748A 26 00              ld    h,0
 3255+748C 2B                 dec   hl
 3256+748D D1                 pop   de
 3257+748E 19                 add   hl,de
 3258+748F 6E                 ld    l,(hl)
 3259+7490 26 00              ld    h,0
 3260+7492 D1                 pop   de
 3261+7493 A7                 and   a
 3262+7494 ED 52              sbc   hl,de
 3263+7496 C2 F3 74           jp    nz,L215
 3264+7499 3A 60 B0           ld    a,(_Z)
 3265+749C 6F                 ld    l,a
 3266+749D 26 00              ld    h,0
 3267+749F E5                 push  hl
 3268+74A0 21 D5 B4           ld    hl,_MAPBLOCK+24
 3269+74A3 E5                 push  hl
 3270+74A4 3A 5B B0           ld    a,(_Y)
 3271+74A7 6F                 ld    l,a
 3272+74A8 26 00              ld    h,0
 3273+74AA 2B                 dec   hl
 3274+74AB D1                 pop   de
 3275+74AC 19                 add   hl,de
 3276+74AD 6E                 ld    l,(hl)
 3277+74AE 26 00              ld    h,0
 3278+74B0 D1                 pop   de
 3279+74B1 A7                 and   a
 3280+74B2 ED 52              sbc   hl,de
 3281+74B4 C2 F3 74           jp    nz,L215
 3282+74B7              L216
 3283+74B7 21 E7 B4           ld    hl,_MAPDELX+6
 3284+74BA E5                 push  hl
 3285+74BB 3A 5B B0           ld    a,(_Y)
 3286+74BE 6F                 ld    l,a
 3287+74BF 26 00              ld    h,0
 3288+74C1 2B                 dec   hl
 3289+74C2 D1                 pop   de
 3290+74C3 19                 add   hl,de
 3291+74C4 36 01              ld    (hl),1
 3292+74C6 21 ED B4           ld    hl,_MAPDELX+12
 3293+74C9 E5                 push  hl
 3294+74CA 3A 5B B0           ld    a,(_Y)
 3295+74CD 6F                 ld    l,a
 3296+74CE 26 00              ld    h,0
 3297+74D0 2B                 dec   hl
 3298+74D1 D1                 pop   de
 3299+74D2 19                 add   hl,de
 3300+74D3 36 01              ld    (hl),1
 3301+74D5 21 F3 B4           ld    hl,_MAPDELX+18
 3302+74D8 E5                 push  hl
 3303+74D9 3A 5B B0           ld    a,(_Y)
 3304+74DC 6F                 ld    l,a
 3305+74DD 26 00              ld    h,0
 3306+74DF 2B                 dec   hl
 3307+74E0 D1                 pop   de
 3308+74E1 19                 add   hl,de
 3309+74E2 36 01              ld    (hl),1
 3310+74E4 21 F9 B4           ld    hl,_MAPDELX+24
 3311+74E7 E5                 push  hl
 3312+74E8 3A 5B B0           ld    a,(_Y)
 3313+74EB 6F                 ld    l,a
 3314+74EC 26 00              ld    h,0
 3315+74EE 2B                 dec   hl
 3316+74EF D1                 pop   de
 3317+74F0 19                 add   hl,de
 3318+74F1 36 01              ld    (hl),1
 3319+74F3              L215
 3320+74F3              L217
 3321+74F3              L212
 3322+74F3              L214
 3323+74F3 AF                 xor   a
 3324+74F4 21 60 B0           ld    hl,_Z
 3325+74F7 BE                 cp    (hl)
 3326+74F8 D2 76 75           jp    nc,L218
 3327+74FB 21 E7 B4           ld    hl,_MAPDELX+6
 3328+74FE E5                 push  hl
 3329+74FF 3A 5B B0           ld    a,(_Y)
 3330+7502 6F                 ld    l,a
 3331+7503 26 00              ld    h,0
 3332+7505 2B                 dec   hl
 3333+7506 D1                 pop   de
 3334+7507 19                 add   hl,de
 3335+7508 AF                 xor   a
 3336+7509 BE                 cp    (hl)
 3337+750A C2 76 75           jp    nz,L218
 3338+750D              L219
 3339+750D 3A 60 B0           ld    a,(_Z)
 3340+7510 6F                 ld    l,a
 3341+7511 26 00              ld    h,0
 3342+7513 E5                 push  hl
 3343+7514 21 C9 B4           ld    hl,_MAPBLOCK+12
 3344+7517 E5                 push  hl
 3345+7518 3A 5B B0           ld    a,(_Y)
 3346+751B 6F                 ld    l,a
 3347+751C 26 00              ld    h,0
 3348+751E 2B                 dec   hl
 3349+751F D1                 pop   de
 3350+7520 19                 add   hl,de
 3351+7521 6E                 ld    l,(hl)
 3352+7522 26 00              ld    h,0
 3353+7524 D1                 pop   de
 3354+7525 A7                 and   a
 3355+7526 ED 52              sbc   hl,de
 3356+7528 C2 76 75           jp    nz,L221
 3357+752B 3A 60 B0           ld    a,(_Z)
 3358+752E 6F                 ld    l,a
 3359+752F 26 00              ld    h,0
 3360+7531 E5                 push  hl
 3361+7532 21 CF B4           ld    hl,_MAPBLOCK+18
 3362+7535 E5                 push  hl
 3363+7536 3A 5B B0           ld    a,(_Y)
 3364+7539 6F                 ld    l,a
 3365+753A 26 00              ld    h,0
 3366+753C 2B                 dec   hl
 3367+753D D1                 pop   de
 3368+753E 19                 add   hl,de
 3369+753F 6E                 ld    l,(hl)
 3370+7540 26 00              ld    h,0
 3371+7542 D1                 pop   de
 3372+7543 A7                 and   a
 3373+7544 ED 52              sbc   hl,de
 3374+7546 C2 76 75           jp    nz,L221
 3375+7549              L222
 3376+7549 21 E7 B4           ld    hl,_MAPDELX+6
 3377+754C E5                 push  hl
 3378+754D 3A 5B B0           ld    a,(_Y)
 3379+7550 6F                 ld    l,a
 3380+7551 26 00              ld    h,0
 3381+7553 2B                 dec   hl
 3382+7554 D1                 pop   de
 3383+7555 19                 add   hl,de
 3384+7556 36 01              ld    (hl),1
 3385+7558 21 ED B4           ld    hl,_MAPDELX+12
 3386+755B E5                 push  hl
 3387+755C 3A 5B B0           ld    a,(_Y)
 3388+755F 6F                 ld    l,a
 3389+7560 26 00              ld    h,0
 3390+7562 2B                 dec   hl
 3391+7563 D1                 pop   de
 3392+7564 19                 add   hl,de
 3393+7565 36 01              ld    (hl),1
 3394+7567 21 F3 B4           ld    hl,_MAPDELX+18
 3395+756A E5                 push  hl
 3396+756B 3A 5B B0           ld    a,(_Y)
 3397+756E 6F                 ld    l,a
 3398+756F 26 00              ld    h,0
 3399+7571 2B                 dec   hl
 3400+7572 D1                 pop   de
 3401+7573 19                 add   hl,de
 3402+7574 36 01              ld    (hl),1
 3403+7576              L221
 3404+7576              L223
 3405+7576              L218
 3406+7576              L220
 3407+7576 21 C9 B4           ld    hl,_MAPBLOCK+12
 3408+7579 E5                 push  hl
 3409+757A 3A 5B B0           ld    a,(_Y)
 3410+757D 6F                 ld    l,a
 3411+757E 26 00              ld    h,0
 3412+7580 2B                 dec   hl
 3413+7581 D1                 pop   de
 3414+7582 19                 add   hl,de
 3415+7583 6E                 ld    l,(hl)
 3416+7584 26 00              ld    h,0
 3417+7586 7D                 ld    a,l
 3418+7587 32 60 B0           ld    (_Z),a
 3419+758A 11 00 00           ld    de,0
 3420+758D EB                 ex    de,hl
 3421+758E A7                 and   a
 3422+758F ED 52              sbc   hl,de
 3423+7591 D2 3C 76           jp    nc,L224
 3424+7594 21 ED B4           ld    hl,_MAPDELX+12
 3425+7597 E5                 push  hl
 3426+7598 3A 5B B0           ld    a,(_Y)
 3427+759B 6F                 ld    l,a
 3428+759C 26 00              ld    h,0
 3429+759E 2B                 dec   hl
 3430+759F D1                 pop   de
 3431+75A0 19                 add   hl,de
 3432+75A1 AF                 xor   a
 3433+75A2 BE                 cp    (hl)
 3434+75A3 C2 3C 76           jp    nz,L224
 3435+75A6              L225
 3436+75A6 3A 60 B0           ld    a,(_Z)
 3437+75A9 6F                 ld    l,a
 3438+75AA 26 00              ld    h,0
 3439+75AC E5                 push  hl
 3440+75AD 21 CF B4           ld    hl,_MAPBLOCK+18
 3441+75B0 E5                 push  hl
 3442+75B1 3A 5B B0           ld    a,(_Y)
 3443+75B4 6F                 ld    l,a
 3444+75B5 26 00              ld    h,0
 3445+75B7 2B                 dec   hl
 3446+75B8 D1                 pop   de
 3447+75B9 19                 add   hl,de
 3448+75BA 6E                 ld    l,(hl)
 3449+75BB 26 00              ld    h,0
 3450+75BD D1                 pop   de
 3451+75BE A7                 and   a
 3452+75BF ED 52              sbc   hl,de
 3453+75C1 C2 3C 76           jp    nz,L227
 3454+75C4 3A 60 B0           ld    a,(_Z)
 3455+75C7 6F                 ld    l,a
 3456+75C8 26 00              ld    h,0
 3457+75CA E5                 push  hl
 3458+75CB 21 D5 B4           ld    hl,_MAPBLOCK+24
 3459+75CE E5                 push  hl
 3460+75CF 3A 5B B0           ld    a,(_Y)
 3461+75D2 6F                 ld    l,a
 3462+75D3 26 00              ld    h,0
 3463+75D5 2B                 dec   hl
 3464+75D6 D1                 pop   de
 3465+75D7 19                 add   hl,de
 3466+75D8 6E                 ld    l,(hl)
 3467+75D9 26 00              ld    h,0
 3468+75DB D1                 pop   de
 3469+75DC A7                 and   a
 3470+75DD ED 52              sbc   hl,de
 3471+75DF C2 3C 76           jp    nz,L227
 3472+75E2 3A 60 B0           ld    a,(_Z)
 3473+75E5 6F                 ld    l,a
 3474+75E6 26 00              ld    h,0
 3475+75E8 E5                 push  hl
 3476+75E9 21 DB B4           ld    hl,_MAPBLOCK+30
 3477+75EC E5                 push  hl
 3478+75ED 3A 5B B0           ld    a,(_Y)
 3479+75F0 6F                 ld    l,a
 3480+75F1 26 00              ld    h,0
 3481+75F3 2B                 dec   hl
 3482+75F4 D1                 pop   de
 3483+75F5 19                 add   hl,de
 3484+75F6 6E                 ld    l,(hl)
 3485+75F7 26 00              ld    h,0
 3486+75F9 D1                 pop   de
 3487+75FA A7                 and   a
 3488+75FB ED 52              sbc   hl,de
 3489+75FD C2 3C 76           jp    nz,L227
 3490+7600              L228
 3491+7600 21 ED B4           ld    hl,_MAPDELX+12
 3492+7603 E5                 push  hl
 3493+7604 3A 5B B0           ld    a,(_Y)
 3494+7607 6F                 ld    l,a
 3495+7608 26 00              ld    h,0
 3496+760A 2B                 dec   hl
 3497+760B D1                 pop   de
 3498+760C 19                 add   hl,de
 3499+760D 36 01              ld    (hl),1
 3500+760F 21 F3 B4           ld    hl,_MAPDELX+18
 3501+7612 E5                 push  hl
 3502+7613 3A 5B B0           ld    a,(_Y)
 3503+7616 6F                 ld    l,a
 3504+7617 26 00              ld    h,0
 3505+7619 2B                 dec   hl
 3506+761A D1                 pop   de
 3507+761B 19                 add   hl,de
 3508+761C 36 01              ld    (hl),1
 3509+761E 21 F9 B4           ld    hl,_MAPDELX+24
 3510+7621 E5                 push  hl
 3511+7622 3A 5B B0           ld    a,(_Y)
 3512+7625 6F                 ld    l,a
 3513+7626 26 00              ld    h,0
 3514+7628 2B                 dec   hl
 3515+7629 D1                 pop   de
 3516+762A 19                 add   hl,de
 3517+762B 36 01              ld    (hl),1
 3518+762D 21 FF B4           ld    hl,_MAPDELX+30
 3519+7630 E5                 push  hl
 3520+7631 3A 5B B0           ld    a,(_Y)
 3521+7634 6F                 ld    l,a
 3522+7635 26 00              ld    h,0
 3523+7637 2B                 dec   hl
 3524+7638 D1                 pop   de
 3525+7639 19                 add   hl,de
 3526+763A 36 01              ld    (hl),1
 3527+763C              L227
 3528+763C              L229
 3529+763C              L224
 3530+763C              L226
 3531+763C AF                 xor   a
 3532+763D 21 60 B0           ld    hl,_Z
 3533+7640 BE                 cp    (hl)
 3534+7641 D2 BF 76           jp    nc,L230
 3535+7644 21 ED B4           ld    hl,_MAPDELX+12
 3536+7647 E5                 push  hl
 3537+7648 3A 5B B0           ld    a,(_Y)
 3538+764B 6F                 ld    l,a
 3539+764C 26 00              ld    h,0
 3540+764E 2B                 dec   hl
 3541+764F D1                 pop   de
 3542+7650 19                 add   hl,de
 3543+7651 AF                 xor   a
 3544+7652 BE                 cp    (hl)
 3545+7653 C2 BF 76           jp    nz,L230
 3546+7656              L231
 3547+7656 3A 60 B0           ld    a,(_Z)
 3548+7659 6F                 ld    l,a
 3549+765A 26 00              ld    h,0
 3550+765C E5                 push  hl
 3551+765D 21 CF B4           ld    hl,_MAPBLOCK+18
 3552+7660 E5                 push  hl
 3553+7661 3A 5B B0           ld    a,(_Y)
 3554+7664 6F                 ld    l,a
 3555+7665 26 00              ld    h,0
 3556+7667 2B                 dec   hl
 3557+7668 D1                 pop   de
 3558+7669 19                 add   hl,de
 3559+766A 6E                 ld    l,(hl)
 3560+766B 26 00              ld    h,0
 3561+766D D1                 pop   de
 3562+766E A7                 and   a
 3563+766F ED 52              sbc   hl,de
 3564+7671 C2 BF 76           jp    nz,L233
 3565+7674 3A 60 B0           ld    a,(_Z)
 3566+7677 6F                 ld    l,a
 3567+7678 26 00              ld    h,0
 3568+767A E5                 push  hl
 3569+767B 21 D5 B4           ld    hl,_MAPBLOCK+24
 3570+767E E5                 push  hl
 3571+767F 3A 5B B0           ld    a,(_Y)
 3572+7682 6F                 ld    l,a
 3573+7683 26 00              ld    h,0
 3574+7685 2B                 dec   hl
 3575+7686 D1                 pop   de
 3576+7687 19                 add   hl,de
 3577+7688 6E                 ld    l,(hl)
 3578+7689 26 00              ld    h,0
 3579+768B D1                 pop   de
 3580+768C A7                 and   a
 3581+768D ED 52              sbc   hl,de
 3582+768F C2 BF 76           jp    nz,L233
 3583+7692              L234
 3584+7692 21 ED B4           ld    hl,_MAPDELX+12
 3585+7695 E5                 push  hl
 3586+7696 3A 5B B0           ld    a,(_Y)
 3587+7699 6F                 ld    l,a
 3588+769A 26 00              ld    h,0
 3589+769C 2B                 dec   hl
 3590+769D D1                 pop   de
 3591+769E 19                 add   hl,de
 3592+769F 36 01              ld    (hl),1
 3593+76A1 21 F3 B4           ld    hl,_MAPDELX+18
 3594+76A4 E5                 push  hl
 3595+76A5 3A 5B B0           ld    a,(_Y)
 3596+76A8 6F                 ld    l,a
 3597+76A9 26 00              ld    h,0
 3598+76AB 2B                 dec   hl
 3599+76AC D1                 pop   de
 3600+76AD 19                 add   hl,de
 3601+76AE 36 01              ld    (hl),1
 3602+76B0 21 F9 B4           ld    hl,_MAPDELX+24
 3603+76B3 E5                 push  hl
 3604+76B4 3A 5B B0           ld    a,(_Y)
 3605+76B7 6F                 ld    l,a
 3606+76B8 26 00              ld    h,0
 3607+76BA 2B                 dec   hl
 3608+76BB D1                 pop   de
 3609+76BC 19                 add   hl,de
 3610+76BD 36 01              ld    (hl),1
 3611+76BF              L233
 3612+76BF              L235
 3613+76BF              L230
 3614+76BF              L232
 3615+76BF 21 CF B4           ld    hl,_MAPBLOCK+18
 3616+76C2 E5                 push  hl
 3617+76C3 3A 5B B0           ld    a,(_Y)
 3618+76C6 6F                 ld    l,a
 3619+76C7 26 00              ld    h,0
 3620+76C9 2B                 dec   hl
 3621+76CA D1                 pop   de
 3622+76CB 19                 add   hl,de
 3623+76CC 6E                 ld    l,(hl)
 3624+76CD 26 00              ld    h,0
 3625+76CF 7D                 ld    a,l
 3626+76D0 32 60 B0           ld    (_Z),a
 3627+76D3 11 00 00           ld    de,0
 3628+76D6 EB                 ex    de,hl
 3629+76D7 A7                 and   a
 3630+76D8 ED 52              sbc   hl,de
 3631+76DA D2 58 77           jp    nc,L236
 3632+76DD 21 F3 B4           ld    hl,_MAPDELX+18
 3633+76E0 E5                 push  hl
 3634+76E1 3A 5B B0           ld    a,(_Y)
 3635+76E4 6F                 ld    l,a
 3636+76E5 26 00              ld    h,0
 3637+76E7 2B                 dec   hl
 3638+76E8 D1                 pop   de
 3639+76E9 19                 add   hl,de
 3640+76EA AF                 xor   a
 3641+76EB BE                 cp    (hl)
 3642+76EC C2 58 77           jp    nz,L236
 3643+76EF              L237
 3644+76EF 3A 60 B0           ld    a,(_Z)
 3645+76F2 6F                 ld    l,a
 3646+76F3 26 00              ld    h,0
 3647+76F5 E5                 push  hl
 3648+76F6 21 D5 B4           ld    hl,_MAPBLOCK+24
 3649+76F9 E5                 push  hl
 3650+76FA 3A 5B B0           ld    a,(_Y)
 3651+76FD 6F                 ld    l,a
 3652+76FE 26 00              ld    h,0
 3653+7700 2B                 dec   hl
 3654+7701 D1                 pop   de
 3655+7702 19                 add   hl,de
 3656+7703 6E                 ld    l,(hl)
 3657+7704 26 00              ld    h,0
 3658+7706 D1                 pop   de
 3659+7707 A7                 and   a
 3660+7708 ED 52              sbc   hl,de
 3661+770A C2 58 77           jp    nz,L239
 3662+770D 3A 60 B0           ld    a,(_Z)
 3663+7710 6F                 ld    l,a
 3664+7711 26 00              ld    h,0
 3665+7713 E5                 push  hl
 3666+7714 21 DB B4           ld    hl,_MAPBLOCK+30
 3667+7717 E5                 push  hl
 3668+7718 3A 5B B0           ld    a,(_Y)
 3669+771B 6F                 ld    l,a
 3670+771C 26 00              ld    h,0
 3671+771E 2B                 dec   hl
 3672+771F D1                 pop   de
 3673+7720 19                 add   hl,de
 3674+7721 6E                 ld    l,(hl)
 3675+7722 26 00              ld    h,0
 3676+7724 D1                 pop   de
 3677+7725 A7                 and   a
 3678+7726 ED 52              sbc   hl,de
 3679+7728 C2 58 77           jp    nz,L239
 3680+772B              L240
 3681+772B 21 F3 B4           ld    hl,_MAPDELX+18
 3682+772E E5                 push  hl
 3683+772F 3A 5B B0           ld    a,(_Y)
 3684+7732 6F                 ld    l,a
 3685+7733 26 00              ld    h,0
 3686+7735 2B                 dec   hl
 3687+7736 D1                 pop   de
 3688+7737 19                 add   hl,de
 3689+7738 36 01              ld    (hl),1
 3690+773A 21 F9 B4           ld    hl,_MAPDELX+24
 3691+773D E5                 push  hl
 3692+773E 3A 5B B0           ld    a,(_Y)
 3693+7741 6F                 ld    l,a
 3694+7742 26 00              ld    h,0
 3695+7744 2B                 dec   hl
 3696+7745 D1                 pop   de
 3697+7746 19                 add   hl,de
 3698+7747 36 01              ld    (hl),1
 3699+7749 21 FF B4           ld    hl,_MAPDELX+30
 3700+774C E5                 push  hl
 3701+774D 3A 5B B0           ld    a,(_Y)
 3702+7750 6F                 ld    l,a
 3703+7751 26 00              ld    h,0
 3704+7753 2B                 dec   hl
 3705+7754 D1                 pop   de
 3706+7755 19                 add   hl,de
 3707+7756 36 01              ld    (hl),1
 3708+7758              L239
 3709+7758              L241
 3710+7758              L236
 3711+7758              L238
 3712+7758 3A 54 B5           ld    a,(Lim_Y)
 3713+775B 21 5B B0           ld    hl,_Y
 3714+775E BE                 cp    (hl)
 3715+775F CA 69 77           jp    z,L181
 3716+7762 21 5B B0           ld    hl,_Y
 3717+7765 34                 inc   (hl)
 3718+7766 C3 20 70           jp    L180
 3719+7769              L181
 3720+7769 3E 01              ld    a,1
 3721+776B 32 5A B0           ld    (_X),a
 3722+776E 3E 06              ld    a,6
 3723+7770 32 53 B5           ld    (Lim_X),a
 3724+7773              L242
 3725+7773 3A 5A B0           ld    a,(_X)
 3726+7776 6F                 ld    l,a
 3727+7777 26 00              ld    h,0
 3728+7779 2B                 dec   hl
 3729+777A 29                 add   hl,hl
 3730+777B 54                 ld    d,h
 3731+777C 5D                 ld    e,l
 3732+777D 29                 add   hl,hl
 3733+777E 19                 add   hl,de
 3734+777F 11 BD B4           ld    de,_MAPBLOCK
 3735+7782 19                 add   hl,de
 3736+7783 6E                 ld    l,(hl)
 3737+7784 26 00              ld    h,0
 3738+7786 7D                 ld    a,l
 3739+7787 32 60 B0           ld    (_Z),a
 3740+778A 11 00 00           ld    de,0
 3741+778D EB                 ex    de,hl
 3742+778E A7                 and   a
 3743+778F ED 52              sbc   hl,de
 3744+7791 D2 6A 78           jp    nc,L244
 3745+7794 3A 5A B0           ld    a,(_X)
 3746+7797 6F                 ld    l,a
 3747+7798 26 00              ld    h,0
 3748+779A 2B                 dec   hl
 3749+779B 29                 add   hl,hl
 3750+779C 54                 ld    d,h
 3751+779D 5D                 ld    e,l
 3752+779E 29                 add   hl,hl
 3753+779F 19                 add   hl,de
 3754+77A0 11 05 B5           ld    de,_MAPDELY
 3755+77A3 19                 add   hl,de
 3756+77A4 AF                 xor   a
 3757+77A5 BE                 cp    (hl)
 3758+77A6 C2 6A 78           jp    nz,L244
 3759+77A9              L245
 3760+77A9 3A 60 B0           ld    a,(_Z)
 3761+77AC 6F                 ld    l,a
 3762+77AD 26 00              ld    h,0
 3763+77AF E5                 push  hl
 3764+77B0 3A 5A B0           ld    a,(_X)
 3765+77B3 6F                 ld    l,a
 3766+77B4 26 00              ld    h,0
 3767+77B6 2B                 dec   hl
 3768+77B7 29                 add   hl,hl
 3769+77B8 54                 ld    d,h
 3770+77B9 5D                 ld    e,l
 3771+77BA 29                 add   hl,hl
 3772+77BB 19                 add   hl,de
 3773+77BC 11 BD B4           ld    de,_MAPBLOCK
 3774+77BF 19                 add   hl,de
 3775+77C0 22 F0 AF           ld    (addr_arraybyte_index111),hl
 3776+77C3 23                 inc   hl
 3777+77C4 6E                 ld    l,(hl)
 3778+77C5 26 00              ld    h,0
 3779+77C7 D1                 pop   de
 3780+77C8 A7                 and   a
 3781+77C9 ED 52              sbc   hl,de
 3782+77CB C2 6A 78           jp    nz,L247
 3783+77CE 3A 60 B0           ld    a,(_Z)
 3784+77D1 6F                 ld    l,a
 3785+77D2 26 00              ld    h,0
 3786+77D4 E5                 push  hl
 3787+77D5 2A F0 AF           ld    hl,(addr_arraybyte_index111)
 3788+77D8 11 02 00           ld    de,2
 3789+77DB 19                 add   hl,de
 3790+77DC 6E                 ld    l,(hl)
 3791+77DD 26 00              ld    h,0
 3792+77DF D1                 pop   de
 3793+77E0 A7                 and   a
 3794+77E1 ED 52              sbc   hl,de
 3795+77E3 C2 6A 78           jp    nz,L247
 3796+77E6 3A 60 B0           ld    a,(_Z)
 3797+77E9 6F                 ld    l,a
 3798+77EA 26 00              ld    h,0
 3799+77EC E5                 push  hl
 3800+77ED 2A F0 AF           ld    hl,(addr_arraybyte_index111)
 3801+77F0 11 03 00           ld    de,3
 3802+77F3 19                 add   hl,de
 3803+77F4 6E                 ld    l,(hl)
 3804+77F5 26 00              ld    h,0
 3805+77F7 D1                 pop   de
 3806+77F8 A7                 and   a
 3807+77F9 ED 52              sbc   hl,de
 3808+77FB C2 6A 78           jp    nz,L247
 3809+77FE 3A 60 B0           ld    a,(_Z)
 3810+7801 6F                 ld    l,a
 3811+7802 26 00              ld    h,0
 3812+7804 E5                 push  hl
 3813+7805 2A F0 AF           ld    hl,(addr_arraybyte_index111)
 3814+7808 11 04 00           ld    de,4
 3815+780B 19                 add   hl,de
 3816+780C 6E                 ld    l,(hl)
 3817+780D 26 00              ld    h,0
 3818+780F D1                 pop   de
 3819+7810 A7                 and   a
 3820+7811 ED 52              sbc   hl,de
 3821+7813 C2 6A 78           jp    nz,L247
 3822+7816 3A 60 B0           ld    a,(_Z)
 3823+7819 6F                 ld    l,a
 3824+781A 26 00              ld    h,0
 3825+781C E5                 push  hl
 3826+781D 2A F0 AF           ld    hl,(addr_arraybyte_index111)
 3827+7820 11 05 00           ld    de,5
 3828+7823 19                 add   hl,de
 3829+7824 6E                 ld    l,(hl)
 3830+7825 26 00              ld    h,0
 3831+7827 D1                 pop   de
 3832+7828 A7                 and   a
 3833+7829 ED 52              sbc   hl,de
 3834+782B C2 6A 78           jp    nz,L247
 3835+782E              L248
 3836+782E 3A 5A B0           ld    a,(_X)
 3837+7831 6F                 ld    l,a
 3838+7832 26 00              ld    h,0
 3839+7834 2B                 dec   hl
 3840+7835 29                 add   hl,hl
 3841+7836 54                 ld    d,h
 3842+7837 5D                 ld    e,l
 3843+7838 29                 add   hl,hl
 3844+7839 19                 add   hl,de
 3845+783A 11 05 B5           ld    de,_MAPDELY
 3846+783D 19                 add   hl,de
 3847+783E 22 F0 AF           ld    (addr_arraybyte_index111),hl
 3848+7841 36 01              ld    (hl),1
 3849+7843 23                 inc   hl
 3850+7844 36 01              ld    (hl),1
 3851+7846 2A F0 AF           ld    hl,(addr_arraybyte_index111)
 3852+7849 11 02 00           ld    de,2
 3853+784C 19                 add   hl,de
 3854+784D 36 01              ld    (hl),1
 3855+784F 2A F0 AF           ld    hl,(addr_arraybyte_index111)
 3856+7852 11 03 00           ld    de,3
 3857+7855 19                 add   hl,de
 3858+7856 36 01              ld    (hl),1
 3859+7858 2A F0 AF           ld    hl,(addr_arraybyte_index111)
 3860+785B 11 04 00           ld    de,4
 3861+785E 19                 add   hl,de
 3862+785F 36 01              ld    (hl),1
 3863+7861 2A F0 AF           ld    hl,(addr_arraybyte_index111)
 3864+7864 11 05 00           ld    de,5
 3865+7867 19                 add   hl,de
 3866+7868 36 01              ld    (hl),1
 3867+786A              L247
 3868+786A              L249
 3869+786A              L244
 3870+786A              L246
 3871+786A AF                 xor   a
 3872+786B 21 60 B0           ld    hl,_Z
 3873+786E BE                 cp    (hl)
 3874+786F D2 27 79           jp    nc,L250
 3875+7872 3A 5A B0           ld    a,(_X)
 3876+7875 6F                 ld    l,a
 3877+7876 26 00              ld    h,0
 3878+7878 2B                 dec   hl
 3879+7879 29                 add   hl,hl
 3880+787A 54                 ld    d,h
 3881+787B 5D                 ld    e,l
 3882+787C 29                 add   hl,hl
 3883+787D 19                 add   hl,de
 3884+787E 11 05 B5           ld    de,_MAPDELY
 3885+7881 19                 add   hl,de
 3886+7882 AF                 xor   a
 3887+7883 BE                 cp    (hl)
 3888+7884 C2 27 79           jp    nz,L250
 3889+7887              L251
 3890+7887 3A 60 B0           ld    a,(_Z)
 3891+788A 6F                 ld    l,a
 3892+788B 26 00              ld    h,0
 3893+788D E5                 push  hl
 3894+788E 3A 5A B0           ld    a,(_X)
 3895+7891 6F                 ld    l,a
 3896+7892 26 00              ld    h,0
 3897+7894 2B                 dec   hl
 3898+7895 29                 add   hl,hl
 3899+7896 54                 ld    d,h
 3900+7897 5D                 ld    e,l
 3901+7898 29                 add   hl,hl
 3902+7899 19                 add   hl,de
 3903+789A 11 BD B4           ld    de,_MAPBLOCK
 3904+789D 19                 add   hl,de
 3905+789E 22 F0 AF           ld    (addr_arraybyte_index111),hl
 3906+78A1 23                 inc   hl
 3907+78A2 6E                 ld    l,(hl)
 3908+78A3 26 00              ld    h,0
 3909+78A5 D1                 pop   de
 3910+78A6 A7                 and   a
 3911+78A7 ED 52              sbc   hl,de
 3912+78A9 C2 27 79           jp    nz,L253
 3913+78AC 3A 60 B0           ld    a,(_Z)
 3914+78AF 6F                 ld    l,a
 3915+78B0 26 00              ld    h,0
 3916+78B2 E5                 push  hl
 3917+78B3 2A F0 AF           ld    hl,(addr_arraybyte_index111)
 3918+78B6 11 02 00           ld    de,2
 3919+78B9 19                 add   hl,de
 3920+78BA 6E                 ld    l,(hl)
 3921+78BB 26 00              ld    h,0
 3922+78BD D1                 pop   de
 3923+78BE A7                 and   a
 3924+78BF ED 52              sbc   hl,de
 3925+78C1 C2 27 79           jp    nz,L253
 3926+78C4 3A 60 B0           ld    a,(_Z)
 3927+78C7 6F                 ld    l,a
 3928+78C8 26 00              ld    h,0
 3929+78CA E5                 push  hl
 3930+78CB 2A F0 AF           ld    hl,(addr_arraybyte_index111)
 3931+78CE 11 03 00           ld    de,3
 3932+78D1 19                 add   hl,de
 3933+78D2 6E                 ld    l,(hl)
 3934+78D3 26 00              ld    h,0
 3935+78D5 D1                 pop   de
 3936+78D6 A7                 and   a
 3937+78D7 ED 52              sbc   hl,de
 3938+78D9 C2 27 79           jp    nz,L253
 3939+78DC 3A 60 B0           ld    a,(_Z)
 3940+78DF 6F                 ld    l,a
 3941+78E0 26 00              ld    h,0
 3942+78E2 E5                 push  hl
 3943+78E3 2A F0 AF           ld    hl,(addr_arraybyte_index111)
 3944+78E6 11 04 00           ld    de,4
 3945+78E9 19                 add   hl,de
 3946+78EA 6E                 ld    l,(hl)
 3947+78EB 26 00              ld    h,0
 3948+78ED D1                 pop   de
 3949+78EE A7                 and   a
 3950+78EF ED 52              sbc   hl,de
 3951+78F1 C2 27 79           jp    nz,L253
 3952+78F4              L254
 3953+78F4 3A 5A B0           ld    a,(_X)
 3954+78F7 6F                 ld    l,a
 3955+78F8 26 00              ld    h,0
 3956+78FA 2B                 dec   hl
 3957+78FB 29                 add   hl,hl
 3958+78FC 54                 ld    d,h
 3959+78FD 5D                 ld    e,l
 3960+78FE 29                 add   hl,hl
 3961+78FF 19                 add   hl,de
 3962+7900 11 05 B5           ld    de,_MAPDELY
 3963+7903 19                 add   hl,de
 3964+7904 22 F0 AF           ld    (addr_arraybyte_index111),hl
 3965+7907 36 01              ld    (hl),1
 3966+7909 23                 inc   hl
 3967+790A 36 01              ld    (hl),1
 3968+790C 2A F0 AF           ld    hl,(addr_arraybyte_index111)
 3969+790F 11 02 00           ld    de,2
 3970+7912 19                 add   hl,de
 3971+7913 36 01              ld    (hl),1
 3972+7915 2A F0 AF           ld    hl,(addr_arraybyte_index111)
 3973+7918 11 03 00           ld    de,3
 3974+791B 19                 add   hl,de
 3975+791C 36 01              ld    (hl),1
 3976+791E 2A F0 AF           ld    hl,(addr_arraybyte_index111)
 3977+7921 11 04 00           ld    de,4
 3978+7924 19                 add   hl,de
 3979+7925 36 01              ld    (hl),1
 3980+7927              L253
 3981+7927              L255
 3982+7927              L250
 3983+7927              L252
 3984+7927 AF                 xor   a
 3985+7928 21 60 B0           ld    hl,_Z
 3986+792B BE                 cp    (hl)
 3987+792C D2 C3 79           jp    nc,L256
 3988+792F 3A 5A B0           ld    a,(_X)
 3989+7932 6F                 ld    l,a
 3990+7933 26 00              ld    h,0
 3991+7935 2B                 dec   hl
 3992+7936 29                 add   hl,hl
 3993+7937 54                 ld    d,h
 3994+7938 5D                 ld    e,l
 3995+7939 29                 add   hl,hl
 3996+793A 19                 add   hl,de
 3997+793B 11 05 B5           ld    de,_MAPDELY
 3998+793E 19                 add   hl,de
 3999+793F AF                 xor   a
 4000+7940 BE                 cp    (hl)
 4001+7941 C2 C3 79           jp    nz,L256
 4002+7944              L257
 4003+7944 3A 60 B0           ld    a,(_Z)
 4004+7947 6F                 ld    l,a
 4005+7948 26 00              ld    h,0
 4006+794A E5                 push  hl
 4007+794B 3A 5A B0           ld    a,(_X)
 4008+794E 6F                 ld    l,a
 4009+794F 26 00              ld    h,0
 4010+7951 2B                 dec   hl
 4011+7952 29                 add   hl,hl
 4012+7953 54                 ld    d,h
 4013+7954 5D                 ld    e,l
 4014+7955 29                 add   hl,hl
 4015+7956 19                 add   hl,de
 4016+7957 11 BD B4           ld    de,_MAPBLOCK
 4017+795A 19                 add   hl,de
 4018+795B 22 F0 AF           ld    (addr_arraybyte_index111),hl
 4019+795E 23                 inc   hl
 4020+795F 6E                 ld    l,(hl)
 4021+7960 26 00              ld    h,0
 4022+7962 D1                 pop   de
 4023+7963 A7                 and   a
 4024+7964 ED 52              sbc   hl,de
 4025+7966 C2 C3 79           jp    nz,L259
 4026+7969 3A 60 B0           ld    a,(_Z)
 4027+796C 6F                 ld    l,a
 4028+796D 26 00              ld    h,0
 4029+796F E5                 push  hl
 4030+7970 2A F0 AF           ld    hl,(addr_arraybyte_index111)
 4031+7973 11 02 00           ld    de,2
 4032+7976 19                 add   hl,de
 4033+7977 6E                 ld    l,(hl)
 4034+7978 26 00              ld    h,0
 4035+797A D1                 pop   de
 4036+797B A7                 and   a
 4037+797C ED 52              sbc   hl,de
 4038+797E C2 C3 79           jp    nz,L259
 4039+7981 3A 60 B0           ld    a,(_Z)
 4040+7984 6F                 ld    l,a
 4041+7985 26 00              ld    h,0
 4042+7987 E5                 push  hl
 4043+7988 2A F0 AF           ld    hl,(addr_arraybyte_index111)
 4044+798B 11 03 00           ld    de,3
 4045+798E 19                 add   hl,de
 4046+798F 6E                 ld    l,(hl)
 4047+7990 26 00              ld    h,0
 4048+7992 D1                 pop   de
 4049+7993 A7                 and   a
 4050+7994 ED 52              sbc   hl,de
 4051+7996 C2 C3 79           jp    nz,L259
 4052+7999              L260
 4053+7999 3A 5A B0           ld    a,(_X)
 4054+799C 6F                 ld    l,a
 4055+799D 26 00              ld    h,0
 4056+799F 2B                 dec   hl
 4057+79A0 29                 add   hl,hl
 4058+79A1 54                 ld    d,h
 4059+79A2 5D                 ld    e,l
 4060+79A3 29                 add   hl,hl
 4061+79A4 19                 add   hl,de
 4062+79A5 11 05 B5           ld    de,_MAPDELY
 4063+79A8 19                 add   hl,de
 4064+79A9 22 F0 AF           ld    (addr_arraybyte_index111),hl
 4065+79AC 36 01              ld    (hl),1
 4066+79AE 23                 inc   hl
 4067+79AF 36 01              ld    (hl),1
 4068+79B1 2A F0 AF           ld    hl,(addr_arraybyte_index111)
 4069+79B4 11 02 00           ld    de,2
 4070+79B7 19                 add   hl,de
 4071+79B8 36 01              ld    (hl),1
 4072+79BA 2A F0 AF           ld    hl,(addr_arraybyte_index111)
 4073+79BD 11 03 00           ld    de,3
 4074+79C0 19                 add   hl,de
 4075+79C1 36 01              ld    (hl),1
 4076+79C3              L259
 4077+79C3              L261
 4078+79C3              L256
 4079+79C3              L258
 4080+79C3 AF                 xor   a
 4081+79C4 21 60 B0           ld    hl,_Z
 4082+79C7 BE                 cp    (hl)
 4083+79C8 D2 3E 7A           jp    nc,L262
 4084+79CB 3A 5A B0           ld    a,(_X)
 4085+79CE 6F                 ld    l,a
 4086+79CF 26 00              ld    h,0
 4087+79D1 2B                 dec   hl
 4088+79D2 29                 add   hl,hl
 4089+79D3 54                 ld    d,h
 4090+79D4 5D                 ld    e,l
 4091+79D5 29                 add   hl,hl
 4092+79D6 19                 add   hl,de
 4093+79D7 11 05 B5           ld    de,_MAPDELY
 4094+79DA 19                 add   hl,de
 4095+79DB AF                 xor   a
 4096+79DC BE                 cp    (hl)
 4097+79DD C2 3E 7A           jp    nz,L262
 4098+79E0              L263
 4099+79E0 3A 60 B0           ld    a,(_Z)
 4100+79E3 6F                 ld    l,a
 4101+79E4 26 00              ld    h,0
 4102+79E6 E5                 push  hl
 4103+79E7 3A 5A B0           ld    a,(_X)
 4104+79EA 6F                 ld    l,a
 4105+79EB 26 00              ld    h,0
 4106+79ED 2B                 dec   hl
 4107+79EE 29                 add   hl,hl
 4108+79EF 54                 ld    d,h
 4109+79F0 5D                 ld    e,l
 4110+79F1 29                 add   hl,hl
 4111+79F2 19                 add   hl,de
 4112+79F3 11 BD B4           ld    de,_MAPBLOCK
 4113+79F6 19                 add   hl,de
 4114+79F7 22 F0 AF           ld    (addr_arraybyte_index111),hl
 4115+79FA 23                 inc   hl
 4116+79FB 6E                 ld    l,(hl)
 4117+79FC 26 00              ld    h,0
 4118+79FE D1                 pop   de
 4119+79FF A7                 and   a
 4120+7A00 ED 52              sbc   hl,de
 4121+7A02 C2 3E 7A           jp    nz,L265
 4122+7A05 3A 60 B0           ld    a,(_Z)
 4123+7A08 6F                 ld    l,a
 4124+7A09 26 00              ld    h,0
 4125+7A0B E5                 push  hl
 4126+7A0C 2A F0 AF           ld    hl,(addr_arraybyte_index111)
 4127+7A0F 11 02 00           ld    de,2
 4128+7A12 19                 add   hl,de
 4129+7A13 6E                 ld    l,(hl)
 4130+7A14 26 00              ld    h,0
 4131+7A16 D1                 pop   de
 4132+7A17 A7                 and   a
 4133+7A18 ED 52              sbc   hl,de
 4134+7A1A C2 3E 7A           jp    nz,L265
 4135+7A1D              L266
 4136+7A1D 3A 5A B0           ld    a,(_X)
 4137+7A20 6F                 ld    l,a
 4138+7A21 26 00              ld    h,0
 4139+7A23 2B                 dec   hl
 4140+7A24 29                 add   hl,hl
 4141+7A25 54                 ld    d,h
 4142+7A26 5D                 ld    e,l
 4143+7A27 29                 add   hl,hl
 4144+7A28 19                 add   hl,de
 4145+7A29 11 05 B5           ld    de,_MAPDELY
 4146+7A2C 19                 add   hl,de
 4147+7A2D 22 F0 AF           ld    (addr_arraybyte_index111),hl
 4148+7A30 36 01              ld    (hl),1
 4149+7A32 23                 inc   hl
 4150+7A33 36 01              ld    (hl),1
 4151+7A35 2A F0 AF           ld    hl,(addr_arraybyte_index111)
 4152+7A38 11 02 00           ld    de,2
 4153+7A3B 19                 add   hl,de
 4154+7A3C 36 01              ld    (hl),1
 4155+7A3E              L265
 4156+7A3E              L267
 4157+7A3E              L262
 4158+7A3E              L264
 4159+7A3E 3A 5A B0           ld    a,(_X)
 4160+7A41 6F                 ld    l,a
 4161+7A42 26 00              ld    h,0
 4162+7A44 2B                 dec   hl
 4163+7A45 29                 add   hl,hl
 4164+7A46 54                 ld    d,h
 4165+7A47 5D                 ld    e,l
 4166+7A48 29                 add   hl,hl
 4167+7A49 19                 add   hl,de
 4168+7A4A 11 BD B4           ld    de,_MAPBLOCK
 4169+7A4D 19                 add   hl,de
 4170+7A4E 23                 inc   hl
 4171+7A4F 6E                 ld    l,(hl)
 4172+7A50 26 00              ld    h,0
 4173+7A52 7D                 ld    a,l
 4174+7A53 32 60 B0           ld    (_Z),a
 4175+7A56 11 00 00           ld    de,0
 4176+7A59 EB                 ex    de,hl
 4177+7A5A A7                 and   a
 4178+7A5B ED 52              sbc   hl,de
 4179+7A5D D2 20 7B           jp    nc,L268
 4180+7A60 3A 5A B0           ld    a,(_X)
 4181+7A63 6F                 ld    l,a
 4182+7A64 26 00              ld    h,0
 4183+7A66 2B                 dec   hl
 4184+7A67 29                 add   hl,hl
 4185+7A68 54                 ld    d,h
 4186+7A69 5D                 ld    e,l
 4187+7A6A 29                 add   hl,hl
 4188+7A6B 19                 add   hl,de
 4189+7A6C 11 05 B5           ld    de,_MAPDELY
 4190+7A6F 19                 add   hl,de
 4191+7A70 23                 inc   hl
 4192+7A71 AF                 xor   a
 4193+7A72 BE                 cp    (hl)
 4194+7A73 C2 20 7B           jp    nz,L268
 4195+7A76              L269
 4196+7A76 3A 60 B0           ld    a,(_Z)
 4197+7A79 6F                 ld    l,a
 4198+7A7A 26 00              ld    h,0
 4199+7A7C E5                 push  hl
 4200+7A7D 3A 5A B0           ld    a,(_X)
 4201+7A80 6F                 ld    l,a
 4202+7A81 26 00              ld    h,0
 4203+7A83 2B                 dec   hl
 4204+7A84 29                 add   hl,hl
 4205+7A85 54                 ld    d,h
 4206+7A86 5D                 ld    e,l
 4207+7A87 29                 add   hl,hl
 4208+7A88 19                 add   hl,de
 4209+7A89 11 BD B4           ld    de,_MAPBLOCK
 4210+7A8C 19                 add   hl,de
 4211+7A8D 22 F0 AF           ld    (addr_arraybyte_index111),hl
 4212+7A90 11 02 00           ld    de,2
 4213+7A93 19                 add   hl,de
 4214+7A94 6E                 ld    l,(hl)
 4215+7A95 26 00              ld    h,0
 4216+7A97 D1                 pop   de
 4217+7A98 A7                 and   a
 4218+7A99 ED 52              sbc   hl,de
 4219+7A9B C2 20 7B           jp    nz,L271
 4220+7A9E 3A 60 B0           ld    a,(_Z)
 4221+7AA1 6F                 ld    l,a
 4222+7AA2 26 00              ld    h,0
 4223+7AA4 E5                 push  hl
 4224+7AA5 2A F0 AF           ld    hl,(addr_arraybyte_index111)
 4225+7AA8 11 03 00           ld    de,3
 4226+7AAB 19                 add   hl,de
 4227+7AAC 6E                 ld    l,(hl)
 4228+7AAD 26 00              ld    h,0
 4229+7AAF D1                 pop   de
 4230+7AB0 A7                 and   a
 4231+7AB1 ED 52              sbc   hl,de
 4232+7AB3 C2 20 7B           jp    nz,L271
 4233+7AB6 3A 60 B0           ld    a,(_Z)
 4234+7AB9 6F                 ld    l,a
 4235+7ABA 26 00              ld    h,0
 4236+7ABC E5                 push  hl
 4237+7ABD 2A F0 AF           ld    hl,(addr_arraybyte_index111)
 4238+7AC0 11 04 00           ld    de,4
 4239+7AC3 19                 add   hl,de
 4240+7AC4 6E                 ld    l,(hl)
 4241+7AC5 26 00              ld    h,0
 4242+7AC7 D1                 pop   de
 4243+7AC8 A7                 and   a
 4244+7AC9 ED 52              sbc   hl,de
 4245+7ACB C2 20 7B           jp    nz,L271
 4246+7ACE 3A 60 B0           ld    a,(_Z)
 4247+7AD1 6F                 ld    l,a
 4248+7AD2 26 00              ld    h,0
 4249+7AD4 E5                 push  hl
 4250+7AD5 2A F0 AF           ld    hl,(addr_arraybyte_index111)
 4251+7AD8 11 05 00           ld    de,5
 4252+7ADB 19                 add   hl,de
 4253+7ADC 6E                 ld    l,(hl)
 4254+7ADD 26 00              ld    h,0
 4255+7ADF D1                 pop   de
 4256+7AE0 A7                 and   a
 4257+7AE1 ED 52              sbc   hl,de
 4258+7AE3 C2 20 7B           jp    nz,L271
 4259+7AE6              L272
 4260+7AE6 3A 5A B0           ld    a,(_X)
 4261+7AE9 6F                 ld    l,a
 4262+7AEA 26 00              ld    h,0
 4263+7AEC 2B                 dec   hl
 4264+7AED 29                 add   hl,hl
 4265+7AEE 54                 ld    d,h
 4266+7AEF 5D                 ld    e,l
 4267+7AF0 29                 add   hl,hl
 4268+7AF1 19                 add   hl,de
 4269+7AF2 11 05 B5           ld    de,_MAPDELY
 4270+7AF5 19                 add   hl,de
 4271+7AF6 22 F0 AF           ld    (addr_arraybyte_index111),hl
 4272+7AF9 23                 inc   hl
 4273+7AFA 36 01              ld    (hl),1
 4274+7AFC 2A F0 AF           ld    hl,(addr_arraybyte_index111)
 4275+7AFF 11 02 00           ld    de,2
 4276+7B02 19                 add   hl,de
 4277+7B03 36 01              ld    (hl),1
 4278+7B05 2A F0 AF           ld    hl,(addr_arraybyte_index111)
 4279+7B08 11 03 00           ld    de,3
 4280+7B0B 19                 add   hl,de
 4281+7B0C 36 01              ld    (hl),1
 4282+7B0E 2A F0 AF           ld    hl,(addr_arraybyte_index111)
 4283+7B11 11 04 00           ld    de,4
 4284+7B14 19                 add   hl,de
 4285+7B15 36 01              ld    (hl),1
 4286+7B17 2A F0 AF           ld    hl,(addr_arraybyte_index111)
 4287+7B1A 11 05 00           ld    de,5
 4288+7B1D 19                 add   hl,de
 4289+7B1E 36 01              ld    (hl),1
 4290+7B20              L271
 4291+7B20              L273
 4292+7B20              L268
 4293+7B20              L270
 4294+7B20 AF                 xor   a
 4295+7B21 21 60 B0           ld    hl,_Z
 4296+7B24 BE                 cp    (hl)
 4297+7B25 D2 C7 7B           jp    nc,L274
 4298+7B28 3A 5A B0           ld    a,(_X)
 4299+7B2B 6F                 ld    l,a
 4300+7B2C 26 00              ld    h,0
 4301+7B2E 2B                 dec   hl
 4302+7B2F 29                 add   hl,hl
 4303+7B30 54                 ld    d,h
 4304+7B31 5D                 ld    e,l
 4305+7B32 29                 add   hl,hl
 4306+7B33 19                 add   hl,de
 4307+7B34 11 05 B5           ld    de,_MAPDELY
 4308+7B37 19                 add   hl,de
 4309+7B38 23                 inc   hl
 4310+7B39 AF                 xor   a
 4311+7B3A BE                 cp    (hl)
 4312+7B3B C2 C7 7B           jp    nz,L274
 4313+7B3E              L275
 4314+7B3E 3A 60 B0           ld    a,(_Z)
 4315+7B41 6F                 ld    l,a
 4316+7B42 26 00              ld    h,0
 4317+7B44 E5                 push  hl
 4318+7B45 3A 5A B0           ld    a,(_X)
 4319+7B48 6F                 ld    l,a
 4320+7B49 26 00              ld    h,0
 4321+7B4B 2B                 dec   hl
 4322+7B4C 29                 add   hl,hl
 4323+7B4D 54                 ld    d,h
 4324+7B4E 5D                 ld    e,l
 4325+7B4F 29                 add   hl,hl
 4326+7B50 19                 add   hl,de
 4327+7B51 11 BD B4           ld    de,_MAPBLOCK
 4328+7B54 19                 add   hl,de
 4329+7B55 22 F0 AF           ld    (addr_arraybyte_index111),hl
 4330+7B58 11 02 00           ld    de,2
 4331+7B5B 19                 add   hl,de
 4332+7B5C 6E                 ld    l,(hl)
 4333+7B5D 26 00              ld    h,0
 4334+7B5F D1                 pop   de
 4335+7B60 A7                 and   a
 4336+7B61 ED 52              sbc   hl,de
 4337+7B63 C2 C7 7B           jp    nz,L277
 4338+7B66 3A 60 B0           ld    a,(_Z)
 4339+7B69 6F                 ld    l,a
 4340+7B6A 26 00              ld    h,0
 4341+7B6C E5                 push  hl
 4342+7B6D 2A F0 AF           ld    hl,(addr_arraybyte_index111)
 4343+7B70 11 03 00           ld    de,3
 4344+7B73 19                 add   hl,de
 4345+7B74 6E                 ld    l,(hl)
 4346+7B75 26 00              ld    h,0
 4347+7B77 D1                 pop   de
 4348+7B78 A7                 and   a
 4349+7B79 ED 52              sbc   hl,de
 4350+7B7B C2 C7 7B           jp    nz,L277
 4351+7B7E 3A 60 B0           ld    a,(_Z)
 4352+7B81 6F                 ld    l,a
 4353+7B82 26 00              ld    h,0
 4354+7B84 E5                 push  hl
 4355+7B85 2A F0 AF           ld    hl,(addr_arraybyte_index111)
 4356+7B88 11 04 00           ld    de,4
 4357+7B8B 19                 add   hl,de
 4358+7B8C 6E                 ld    l,(hl)
 4359+7B8D 26 00              ld    h,0
 4360+7B8F D1                 pop   de
 4361+7B90 A7                 and   a
 4362+7B91 ED 52              sbc   hl,de
 4363+7B93 C2 C7 7B           jp    nz,L277
 4364+7B96              L278
 4365+7B96 3A 5A B0           ld    a,(_X)
 4366+7B99 6F                 ld    l,a
 4367+7B9A 26 00              ld    h,0
 4368+7B9C 2B                 dec   hl
 4369+7B9D 29                 add   hl,hl
 4370+7B9E 54                 ld    d,h
 4371+7B9F 5D                 ld    e,l
 4372+7BA0 29                 add   hl,hl
 4373+7BA1 19                 add   hl,de
 4374+7BA2 11 05 B5           ld    de,_MAPDELY
 4375+7BA5 19                 add   hl,de
 4376+7BA6 22 F0 AF           ld    (addr_arraybyte_index111),hl
 4377+7BA9 23                 inc   hl
 4378+7BAA 36 01              ld    (hl),1
 4379+7BAC 2A F0 AF           ld    hl,(addr_arraybyte_index111)
 4380+7BAF 11 02 00           ld    de,2
 4381+7BB2 19                 add   hl,de
 4382+7BB3 36 01              ld    (hl),1
 4383+7BB5 2A F0 AF           ld    hl,(addr_arraybyte_index111)
 4384+7BB8 11 03 00           ld    de,3
 4385+7BBB 19                 add   hl,de
 4386+7BBC 36 01              ld    (hl),1
 4387+7BBE 2A F0 AF           ld    hl,(addr_arraybyte_index111)
 4388+7BC1 11 04 00           ld    de,4
 4389+7BC4 19                 add   hl,de
 4390+7BC5 36 01              ld    (hl),1
 4391+7BC7              L277
 4392+7BC7              L279
 4393+7BC7              L274
 4394+7BC7              L276
 4395+7BC7 AF                 xor   a
 4396+7BC8 21 60 B0           ld    hl,_Z
 4397+7BCB BE                 cp    (hl)
 4398+7BCC D2 4D 7C           jp    nc,L280
 4399+7BCF 3A 5A B0           ld    a,(_X)
 4400+7BD2 6F                 ld    l,a
 4401+7BD3 26 00              ld    h,0
 4402+7BD5 2B                 dec   hl
 4403+7BD6 29                 add   hl,hl
 4404+7BD7 54                 ld    d,h
 4405+7BD8 5D                 ld    e,l
 4406+7BD9 29                 add   hl,hl
 4407+7BDA 19                 add   hl,de
 4408+7BDB 11 05 B5           ld    de,_MAPDELY
 4409+7BDE 19                 add   hl,de
 4410+7BDF 23                 inc   hl
 4411+7BE0 AF                 xor   a
 4412+7BE1 BE                 cp    (hl)
 4413+7BE2 C2 4D 7C           jp    nz,L280
 4414+7BE5              L281
 4415+7BE5 3A 60 B0           ld    a,(_Z)
 4416+7BE8 6F                 ld    l,a
 4417+7BE9 26 00              ld    h,0
 4418+7BEB E5                 push  hl
 4419+7BEC 3A 5A B0           ld    a,(_X)
 4420+7BEF 6F                 ld    l,a
 4421+7BF0 26 00              ld    h,0
 4422+7BF2 2B                 dec   hl
 4423+7BF3 29                 add   hl,hl
 4424+7BF4 54                 ld    d,h
 4425+7BF5 5D                 ld    e,l
 4426+7BF6 29                 add   hl,hl
 4427+7BF7 19                 add   hl,de
 4428+7BF8 11 BD B4           ld    de,_MAPBLOCK
 4429+7BFB 19                 add   hl,de
 4430+7BFC 22 F0 AF           ld    (addr_arraybyte_index111),hl
 4431+7BFF 11 02 00           ld    de,2
 4432+7C02 19                 add   hl,de
 4433+7C03 6E                 ld    l,(hl)
 4434+7C04 26 00              ld    h,0
 4435+7C06 D1                 pop   de
 4436+7C07 A7                 and   a
 4437+7C08 ED 52              sbc   hl,de
 4438+7C0A C2 4D 7C           jp    nz,L283
 4439+7C0D 3A 60 B0           ld    a,(_Z)
 4440+7C10 6F                 ld    l,a
 4441+7C11 26 00              ld    h,0
 4442+7C13 E5                 push  hl
 4443+7C14 2A F0 AF           ld    hl,(addr_arraybyte_index111)
 4444+7C17 11 03 00           ld    de,3
 4445+7C1A 19                 add   hl,de
 4446+7C1B 6E                 ld    l,(hl)
 4447+7C1C 26 00              ld    h,0
 4448+7C1E D1                 pop   de
 4449+7C1F A7                 and   a
 4450+7C20 ED 52              sbc   hl,de
 4451+7C22 C2 4D 7C           jp    nz,L283
 4452+7C25              L284
 4453+7C25 3A 5A B0           ld    a,(_X)
 4454+7C28 6F                 ld    l,a
 4455+7C29 26 00              ld    h,0
 4456+7C2B 2B                 dec   hl
 4457+7C2C 29                 add   hl,hl
 4458+7C2D 54                 ld    d,h
 4459+7C2E 5D                 ld    e,l
 4460+7C2F 29                 add   hl,hl
 4461+7C30 19                 add   hl,de
 4462+7C31 11 05 B5           ld    de,_MAPDELY
 4463+7C34 19                 add   hl,de
 4464+7C35 22 F0 AF           ld    (addr_arraybyte_index111),hl
 4465+7C38 23                 inc   hl
 4466+7C39 36 01              ld    (hl),1
 4467+7C3B 2A F0 AF           ld    hl,(addr_arraybyte_index111)
 4468+7C3E 11 02 00           ld    de,2
 4469+7C41 19                 add   hl,de
 4470+7C42 36 01              ld    (hl),1
 4471+7C44 2A F0 AF           ld    hl,(addr_arraybyte_index111)
 4472+7C47 11 03 00           ld    de,3
 4473+7C4A 19                 add   hl,de
 4474+7C4B 36 01              ld    (hl),1
 4475+7C4D              L283
 4476+7C4D              L285
 4477+7C4D              L280
 4478+7C4D              L282
 4479+7C4D 3A 5A B0           ld    a,(_X)
 4480+7C50 6F                 ld    l,a
 4481+7C51 26 00              ld    h,0
 4482+7C53 2B                 dec   hl
 4483+7C54 29                 add   hl,hl
 4484+7C55 54                 ld    d,h
 4485+7C56 5D                 ld    e,l
 4486+7C57 29                 add   hl,hl
 4487+7C58 19                 add   hl,de
 4488+7C59 11 BD B4           ld    de,_MAPBLOCK
 4489+7C5C 19                 add   hl,de
 4490+7C5D 11 02 00           ld    de,2
 4491+7C60 19                 add   hl,de
 4492+7C61 6E                 ld    l,(hl)
 4493+7C62 26 00              ld    h,0
 4494+7C64 7D                 ld    a,l
 4495+7C65 32 60 B0           ld    (_Z),a
 4496+7C68 11 00 00           ld    de,0
 4497+7C6B EB                 ex    de,hl
 4498+7C6C A7                 and   a
 4499+7C6D ED 52              sbc   hl,de
 4500+7C6F D2 17 7D           jp    nc,L286
 4501+7C72 3A 5A B0           ld    a,(_X)
 4502+7C75 6F                 ld    l,a
 4503+7C76 26 00              ld    h,0
 4504+7C78 2B                 dec   hl
 4505+7C79 29                 add   hl,hl
 4506+7C7A 54                 ld    d,h
 4507+7C7B 5D                 ld    e,l
 4508+7C7C 29                 add   hl,hl
 4509+7C7D 19                 add   hl,de
 4510+7C7E 11 05 B5           ld    de,_MAPDELY
 4511+7C81 19                 add   hl,de
 4512+7C82 11 02 00           ld    de,2
 4513+7C85 19                 add   hl,de
 4514+7C86 AF                 xor   a
 4515+7C87 BE                 cp    (hl)
 4516+7C88 C2 17 7D           jp    nz,L286
 4517+7C8B              L287
 4518+7C8B 3A 60 B0           ld    a,(_Z)
 4519+7C8E 6F                 ld    l,a
 4520+7C8F 26 00              ld    h,0
 4521+7C91 E5                 push  hl
 4522+7C92 3A 5A B0           ld    a,(_X)
 4523+7C95 6F                 ld    l,a
 4524+7C96 26 00              ld    h,0
 4525+7C98 2B                 dec   hl
 4526+7C99 29                 add   hl,hl
 4527+7C9A 54                 ld    d,h
 4528+7C9B 5D                 ld    e,l
 4529+7C9C 29                 add   hl,hl
 4530+7C9D 19                 add   hl,de
 4531+7C9E 11 BD B4           ld    de,_MAPBLOCK
 4532+7CA1 19                 add   hl,de
 4533+7CA2 22 F0 AF           ld    (addr_arraybyte_index111),hl
 4534+7CA5 11 03 00           ld    de,3
 4535+7CA8 19                 add   hl,de
 4536+7CA9 6E                 ld    l,(hl)
 4537+7CAA 26 00              ld    h,0
 4538+7CAC D1                 pop   de
 4539+7CAD A7                 and   a
 4540+7CAE ED 52              sbc   hl,de
 4541+7CB0 C2 17 7D           jp    nz,L289
 4542+7CB3 3A 60 B0           ld    a,(_Z)
 4543+7CB6 6F                 ld    l,a
 4544+7CB7 26 00              ld    h,0
 4545+7CB9 E5                 push  hl
 4546+7CBA 2A F0 AF           ld    hl,(addr_arraybyte_index111)
 4547+7CBD 11 04 00           ld    de,4
 4548+7CC0 19                 add   hl,de
 4549+7CC1 6E                 ld    l,(hl)
 4550+7CC2 26 00              ld    h,0
 4551+7CC4 D1                 pop   de
 4552+7CC5 A7                 and   a
 4553+7CC6 ED 52              sbc   hl,de
 4554+7CC8 C2 17 7D           jp    nz,L289
 4555+7CCB 3A 60 B0           ld    a,(_Z)
 4556+7CCE 6F                 ld    l,a
 4557+7CCF 26 00              ld    h,0
 4558+7CD1 E5                 push  hl
 4559+7CD2 2A F0 AF           ld    hl,(addr_arraybyte_index111)
 4560+7CD5 11 05 00           ld    de,5
 4561+7CD8 19                 add   hl,de
 4562+7CD9 6E                 ld    l,(hl)
 4563+7CDA 26 00              ld    h,0
 4564+7CDC D1                 pop   de
 4565+7CDD A7                 and   a
 4566+7CDE ED 52              sbc   hl,de
 4567+7CE0 C2 17 7D           jp    nz,L289
 4568+7CE3              L290
 4569+7CE3 3A 5A B0           ld    a,(_X)
 4570+7CE6 6F                 ld    l,a
 4571+7CE7 26 00              ld    h,0
 4572+7CE9 2B                 dec   hl
 4573+7CEA 29                 add   hl,hl
 4574+7CEB 54                 ld    d,h
 4575+7CEC 5D                 ld    e,l
 4576+7CED 29                 add   hl,hl
 4577+7CEE 19                 add   hl,de
 4578+7CEF 11 05 B5           ld    de,_MAPDELY
 4579+7CF2 19                 add   hl,de
 4580+7CF3 22 F0 AF           ld    (addr_arraybyte_index111),hl
 4581+7CF6 11 02 00           ld    de,2
 4582+7CF9 19                 add   hl,de
 4583+7CFA 36 01              ld    (hl),1
 4584+7CFC 2A F0 AF           ld    hl,(addr_arraybyte_index111)
 4585+7CFF 11 03 00           ld    de,3
 4586+7D02 19                 add   hl,de
 4587+7D03 36 01              ld    (hl),1
 4588+7D05 2A F0 AF           ld    hl,(addr_arraybyte_index111)
 4589+7D08 11 04 00           ld    de,4
 4590+7D0B 19                 add   hl,de
 4591+7D0C 36 01              ld    (hl),1
 4592+7D0E 2A F0 AF           ld    hl,(addr_arraybyte_index111)
 4593+7D11 11 05 00           ld    de,5
 4594+7D14 19                 add   hl,de
 4595+7D15 36 01              ld    (hl),1
 4596+7D17              L289
 4597+7D17              L291
 4598+7D17              L286
 4599+7D17              L288
 4600+7D17 AF                 xor   a
 4601+7D18 21 60 B0           ld    hl,_Z
 4602+7D1B BE                 cp    (hl)
 4603+7D1C D2 A3 7D           jp    nc,L292
 4604+7D1F 3A 5A B0           ld    a,(_X)
 4605+7D22 6F                 ld    l,a
 4606+7D23 26 00              ld    h,0
 4607+7D25 2B                 dec   hl
 4608+7D26 29                 add   hl,hl
 4609+7D27 54                 ld    d,h
 4610+7D28 5D                 ld    e,l
 4611+7D29 29                 add   hl,hl
 4612+7D2A 19                 add   hl,de
 4613+7D2B 11 05 B5           ld    de,_MAPDELY
 4614+7D2E 19                 add   hl,de
 4615+7D2F 11 02 00           ld    de,2
 4616+7D32 19                 add   hl,de
 4617+7D33 AF                 xor   a
 4618+7D34 BE                 cp    (hl)
 4619+7D35 C2 A3 7D           jp    nz,L292
 4620+7D38              L293
 4621+7D38 3A 60 B0           ld    a,(_Z)
 4622+7D3B 6F                 ld    l,a
 4623+7D3C 26 00              ld    h,0
 4624+7D3E E5                 push  hl
 4625+7D3F 3A 5A B0           ld    a,(_X)
 4626+7D42 6F                 ld    l,a
 4627+7D43 26 00              ld    h,0
 4628+7D45 2B                 dec   hl
 4629+7D46 29                 add   hl,hl
 4630+7D47 54                 ld    d,h
 4631+7D48 5D                 ld    e,l
 4632+7D49 29                 add   hl,hl
 4633+7D4A 19                 add   hl,de
 4634+7D4B 11 BD B4           ld    de,_MAPBLOCK
 4635+7D4E 19                 add   hl,de
 4636+7D4F 22 F0 AF           ld    (addr_arraybyte_index111),hl
 4637+7D52 11 03 00           ld    de,3
 4638+7D55 19                 add   hl,de
 4639+7D56 6E                 ld    l,(hl)
 4640+7D57 26 00              ld    h,0
 4641+7D59 D1                 pop   de
 4642+7D5A A7                 and   a
 4643+7D5B ED 52              sbc   hl,de
 4644+7D5D C2 A3 7D           jp    nz,L295
 4645+7D60 3A 60 B0           ld    a,(_Z)
 4646+7D63 6F                 ld    l,a
 4647+7D64 26 00              ld    h,0
 4648+7D66 E5                 push  hl
 4649+7D67 2A F0 AF           ld    hl,(addr_arraybyte_index111)
 4650+7D6A 11 04 00           ld    de,4
 4651+7D6D 19                 add   hl,de
 4652+7D6E 6E                 ld    l,(hl)
 4653+7D6F 26 00              ld    h,0
 4654+7D71 D1                 pop   de
 4655+7D72 A7                 and   a
 4656+7D73 ED 52              sbc   hl,de
 4657+7D75 C2 A3 7D           jp    nz,L295
 4658+7D78              L296
 4659+7D78 3A 5A B0           ld    a,(_X)
 4660+7D7B 6F                 ld    l,a
 4661+7D7C 26 00              ld    h,0
 4662+7D7E 2B                 dec   hl
 4663+7D7F 29                 add   hl,hl
 4664+7D80 54                 ld    d,h
 4665+7D81 5D                 ld    e,l
 4666+7D82 29                 add   hl,hl
 4667+7D83 19                 add   hl,de
 4668+7D84 11 05 B5           ld    de,_MAPDELY
 4669+7D87 19                 add   hl,de
 4670+7D88 22 F0 AF           ld    (addr_arraybyte_index111),hl
 4671+7D8B 11 02 00           ld    de,2
 4672+7D8E 19                 add   hl,de
 4673+7D8F 36 01              ld    (hl),1
 4674+7D91 2A F0 AF           ld    hl,(addr_arraybyte_index111)
 4675+7D94 11 03 00           ld    de,3
 4676+7D97 19                 add   hl,de
 4677+7D98 36 01              ld    (hl),1
 4678+7D9A 2A F0 AF           ld    hl,(addr_arraybyte_index111)
 4679+7D9D 11 04 00           ld    de,4
 4680+7DA0 19                 add   hl,de
 4681+7DA1 36 01              ld    (hl),1
 4682+7DA3              L295
 4683+7DA3              L297
 4684+7DA3              L292
 4685+7DA3              L294
 4686+7DA3 3A 5A B0           ld    a,(_X)
 4687+7DA6 6F                 ld    l,a
 4688+7DA7 26 00              ld    h,0
 4689+7DA9 2B                 dec   hl
 4690+7DAA 29                 add   hl,hl
 4691+7DAB 54                 ld    d,h
 4692+7DAC 5D                 ld    e,l
 4693+7DAD 29                 add   hl,hl
 4694+7DAE 19                 add   hl,de
 4695+7DAF 11 BD B4           ld    de,_MAPBLOCK
 4696+7DB2 19                 add   hl,de
 4697+7DB3 11 03 00           ld    de,3
 4698+7DB6 19                 add   hl,de
 4699+7DB7 6E                 ld    l,(hl)
 4700+7DB8 26 00              ld    h,0
 4701+7DBA 7D                 ld    a,l
 4702+7DBB 32 60 B0           ld    (_Z),a
 4703+7DBE 11 00 00           ld    de,0
 4704+7DC1 EB                 ex    de,hl
 4705+7DC2 A7                 and   a
 4706+7DC3 ED 52              sbc   hl,de
 4707+7DC5 D2 4C 7E           jp    nc,L298
 4708+7DC8 3A 5A B0           ld    a,(_X)
 4709+7DCB 6F                 ld    l,a
 4710+7DCC 26 00              ld    h,0
 4711+7DCE 2B                 dec   hl
 4712+7DCF 29                 add   hl,hl
 4713+7DD0 54                 ld    d,h
 4714+7DD1 5D                 ld    e,l
 4715+7DD2 29                 add   hl,hl
 4716+7DD3 19                 add   hl,de
 4717+7DD4 11 05 B5           ld    de,_MAPDELY
 4718+7DD7 19                 add   hl,de
 4719+7DD8 11 03 00           ld    de,3
 4720+7DDB 19                 add   hl,de
 4721+7DDC AF                 xor   a
 4722+7DDD BE                 cp    (hl)
 4723+7DDE C2 4C 7E           jp    nz,L298
 4724+7DE1              L299
 4725+7DE1 3A 60 B0           ld    a,(_Z)
 4726+7DE4 6F                 ld    l,a
 4727+7DE5 26 00              ld    h,0
 4728+7DE7 E5                 push  hl
 4729+7DE8 3A 5A B0           ld    a,(_X)
 4730+7DEB 6F                 ld    l,a
 4731+7DEC 26 00              ld    h,0
 4732+7DEE 2B                 dec   hl
 4733+7DEF 29                 add   hl,hl
 4734+7DF0 54                 ld    d,h
 4735+7DF1 5D                 ld    e,l
 4736+7DF2 29                 add   hl,hl
 4737+7DF3 19                 add   hl,de
 4738+7DF4 11 BD B4           ld    de,_MAPBLOCK
 4739+7DF7 19                 add   hl,de
 4740+7DF8 22 F0 AF           ld    (addr_arraybyte_index111),hl
 4741+7DFB 11 04 00           ld    de,4
 4742+7DFE 19                 add   hl,de
 4743+7DFF 6E                 ld    l,(hl)
 4744+7E00 26 00              ld    h,0
 4745+7E02 D1                 pop   de
 4746+7E03 A7                 and   a
 4747+7E04 ED 52              sbc   hl,de
 4748+7E06 C2 4C 7E           jp    nz,L301
 4749+7E09 3A 60 B0           ld    a,(_Z)
 4750+7E0C 6F                 ld    l,a
 4751+7E0D 26 00              ld    h,0
 4752+7E0F E5                 push  hl
 4753+7E10 2A F0 AF           ld    hl,(addr_arraybyte_index111)
 4754+7E13 11 05 00           ld    de,5
 4755+7E16 19                 add   hl,de
 4756+7E17 6E                 ld    l,(hl)
 4757+7E18 26 00              ld    h,0
 4758+7E1A D1                 pop   de
 4759+7E1B A7                 and   a
 4760+7E1C ED 52              sbc   hl,de
 4761+7E1E C2 4C 7E           jp    nz,L301
 4762+7E21              L302
 4763+7E21 3A 5A B0           ld    a,(_X)
 4764+7E24 6F                 ld    l,a
 4765+7E25 26 00              ld    h,0
 4766+7E27 2B                 dec   hl
 4767+7E28 29                 add   hl,hl
 4768+7E29 54                 ld    d,h
 4769+7E2A 5D                 ld    e,l
 4770+7E2B 29                 add   hl,hl
 4771+7E2C 19                 add   hl,de
 4772+7E2D 11 05 B5           ld    de,_MAPDELY
 4773+7E30 19                 add   hl,de
 4774+7E31 22 F0 AF           ld    (addr_arraybyte_index111),hl
 4775+7E34 11 03 00           ld    de,3
 4776+7E37 19                 add   hl,de
 4777+7E38 36 01              ld    (hl),1
 4778+7E3A 2A F0 AF           ld    hl,(addr_arraybyte_index111)
 4779+7E3D 11 04 00           ld    de,4
 4780+7E40 19                 add   hl,de
 4781+7E41 36 01              ld    (hl),1
 4782+7E43 2A F0 AF           ld    hl,(addr_arraybyte_index111)
 4783+7E46 11 05 00           ld    de,5
 4784+7E49 19                 add   hl,de
 4785+7E4A 36 01              ld    (hl),1
 4786+7E4C              L301
 4787+7E4C              L303
 4788+7E4C              L298
 4789+7E4C              L300
 4790+7E4C 3A 53 B5           ld    a,(Lim_X)
 4791+7E4F 21 5A B0           ld    hl,_X
 4792+7E52 BE                 cp    (hl)
 4793+7E53 CA 5D 7E           jp    z,L243
 4794+7E56 21 5A B0           ld    hl,_X
 4795+7E59 34                 inc   (hl)
 4796+7E5A C3 73 77           jp    L242
 4797+7E5D              L243
 4798+7E5D 3E 01              ld    a,1
 4799+7E5F 32 5E B0           ld    (_A),a
 4800+7E62 3E 06              ld    a,6
 4801+7E64 32 58 B5           ld    (Lim_A),a
 4802+7E67              L304
 4803+7E67 3E 01              ld    a,1
 4804+7E69 32 5F B0           ld    (_B),a
 4805+7E6C 3E 06              ld    a,6
 4806+7E6E 32 59 B5           ld    (Lim_B),a
 4807+7E71              L306
 4808+7E71 3A 5E B0           ld    a,(_A)
 4809+7E74 6F                 ld    l,a
 4810+7E75 26 00              ld    h,0
 4811+7E77 2B                 dec   hl
 4812+7E78 29                 add   hl,hl
 4813+7E79 54                 ld    d,h
 4814+7E7A 5D                 ld    e,l
 4815+7E7B 29                 add   hl,hl
 4816+7E7C 19                 add   hl,de
 4817+7E7D 11 29 B5           ld    de,_MAPDEL
 4818+7E80 19                 add   hl,de
 4819+7E81 E5                 push  hl
 4820+7E82 3A 5F B0           ld    a,(_B)
 4821+7E85 6F                 ld    l,a
 4822+7E86 26 00              ld    h,0
 4823+7E88 2B                 dec   hl
 4824+7E89 D1                 pop   de
 4825+7E8A 19                 add   hl,de
 4826+7E8B E5                 push  hl
 4827+7E8C 3A 5E B0           ld    a,(_A)
 4828+7E8F 6F                 ld    l,a
 4829+7E90 26 00              ld    h,0
 4830+7E92 2B                 dec   hl
 4831+7E93 29                 add   hl,hl
 4832+7E94 54                 ld    d,h
 4833+7E95 5D                 ld    e,l
 4834+7E96 29                 add   hl,hl
 4835+7E97 19                 add   hl,de
 4836+7E98 11 E1 B4           ld    de,_MAPDELX
 4837+7E9B 19                 add   hl,de
 4838+7E9C E5                 push  hl
 4839+7E9D 3A 5F B0           ld    a,(_B)
 4840+7EA0 6F                 ld    l,a
 4841+7EA1 26 00              ld    h,0
 4842+7EA3 2B                 dec   hl
 4843+7EA4 D1                 pop   de
 4844+7EA5 19                 add   hl,de
 4845+7EA6 6E                 ld    l,(hl)
 4846+7EA7 26 00              ld    h,0
 4847+7EA9 E5                 push  hl
 4848+7EAA 3A 5E B0           ld    a,(_A)
 4849+7EAD 6F                 ld    l,a
 4850+7EAE 26 00              ld    h,0
 4851+7EB0 2B                 dec   hl
 4852+7EB1 29                 add   hl,hl
 4853+7EB2 54                 ld    d,h
 4854+7EB3 5D                 ld    e,l
 4855+7EB4 29                 add   hl,hl
 4856+7EB5 19                 add   hl,de
 4857+7EB6 11 05 B5           ld    de,_MAPDELY
 4858+7EB9 19                 add   hl,de
 4859+7EBA E5                 push  hl
 4860+7EBB 3A 5F B0           ld    a,(_B)
 4861+7EBE 6F                 ld    l,a
 4862+7EBF 26 00              ld    h,0
 4863+7EC1 2B                 dec   hl
 4864+7EC2 D1                 pop   de
 4865+7EC3 19                 add   hl,de
 4866+7EC4 6E                 ld    l,(hl)
 4867+7EC5 26 00              ld    h,0
 4868+7EC7 D1                 pop   de
 4869+7EC8 19                 add   hl,de
 4870+7EC9 D1                 pop   de
 4871+7ECA 7D                 ld    a,l
 4872+7ECB 12                 ld    (de),a
 4873+7ECC 3A 5E B0           ld    a,(_A)
 4874+7ECF 6F                 ld    l,a
 4875+7ED0 26 00              ld    h,0
 4876+7ED2 2B                 dec   hl
 4877+7ED3 29                 add   hl,hl
 4878+7ED4 54                 ld    d,h
 4879+7ED5 5D                 ld    e,l
 4880+7ED6 29                 add   hl,hl
 4881+7ED7 19                 add   hl,de
 4882+7ED8 11 29 B5           ld    de,_MAPDEL
 4883+7EDB 19                 add   hl,de
 4884+7EDC E5                 push  hl
 4885+7EDD 3A 5F B0           ld    a,(_B)
 4886+7EE0 6F                 ld    l,a
 4887+7EE1 26 00              ld    h,0
 4888+7EE3 2B                 dec   hl
 4889+7EE4 D1                 pop   de
 4890+7EE5 19                 add   hl,de
 4891+7EE6 22 EA AF           ld    (addr_arraybyte_index),hl
 4892+7EE9 3E 02              ld    a,2
 4893+7EEB BE                 cp    (hl)
 4894+7EEC C2 F4 7E           jp    nz,L308
 4895+7EEF              L309
 4896+7EEF 2A EA AF           ld    hl,(addr_arraybyte_index)
 4897+7EF2 36 01              ld    (hl),1
 4898+7EF4              L308
 4899+7EF4              L310
 4900+7EF4 3A 59 B5           ld    a,(Lim_B)
 4901+7EF7 21 5F B0           ld    hl,_B
 4902+7EFA BE                 cp    (hl)
 4903+7EFB CA 05 7F           jp    z,L307
 4904+7EFE 21 5F B0           ld    hl,_B
 4905+7F01 34                 inc   (hl)
 4906+7F02 C3 71 7E           jp    L306
 4907+7F05              L307
 4908+7F05 3A 58 B5           ld    a,(Lim_A)
 4909+7F08 21 5E B0           ld    hl,_A
 4910+7F0B BE                 cp    (hl)
 4911+7F0C CA 16 7F           jp    z,L305
 4912+7F0F 21 5E B0           ld    hl,_A
 4913+7F12 34                 inc   (hl)
 4914+7F13 C3 67 7E           jp    L304
 4915+7F16              L305
 4916+7F16 3E 06              ld    a,6
 4917+7F18 21 65 B0           ld    hl,_LEVEL
 4918+7F1B BE                 cp    (hl)
 4919+7F1C C2 A4 80           jp    nz,L311
 4920+7F1F              L312
 4921+7F1F 3E 01              ld    a,1
 4922+7F21 32 5E B0           ld    (_A),a
 4923+7F24 3E 06              ld    a,6
 4924+7F26 32 58 B5           ld    (Lim_A),a
 4925+7F29              L314
 4926+7F29 3E 01              ld    a,1
 4927+7F2B 32 5F B0           ld    (_B),a
 4928+7F2E 3E 06              ld    a,6
 4929+7F30 32 59 B5           ld    (Lim_B),a
 4930+7F33              L316
 4931+7F33 3A 5E B0           ld    a,(_A)
 4932+7F36 6F                 ld    l,a
 4933+7F37 26 00              ld    h,0
 4934+7F39 2B                 dec   hl
 4935+7F3A 29                 add   hl,hl
 4936+7F3B 54                 ld    d,h
 4937+7F3C 5D                 ld    e,l
 4938+7F3D 29                 add   hl,hl
 4939+7F3E 19                 add   hl,de
 4940+7F3F 11 BD B4           ld    de,_MAPBLOCK
 4941+7F42 19                 add   hl,de
 4942+7F43 E5                 push  hl
 4943+7F44 3A 5F B0           ld    a,(_B)
 4944+7F47 6F                 ld    l,a
 4945+7F48 26 00              ld    h,0
 4946+7F4A 2B                 dec   hl
 4947+7F4B D1                 pop   de
 4948+7F4C 19                 add   hl,de
 4949+7F4D 3E 07              ld    a,7
 4950+7F4F BE                 cp    (hl)
 4951+7F50 C2 82 80           jp    nz,L318
 4952+7F53              L319
 4953+7F53 3A 63 B0           ld    a,(_SEVENFLAG)
 4954+7F56 32 5A B5           ld    (_L321),a
 4955+7F59 FE 01              cp    1
 4956+7F5B CA 61 7F           jp    z,L324
 4957+7F5E C3 A6 7F           jp    L325
 4958+7F61              L324
 4959+7F61 3A 5E B0           ld    a,(_A)
 4960+7F64 6F                 ld    l,a
 4961+7F65 26 00              ld    h,0
 4962+7F67 2B                 dec   hl
 4963+7F68 29                 add   hl,hl
 4964+7F69 54                 ld    d,h
 4965+7F6A 5D                 ld    e,l
 4966+7F6B 29                 add   hl,hl
 4967+7F6C 19                 add   hl,de
 4968+7F6D 11 29 B5           ld    de,_MAPDEL
 4969+7F70 19                 add   hl,de
 4970+7F71 E5                 push  hl
 4971+7F72 3A 5F B0           ld    a,(_B)
 4972+7F75 6F                 ld    l,a
 4973+7F76 26 00              ld    h,0
 4974+7F78 2B                 dec   hl
 4975+7F79 D1                 pop   de
 4976+7F7A 19                 add   hl,de
 4977+7F7B 36 01              ld    (hl),1
 4978+7F7D 3E 01              ld    a,1
 4979+7F7F 21 5E B0           ld    hl,_A
 4980+7F82 BE                 cp    (hl)
 4981+7F83 D2 A3 7F           jp    nc,L326
 4982+7F86              L327
 4983+7F86 3A 5E B0           ld    a,(_A)
 4984+7F89 6F                 ld    l,a
 4985+7F8A 26 00              ld    h,0
 4986+7F8C 2B                 dec   hl
 4987+7F8D 2B                 dec   hl
 4988+7F8E 29                 add   hl,hl
 4989+7F8F 54                 ld    d,h
 4990+7F90 5D                 ld    e,l
 4991+7F91 29                 add   hl,hl
 4992+7F92 19                 add   hl,de
 4993+7F93 11 29 B5           ld    de,_MAPDEL
 4994+7F96 19                 add   hl,de
 4995+7F97 E5                 push  hl
 4996+7F98 3A 5F B0           ld    a,(_B)
 4997+7F9B 6F                 ld    l,a
 4998+7F9C 26 00              ld    h,0
 4999+7F9E 2B                 dec   hl
 5000+7F9F D1                 pop   de
 5001+7FA0 19                 add   hl,de
 5002+7FA1 36 01              ld    (hl),1
 5003+7FA3              L326
 5004+7FA3              L328
 5005+7FA3 C3 82 80           jp    L322
 5006+7FA6              L325
 5007+7FA6 3A 5A B5           ld    a,(_L321)
 5008+7FA9 FE 02              cp    2
 5009+7FAB CA B1 7F           jp    z,L329
 5010+7FAE C3 F7 7F           jp    L330
 5011+7FB1              L329
 5012+7FB1 3A 5E B0           ld    a,(_A)
 5013+7FB4 6F                 ld    l,a
 5014+7FB5 26 00              ld    h,0
 5015+7FB7 2B                 dec   hl
 5016+7FB8 29                 add   hl,hl
 5017+7FB9 54                 ld    d,h
 5018+7FBA 5D                 ld    e,l
 5019+7FBB 29                 add   hl,hl
 5020+7FBC 19                 add   hl,de
 5021+7FBD 11 29 B5           ld    de,_MAPDEL
 5022+7FC0 19                 add   hl,de
 5023+7FC1 E5                 push  hl
 5024+7FC2 3A 5F B0           ld    a,(_B)
 5025+7FC5 6F                 ld    l,a
 5026+7FC6 26 00              ld    h,0
 5027+7FC8 2B                 dec   hl
 5028+7FC9 D1                 pop   de
 5029+7FCA 19                 add   hl,de
 5030+7FCB 36 01              ld    (hl),1
 5031+7FCD 3E 06              ld    a,6
 5032+7FCF 21 5E B0           ld    hl,_A
 5033+7FD2 BE                 cp    (hl)
 5034+7FD3 CA F4 7F           jp    z,L331
 5035+7FD6 DA F4 7F           jp    c,L331
 5036+7FD9              L332
 5037+7FD9 3A 5E B0           ld    a,(_A)
 5038+7FDC 6F                 ld    l,a
 5039+7FDD 26 00              ld    h,0
 5040+7FDF 29                 add   hl,hl
 5041+7FE0 54                 ld    d,h
 5042+7FE1 5D                 ld    e,l
 5043+7FE2 29                 add   hl,hl
 5044+7FE3 19                 add   hl,de
 5045+7FE4 11 29 B5           ld    de,_MAPDEL
 5046+7FE7 19                 add   hl,de
 5047+7FE8 E5                 push  hl
 5048+7FE9 3A 5F B0           ld    a,(_B)
 5049+7FEC 6F                 ld    l,a
 5050+7FED 26 00              ld    h,0
 5051+7FEF 2B                 dec   hl
 5052+7FF0 D1                 pop   de
 5053+7FF1 19                 add   hl,de
 5054+7FF2 36 01              ld    (hl),1
 5055+7FF4              L331
 5056+7FF4              L333
 5057+7FF4 C3 82 80           jp    L322
 5058+7FF7              L330
 5059+7FF7 3A 5A B5           ld    a,(_L321)
 5060+7FFA FE 03              cp    3
 5061+7FFC CA 02 80           jp    z,L334
 5062+7FFF C3 3D 80           jp    L335
 5063+8002              L334
 5064+8002 3A 5E B0           ld    a,(_A)
 5065+8005 6F                 ld    l,a
 5066+8006 26 00              ld    h,0
 5067+8008 2B                 dec   hl
 5068+8009 29                 add   hl,hl
 5069+800A 54                 ld    d,h
 5070+800B 5D                 ld    e,l
 5071+800C 29                 add   hl,hl
 5072+800D 19                 add   hl,de
 5073+800E 11 29 B5           ld    de,_MAPDEL
 5074+8011 19                 add   hl,de
 5075+8012 22 F0 AF           ld    (addr_arraybyte_index111),hl
 5076+8015 E5                 push  hl
 5077+8016 3A 5F B0           ld    a,(_B)
 5078+8019 6F                 ld    l,a
 5079+801A 26 00              ld    h,0
 5080+801C 2B                 dec   hl
 5081+801D D1                 pop   de
 5082+801E 19                 add   hl,de
 5083+801F 36 01              ld    (hl),1
 5084+8021 3E 01              ld    a,1
 5085+8023 21 5F B0           ld    hl,_B
 5086+8026 BE                 cp    (hl)
 5087+8027 D2 3A 80           jp    nc,L336
 5088+802A              L337
 5089+802A 2A F0 AF           ld    hl,(addr_arraybyte_index111)
 5090+802D E5                 push  hl
 5091+802E 3A 5F B0           ld    a,(_B)
 5092+8031 6F                 ld    l,a
 5093+8032 26 00              ld    h,0
 5094+8034 2B                 dec   hl
 5095+8035 2B                 dec   hl
 5096+8036 D1                 pop   de
 5097+8037 19                 add   hl,de
 5098+8038 36 01              ld    (hl),1
 5099+803A              L336
 5100+803A              L338
 5101+803A C3 82 80           jp    L322
 5102+803D              L335
 5103+803D 3A 5A B5           ld    a,(_L321)
 5104+8040 FE 04              cp    4
 5105+8042 CA 48 80           jp    z,L339
 5106+8045 C3 82 80           jp    L340
 5107+8048              L339
 5108+8048 3A 5E B0           ld    a,(_A)
 5109+804B 6F                 ld    l,a
 5110+804C 26 00              ld    h,0
 5111+804E 2B                 dec   hl
 5112+804F 29                 add   hl,hl
 5113+8050 54                 ld    d,h
 5114+8051 5D                 ld    e,l
 5115+8052 29                 add   hl,hl
 5116+8053 19                 add   hl,de
 5117+8054 11 29 B5           ld    de,_MAPDEL
 5118+8057 19                 add   hl,de
 5119+8058 22 F0 AF           ld    (addr_arraybyte_index111),hl
 5120+805B E5                 push  hl
 5121+805C 3A 5F B0           ld    a,(_B)
 5122+805F 6F                 ld    l,a
 5123+8060 26 00              ld    h,0
 5124+8062 2B                 dec   hl
 5125+8063 D1                 pop   de
 5126+8064 19                 add   hl,de
 5127+8065 36 01              ld    (hl),1
 5128+8067 3E 06              ld    a,6
 5129+8069 21 5F B0           ld    hl,_B
 5130+806C BE                 cp    (hl)
 5131+806D CA 7F 80           jp    z,L341
 5132+8070 DA 7F 80           jp    c,L341
 5133+8073              L342
 5134+8073 2A F0 AF           ld    hl,(addr_arraybyte_index111)
 5135+8076 3A 5F B0           ld    a,(_B)
 5136+8079 5F                 ld    e,a
 5137+807A 16 00              ld    d,0
 5138+807C 19                 add   hl,de
 5139+807D 36 01              ld    (hl),1
 5140+807F              L341
 5141+807F              L343
 5142+807F C3 82 80           jp    L322
 5143+8082              L340
 5144+8082              L322
 5145+8082              L318
 5146+8082              L320
 5147+8082 3A 59 B5           ld    a,(Lim_B)
 5148+8085 21 5F B0           ld    hl,_B
 5149+8088 BE                 cp    (hl)
 5150+8089 CA 93 80           jp    z,L317
 5151+808C 21 5F B0           ld    hl,_B
 5152+808F 34                 inc   (hl)
 5153+8090 C3 33 7F           jp    L316
 5154+8093              L317
 5155+8093 3A 58 B5           ld    a,(Lim_A)
 5156+8096 21 5E B0           ld    hl,_A
 5157+8099 BE                 cp    (hl)
 5158+809A CA A4 80           jp    z,L315
 5159+809D 21 5E B0           ld    hl,_A
 5160+80A0 34                 inc   (hl)
 5161+80A1 C3 29 7F           jp    L314
 5162+80A4              L315
 5163+80A4              L311
 5164+80A4              L313
 5165+80A4 AF                 xor   a
 5166+80A5 32 62 B0           ld    (_S),a
 5167+80A8 3E 01              ld    a,1
 5168+80AA 32 5E B0           ld    (_A),a
 5169+80AD 3E 06              ld    a,6
 5170+80AF 32 58 B5           ld    (Lim_A),a
 5171+80B2              L344
 5172+80B2 3E 01              ld    a,1
 5173+80B4 32 5F B0           ld    (_B),a
 5174+80B7 3E 06              ld    a,6
 5175+80B9 32 59 B5           ld    (Lim_B),a
 5176+80BC              L346
 5177+80BC 3A 5E B0           ld    a,(_A)
 5178+80BF 6F                 ld    l,a
 5179+80C0 26 00              ld    h,0
 5180+80C2 2B                 dec   hl
 5181+80C3 29                 add   hl,hl
 5182+80C4 54                 ld    d,h
 5183+80C5 5D                 ld    e,l
 5184+80C6 29                 add   hl,hl
 5185+80C7 19                 add   hl,de
 5186+80C8 11 29 B5           ld    de,_MAPDEL
 5187+80CB 19                 add   hl,de
 5188+80CC E5                 push  hl
 5189+80CD 3A 5F B0           ld    a,(_B)
 5190+80D0 6F                 ld    l,a
 5191+80D1 26 00              ld    h,0
 5192+80D3 2B                 dec   hl
 5193+80D4 D1                 pop   de
 5194+80D5 19                 add   hl,de
 5195+80D6 3E 01              ld    a,1
 5196+80D8 BE                 cp    (hl)
 5197+80D9 C2 A4 82           jp    nz,L348
 5198+80DC              L349
 5199+80DC 3A 5E B0           ld    a,(_A)
 5200+80DF 6F                 ld    l,a
 5201+80E0 26 00              ld    h,0
 5202+80E2 2B                 dec   hl
 5203+80E3 29                 add   hl,hl
 5204+80E4 54                 ld    d,h
 5205+80E5 5D                 ld    e,l
 5206+80E6 29                 add   hl,hl
 5207+80E7 19                 add   hl,de
 5208+80E8 11 BD B4           ld    de,_MAPBLOCK
 5209+80EB 19                 add   hl,de
 5210+80EC E5                 push  hl
 5211+80ED 3A 5F B0           ld    a,(_B)
 5212+80F0 6F                 ld    l,a
 5213+80F1 26 00              ld    h,0
 5214+80F3 2B                 dec   hl
 5215+80F4 D1                 pop   de
 5216+80F5 19                 add   hl,de
 5217+80F6 6E                 ld    l,(hl)
 5218+80F7 26 00              ld    h,0
 5219+80F9 7D                 ld    a,l
 5220+80FA 32 5B B5           ld    (_L351),a
 5221+80FD FE 01              cp    1
 5222+80FF CA 05 81           jp    z,L354
 5223+8102 C3 31 81           jp    L355
 5224+8105              L354
 5225+8105 21 12 C6           ld    hl,SPRBLOCK1
 5226+8108 E5                 push  hl
 5227+8109 21 41 00           ld    hl,65
 5228+810C 7D                 ld    a,l
 5229+810D 32 F8 AF           ld    (attr_sprite),a
 5230+8110 3A 5E B0           ld    a,(_A)
 5231+8113 6F                 ld    l,a
 5232+8114 26 00              ld    h,0
 5233+8116 54                 ld    d,h
 5234+8117 5D                 ld    e,l
 5235+8118 29                 add   hl,hl
 5236+8119 19                 add   hl,de
 5237+811A 2B                 dec   hl
 5238+811B E5                 push  hl
 5239+811C 3A 5F B0           ld    a,(_B)
 5240+811F 6F                 ld    l,a
 5241+8120 26 00              ld    h,0
 5242+8122 54                 ld    d,h
 5243+8123 5D                 ld    e,l
 5244+8124 29                 add   hl,hl
 5245+8125 19                 add   hl,de
 5246+8126 2B                 dec   hl
 5247+8127 55                 ld    d,l
 5248+8128 E1                 pop   hl
 5249+8129 5D                 ld    e,l
 5250+812A E1                 pop   hl
 5251+812B CD DA A4           call  put_spr_put
 5252+812E C3 7B 82           jp    L352
 5253+8131              L355
 5254+8131 3A 5B B5           ld    a,(_L351)
 5255+8134 FE 02              cp    2
 5256+8136 CA 3C 81           jp    z,L356
 5257+8139 C3 68 81           jp    L357
 5258+813C              L356
 5259+813C 21 6D C6           ld    hl,SPRBLOCK2
 5260+813F E5                 push  hl
 5261+8140 21 42 00           ld    hl,66
 5262+8143 7D                 ld    a,l
 5263+8144 32 F8 AF           ld    (attr_sprite),a
 5264+8147 3A 5E B0           ld    a,(_A)
 5265+814A 6F                 ld    l,a
 5266+814B 26 00              ld    h,0
 5267+814D 54                 ld    d,h
 5268+814E 5D                 ld    e,l
 5269+814F 29                 add   hl,hl
 5270+8150 19                 add   hl,de
 5271+8151 2B                 dec   hl
 5272+8152 E5                 push  hl
 5273+8153 3A 5F B0           ld    a,(_B)
 5274+8156 6F                 ld    l,a
 5275+8157 26 00              ld    h,0
 5276+8159 54                 ld    d,h
 5277+815A 5D                 ld    e,l
 5278+815B 29                 add   hl,hl
 5279+815C 19                 add   hl,de
 5280+815D 2B                 dec   hl
 5281+815E 55                 ld    d,l
 5282+815F E1                 pop   hl
 5283+8160 5D                 ld    e,l
 5284+8161 E1                 pop   hl
 5285+8162 CD DA A4           call  put_spr_put
 5286+8165 C3 7B 82           jp    L352
 5287+8168              L357
 5288+8168 3A 5B B5           ld    a,(_L351)
 5289+816B FE 03              cp    3
 5290+816D CA 73 81           jp    z,L358
 5291+8170 C3 9F 81           jp    L359
 5292+8173              L358
 5293+8173 21 C8 C6           ld    hl,SPRBLOCK3
 5294+8176 E5                 push  hl
 5295+8177 21 43 00           ld    hl,67
 5296+817A 7D                 ld    a,l
 5297+817B 32 F8 AF           ld    (attr_sprite),a
 5298+817E 3A 5E B0           ld    a,(_A)
 5299+8181 6F                 ld    l,a
 5300+8182 26 00              ld    h,0
 5301+8184 54                 ld    d,h
 5302+8185 5D                 ld    e,l
 5303+8186 29                 add   hl,hl
 5304+8187 19                 add   hl,de
 5305+8188 2B                 dec   hl
 5306+8189 E5                 push  hl
 5307+818A 3A 5F B0           ld    a,(_B)
 5308+818D 6F                 ld    l,a
 5309+818E 26 00              ld    h,0
 5310+8190 54                 ld    d,h
 5311+8191 5D                 ld    e,l
 5312+8192 29                 add   hl,hl
 5313+8193 19                 add   hl,de
 5314+8194 2B                 dec   hl
 5315+8195 55                 ld    d,l
 5316+8196 E1                 pop   hl
 5317+8197 5D                 ld    e,l
 5318+8198 E1                 pop   hl
 5319+8199 CD DA A4           call  put_spr_put
 5320+819C C3 7B 82           jp    L352
 5321+819F              L359
 5322+819F 3A 5B B5           ld    a,(_L351)
 5323+81A2 FE 04              cp    4
 5324+81A4 CA AA 81           jp    z,L360
 5325+81A7 C3 D6 81           jp    L361
 5326+81AA              L360
 5327+81AA 21 23 C7           ld    hl,SPRBLOCK4
 5328+81AD E5                 push  hl
 5329+81AE 21 44 00           ld    hl,68
 5330+81B1 7D                 ld    a,l
 5331+81B2 32 F8 AF           ld    (attr_sprite),a
 5332+81B5 3A 5E B0           ld    a,(_A)
 5333+81B8 6F                 ld    l,a
 5334+81B9 26 00              ld    h,0
 5335+81BB 54                 ld    d,h
 5336+81BC 5D                 ld    e,l
 5337+81BD 29                 add   hl,hl
 5338+81BE 19                 add   hl,de
 5339+81BF 2B                 dec   hl
 5340+81C0 E5                 push  hl
 5341+81C1 3A 5F B0           ld    a,(_B)
 5342+81C4 6F                 ld    l,a
 5343+81C5 26 00              ld    h,0
 5344+81C7 54                 ld    d,h
 5345+81C8 5D                 ld    e,l
 5346+81C9 29                 add   hl,hl
 5347+81CA 19                 add   hl,de
 5348+81CB 2B                 dec   hl
 5349+81CC 55                 ld    d,l
 5350+81CD E1                 pop   hl
 5351+81CE 5D                 ld    e,l
 5352+81CF E1                 pop   hl
 5353+81D0 CD DA A4           call  put_spr_put
 5354+81D3 C3 7B 82           jp    L352
 5355+81D6              L361
 5356+81D6 3A 5B B5           ld    a,(_L351)
 5357+81D9 FE 05              cp    5
 5358+81DB CA E1 81           jp    z,L362
 5359+81DE C3 0D 82           jp    L363
 5360+81E1              L362
 5361+81E1 21 7E C7           ld    hl,SPRBLOCK5
 5362+81E4 E5                 push  hl
 5363+81E5 21 45 00           ld    hl,69
 5364+81E8 7D                 ld    a,l
 5365+81E9 32 F8 AF           ld    (attr_sprite),a
 5366+81EC 3A 5E B0           ld    a,(_A)
 5367+81EF 6F                 ld    l,a
 5368+81F0 26 00              ld    h,0
 5369+81F2 54                 ld    d,h
 5370+81F3 5D                 ld    e,l
 5371+81F4 29                 add   hl,hl
 5372+81F5 19                 add   hl,de
 5373+81F6 2B                 dec   hl
 5374+81F7 E5                 push  hl
 5375+81F8 3A 5F B0           ld    a,(_B)
 5376+81FB 6F                 ld    l,a
 5377+81FC 26 00              ld    h,0
 5378+81FE 54                 ld    d,h
 5379+81FF 5D                 ld    e,l
 5380+8200 29                 add   hl,hl
 5381+8201 19                 add   hl,de
 5382+8202 2B                 dec   hl
 5383+8203 55                 ld    d,l
 5384+8204 E1                 pop   hl
 5385+8205 5D                 ld    e,l
 5386+8206 E1                 pop   hl
 5387+8207 CD DA A4           call  put_spr_put
 5388+820A C3 7B 82           jp    L352
 5389+820D              L363
 5390+820D 3A 5B B5           ld    a,(_L351)
 5391+8210 FE 06              cp    6
 5392+8212 CA 18 82           jp    z,L364
 5393+8215 C3 44 82           jp    L365
 5394+8218              L364
 5395+8218 21 D9 C7           ld    hl,SPRBLOCK6
 5396+821B E5                 push  hl
 5397+821C 21 46 00           ld    hl,70
 5398+821F 7D                 ld    a,l
 5399+8220 32 F8 AF           ld    (attr_sprite),a
 5400+8223 3A 5E B0           ld    a,(_A)
 5401+8226 6F                 ld    l,a
 5402+8227 26 00              ld    h,0
 5403+8229 54                 ld    d,h
 5404+822A 5D                 ld    e,l
 5405+822B 29                 add   hl,hl
 5406+822C 19                 add   hl,de
 5407+822D 2B                 dec   hl
 5408+822E E5                 push  hl
 5409+822F 3A 5F B0           ld    a,(_B)
 5410+8232 6F                 ld    l,a
 5411+8233 26 00              ld    h,0
 5412+8235 54                 ld    d,h
 5413+8236 5D                 ld    e,l
 5414+8237 29                 add   hl,hl
 5415+8238 19                 add   hl,de
 5416+8239 2B                 dec   hl
 5417+823A 55                 ld    d,l
 5418+823B E1                 pop   hl
 5419+823C 5D                 ld    e,l
 5420+823D E1                 pop   hl
 5421+823E CD DA A4           call  put_spr_put
 5422+8241 C3 7B 82           jp    L352
 5423+8244              L365
 5424+8244 3A 5B B5           ld    a,(_L351)
 5425+8247 FE 07              cp    7
 5426+8249 CA 4F 82           jp    z,L366
 5427+824C C3 7B 82           jp    L367
 5428+824F              L366
 5429+824F 21 34 C8           ld    hl,SPRBLOCK7
 5430+8252 E5                 push  hl
 5431+8253 21 47 00           ld    hl,71
 5432+8256 7D                 ld    a,l
 5433+8257 32 F8 AF           ld    (attr_sprite),a
 5434+825A 3A 5E B0           ld    a,(_A)
 5435+825D 6F                 ld    l,a
 5436+825E 26 00              ld    h,0
 5437+8260 54                 ld    d,h
 5438+8261 5D                 ld    e,l
 5439+8262 29                 add   hl,hl
 5440+8263 19                 add   hl,de
 5441+8264 2B                 dec   hl
 5442+8265 E5                 push  hl
 5443+8266 3A 5F B0           ld    a,(_B)
 5444+8269 6F                 ld    l,a
 5445+826A 26 00              ld    h,0
 5446+826C 54                 ld    d,h
 5447+826D 5D                 ld    e,l
 5448+826E 29                 add   hl,hl
 5449+826F 19                 add   hl,de
 5450+8270 2B                 dec   hl
 5451+8271 55                 ld    d,l
 5452+8272 E1                 pop   hl
 5453+8273 5D                 ld    e,l
 5454+8274 E1                 pop   hl
 5455+8275 CD DA A4           call  put_spr_put
 5456+8278 C3 7B 82           jp    L352
 5457+827B              L367
 5458+827B              L352
 5459+827B 3A 5E B0           ld    a,(_A)
 5460+827E 6F                 ld    l,a
 5461+827F 26 00              ld    h,0
 5462+8281 54                 ld    d,h
 5463+8282 5D                 ld    e,l
 5464+8283 29                 add   hl,hl
 5465+8284 19                 add   hl,de
 5466+8285 2B                 dec   hl
 5467+8286 7D                 ld    a,l
 5468+8287 32 FC AF           ld    (col_window),a
 5469+828A 3A 5F B0           ld    a,(_B)
 5470+828D 6F                 ld    l,a
 5471+828E 26 00              ld    h,0
 5472+8290 54                 ld    d,h
 5473+8291 5D                 ld    e,l
 5474+8292 29                 add   hl,hl
 5475+8293 19                 add   hl,de
 5476+8294 2B                 dec   hl
 5477+8295 7D                 ld    a,l
 5478+8296 32 FD AF           ld    (row_window),a
 5479+8299 3E 03              ld    a,3
 5480+829B 32 FE AF           ld    (width_window),a
 5481+829E 32 FF AF           ld    (height_window),a
 5482+82A1 CD 5F 5D           call  _BLOCKVIBRSOUND
 5483+82A4              L348
 5484+82A4              L350
 5485+82A4 3A 59 B5           ld    a,(Lim_B)
 5486+82A7 21 5F B0           ld    hl,_B
 5487+82AA BE                 cp    (hl)
 5488+82AB CA B5 82           jp    z,L347
 5489+82AE 21 5F B0           ld    hl,_B
 5490+82B1 34                 inc   (hl)
 5491+82B2 C3 BC 80           jp    L346
 5492+82B5              L347
 5493+82B5 3A 58 B5           ld    a,(Lim_A)
 5494+82B8 21 5E B0           ld    hl,_A
 5495+82BB BE                 cp    (hl)
 5496+82BC CA C6 82           jp    z,L345
 5497+82BF 21 5E B0           ld    hl,_A
 5498+82C2 34                 inc   (hl)
 5499+82C3 C3 B2 80           jp    L344
 5500+82C6              L345
 5501+82C6 3E 01              ld    a,1
 5502+82C8 32 5E B0           ld    (_A),a
 5503+82CB 3E 06              ld    a,6
 5504+82CD 32 58 B5           ld    (Lim_A),a
 5505+82D0              L368
 5506+82D0 3E 01              ld    a,1
 5507+82D2 32 5F B0           ld    (_B),a
 5508+82D5 3E 06              ld    a,6
 5509+82D7 32 59 B5           ld    (Lim_B),a
 5510+82DA              L370
 5511+82DA 3A 5E B0           ld    a,(_A)
 5512+82DD 6F                 ld    l,a
 5513+82DE 26 00              ld    h,0
 5514+82E0 2B                 dec   hl
 5515+82E1 29                 add   hl,hl
 5516+82E2 54                 ld    d,h
 5517+82E3 5D                 ld    e,l
 5518+82E4 29                 add   hl,hl
 5519+82E5 19                 add   hl,de
 5520+82E6 11 29 B5           ld    de,_MAPDEL
 5521+82E9 19                 add   hl,de
 5522+82EA E5                 push  hl
 5523+82EB 3A 5F B0           ld    a,(_B)
 5524+82EE 6F                 ld    l,a
 5525+82EF 26 00              ld    h,0
 5526+82F1 2B                 dec   hl
 5527+82F2 D1                 pop   de
 5528+82F3 19                 add   hl,de
 5529+82F4 3E 01              ld    a,1
 5530+82F6 BE                 cp    (hl)
 5531+82F7 C2 23 83           jp    nz,L372
 5532+82FA              L373
 5533+82FA 21 EA C8           ld    hl,SPRBOMB1
 5534+82FD E5                 push  hl
 5535+82FE 21 42 00           ld    hl,66
 5536+8301 7D                 ld    a,l
 5537+8302 32 F8 AF           ld    (attr_sprite),a
 5538+8305 3A 5E B0           ld    a,(_A)
 5539+8308 6F                 ld    l,a
 5540+8309 26 00              ld    h,0
 5541+830B 54                 ld    d,h
 5542+830C 5D                 ld    e,l
 5543+830D 29                 add   hl,hl
 5544+830E 19                 add   hl,de
 5545+830F 2B                 dec   hl
 5546+8310 E5                 push  hl
 5547+8311 3A 5F B0           ld    a,(_B)
 5548+8314 6F                 ld    l,a
 5549+8315 26 00              ld    h,0
 5550+8317 54                 ld    d,h
 5551+8318 5D                 ld    e,l
 5552+8319 29                 add   hl,hl
 5553+831A 19                 add   hl,de
 5554+831B 2B                 dec   hl
 5555+831C 55                 ld    d,l
 5556+831D E1                 pop   hl
 5557+831E 5D                 ld    e,l
 5558+831F E1                 pop   hl
 5559+8320 CD DA A4           call  put_spr_put
 5560+8323              L372
 5561+8323              L374
 5562+8323 3A 59 B5           ld    a,(Lim_B)
 5563+8326 21 5F B0           ld    hl,_B
 5564+8329 BE                 cp    (hl)
 5565+832A CA 34 83           jp    z,L371
 5566+832D 21 5F B0           ld    hl,_B
 5567+8330 34                 inc   (hl)
 5568+8331 C3 DA 82           jp    L370
 5569+8334              L371
 5570+8334 3A 58 B5           ld    a,(Lim_A)
 5571+8337 21 5E B0           ld    hl,_A
 5572+833A BE                 cp    (hl)
 5573+833B CA 45 83           jp    z,L369
 5574+833E 21 5E B0           ld    hl,_A
 5575+8341 34                 inc   (hl)
 5576+8342 C3 D0 82           jp    L368
 5577+8345              L369
 5578+8345 CD 02 B6           call  HALT
 5579+8348 3E 01              ld    a,1
 5580+834A 32 5E B0           ld    (_A),a
 5581+834D 3E 06              ld    a,6
 5582+834F 32 58 B5           ld    (Lim_A),a
 5583+8352              L375
 5584+8352 3E 01              ld    a,1
 5585+8354 32 5F B0           ld    (_B),a
 5586+8357 3E 06              ld    a,6
 5587+8359 32 59 B5           ld    (Lim_B),a
 5588+835C              L377
 5589+835C 3A 5E B0           ld    a,(_A)
 5590+835F 6F                 ld    l,a
 5591+8360 26 00              ld    h,0
 5592+8362 2B                 dec   hl
 5593+8363 29                 add   hl,hl
 5594+8364 54                 ld    d,h
 5595+8365 5D                 ld    e,l
 5596+8366 29                 add   hl,hl
 5597+8367 19                 add   hl,de
 5598+8368 11 29 B5           ld    de,_MAPDEL
 5599+836B 19                 add   hl,de
 5600+836C E5                 push  hl
 5601+836D 3A 5F B0           ld    a,(_B)
 5602+8370 6F                 ld    l,a
 5603+8371 26 00              ld    h,0
 5604+8373 2B                 dec   hl
 5605+8374 D1                 pop   de
 5606+8375 19                 add   hl,de
 5607+8376 3E 01              ld    a,1
 5608+8378 BE                 cp    (hl)
 5609+8379 C2 A5 83           jp    nz,L379
 5610+837C              L380
 5611+837C 21 45 C9           ld    hl,SPRBOMB2
 5612+837F E5                 push  hl
 5613+8380 21 42 00           ld    hl,66
 5614+8383 7D                 ld    a,l
 5615+8384 32 F8 AF           ld    (attr_sprite),a
 5616+8387 3A 5E B0           ld    a,(_A)
 5617+838A 6F                 ld    l,a
 5618+838B 26 00              ld    h,0
 5619+838D 54                 ld    d,h
 5620+838E 5D                 ld    e,l
 5621+838F 29                 add   hl,hl
 5622+8390 19                 add   hl,de
 5623+8391 2B                 dec   hl
 5624+8392 E5                 push  hl
 5625+8393 3A 5F B0           ld    a,(_B)
 5626+8396 6F                 ld    l,a
 5627+8397 26 00              ld    h,0
 5628+8399 54                 ld    d,h
 5629+839A 5D                 ld    e,l
 5630+839B 29                 add   hl,hl
 5631+839C 19                 add   hl,de
 5632+839D 2B                 dec   hl
 5633+839E 55                 ld    d,l
 5634+839F E1                 pop   hl
 5635+83A0 5D                 ld    e,l
 5636+83A1 E1                 pop   hl
 5637+83A2 CD DA A4           call  put_spr_put
 5638+83A5              L379
 5639+83A5              L381
 5640+83A5 3A 59 B5           ld    a,(Lim_B)
 5641+83A8 21 5F B0           ld    hl,_B
 5642+83AB BE                 cp    (hl)
 5643+83AC CA B6 83           jp    z,L378
 5644+83AF 21 5F B0           ld    hl,_B
 5645+83B2 34                 inc   (hl)
 5646+83B3 C3 5C 83           jp    L377
 5647+83B6              L378
 5648+83B6 3A 58 B5           ld    a,(Lim_A)
 5649+83B9 21 5E B0           ld    hl,_A
 5650+83BC BE                 cp    (hl)
 5651+83BD CA C7 83           jp    z,L376
 5652+83C0 21 5E B0           ld    hl,_A
 5653+83C3 34                 inc   (hl)
 5654+83C4 C3 52 83           jp    L375
 5655+83C7              L376
 5656+83C7 CD 02 B6           call  HALT
 5657+83CA 3E 01              ld    a,1
 5658+83CC 32 5E B0           ld    (_A),a
 5659+83CF 3E 06              ld    a,6
 5660+83D1 32 58 B5           ld    (Lim_A),a
 5661+83D4              L382
 5662+83D4 3E 01              ld    a,1
 5663+83D6 32 5F B0           ld    (_B),a
 5664+83D9 3E 06              ld    a,6
 5665+83DB 32 59 B5           ld    (Lim_B),a
 5666+83DE              L384
 5667+83DE 3A 5E B0           ld    a,(_A)
 5668+83E1 6F                 ld    l,a
 5669+83E2 26 00              ld    h,0
 5670+83E4 2B                 dec   hl
 5671+83E5 29                 add   hl,hl
 5672+83E6 54                 ld    d,h
 5673+83E7 5D                 ld    e,l
 5674+83E8 29                 add   hl,hl
 5675+83E9 19                 add   hl,de
 5676+83EA 11 29 B5           ld    de,_MAPDEL
 5677+83ED 19                 add   hl,de
 5678+83EE E5                 push  hl
 5679+83EF 3A 5F B0           ld    a,(_B)
 5680+83F2 6F                 ld    l,a
 5681+83F3 26 00              ld    h,0
 5682+83F5 2B                 dec   hl
 5683+83F6 D1                 pop   de
 5684+83F7 19                 add   hl,de
 5685+83F8 3E 01              ld    a,1
 5686+83FA BE                 cp    (hl)
 5687+83FB C2 27 84           jp    nz,L386
 5688+83FE              L387
 5689+83FE 21 A0 C9           ld    hl,SPRBOMB3
 5690+8401 E5                 push  hl
 5691+8402 21 46 00           ld    hl,70
 5692+8405 7D                 ld    a,l
 5693+8406 32 F8 AF           ld    (attr_sprite),a
 5694+8409 3A 5E B0           ld    a,(_A)
 5695+840C 6F                 ld    l,a
 5696+840D 26 00              ld    h,0
 5697+840F 54                 ld    d,h
 5698+8410 5D                 ld    e,l
 5699+8411 29                 add   hl,hl
 5700+8412 19                 add   hl,de
 5701+8413 2B                 dec   hl
 5702+8414 E5                 push  hl
 5703+8415 3A 5F B0           ld    a,(_B)
 5704+8418 6F                 ld    l,a
 5705+8419 26 00              ld    h,0
 5706+841B 54                 ld    d,h
 5707+841C 5D                 ld    e,l
 5708+841D 29                 add   hl,hl
 5709+841E 19                 add   hl,de
 5710+841F 2B                 dec   hl
 5711+8420 55                 ld    d,l
 5712+8421 E1                 pop   hl
 5713+8422 5D                 ld    e,l
 5714+8423 E1                 pop   hl
 5715+8424 CD DA A4           call  put_spr_put
 5716+8427              L386
 5717+8427              L388
 5718+8427 3A 59 B5           ld    a,(Lim_B)
 5719+842A 21 5F B0           ld    hl,_B
 5720+842D BE                 cp    (hl)
 5721+842E CA 38 84           jp    z,L385
 5722+8431 21 5F B0           ld    hl,_B
 5723+8434 34                 inc   (hl)
 5724+8435 C3 DE 83           jp    L384
 5725+8438              L385
 5726+8438 3A 58 B5           ld    a,(Lim_A)
 5727+843B 21 5E B0           ld    hl,_A
 5728+843E BE                 cp    (hl)
 5729+843F CA 49 84           jp    z,L383
 5730+8442 21 5E B0           ld    hl,_A
 5731+8445 34                 inc   (hl)
 5732+8446 C3 D4 83           jp    L382
 5733+8449              L383
 5734+8449 CD 02 B6           call  HALT
 5735+844C 3E 01              ld    a,1
 5736+844E 32 5E B0           ld    (_A),a
 5737+8451 3E 06              ld    a,6
 5738+8453 32 58 B5           ld    (Lim_A),a
 5739+8456              L389
 5740+8456 3E 01              ld    a,1
 5741+8458 32 5F B0           ld    (_B),a
 5742+845B 3E 06              ld    a,6
 5743+845D 32 59 B5           ld    (Lim_B),a
 5744+8460              L391
 5745+8460 3A 5E B0           ld    a,(_A)
 5746+8463 6F                 ld    l,a
 5747+8464 26 00              ld    h,0
 5748+8466 2B                 dec   hl
 5749+8467 29                 add   hl,hl
 5750+8468 54                 ld    d,h
 5751+8469 5D                 ld    e,l
 5752+846A 29                 add   hl,hl
 5753+846B 19                 add   hl,de
 5754+846C 11 29 B5           ld    de,_MAPDEL
 5755+846F 19                 add   hl,de
 5756+8470 E5                 push  hl
 5757+8471 3A 5F B0           ld    a,(_B)
 5758+8474 6F                 ld    l,a
 5759+8475 26 00              ld    h,0
 5760+8477 2B                 dec   hl
 5761+8478 D1                 pop   de
 5762+8479 19                 add   hl,de
 5763+847A 3E 01              ld    a,1
 5764+847C BE                 cp    (hl)
 5765+847D C2 A9 84           jp    nz,L393
 5766+8480              L394
 5767+8480 21 FB C9           ld    hl,SPRBOMB4
 5768+8483 E5                 push  hl
 5769+8484 21 47 00           ld    hl,71
 5770+8487 7D                 ld    a,l
 5771+8488 32 F8 AF           ld    (attr_sprite),a
 5772+848B 3A 5E B0           ld    a,(_A)
 5773+848E 6F                 ld    l,a
 5774+848F 26 00              ld    h,0
 5775+8491 54                 ld    d,h
 5776+8492 5D                 ld    e,l
 5777+8493 29                 add   hl,hl
 5778+8494 19                 add   hl,de
 5779+8495 2B                 dec   hl
 5780+8496 E5                 push  hl
 5781+8497 3A 5F B0           ld    a,(_B)
 5782+849A 6F                 ld    l,a
 5783+849B 26 00              ld    h,0
 5784+849D 54                 ld    d,h
 5785+849E 5D                 ld    e,l
 5786+849F 29                 add   hl,hl
 5787+84A0 19                 add   hl,de
 5788+84A1 2B                 dec   hl
 5789+84A2 55                 ld    d,l
 5790+84A3 E1                 pop   hl
 5791+84A4 5D                 ld    e,l
 5792+84A5 E1                 pop   hl
 5793+84A6 CD DA A4           call  put_spr_put
 5794+84A9              L393
 5795+84A9              L395
 5796+84A9 3A 59 B5           ld    a,(Lim_B)
 5797+84AC 21 5F B0           ld    hl,_B
 5798+84AF BE                 cp    (hl)
 5799+84B0 CA BA 84           jp    z,L392
 5800+84B3 21 5F B0           ld    hl,_B
 5801+84B6 34                 inc   (hl)
 5802+84B7 C3 60 84           jp    L391
 5803+84BA              L392
 5804+84BA 3A 58 B5           ld    a,(Lim_A)
 5805+84BD 21 5E B0           ld    hl,_A
 5806+84C0 BE                 cp    (hl)
 5807+84C1 CA CB 84           jp    z,L390
 5808+84C4 21 5E B0           ld    hl,_A
 5809+84C7 34                 inc   (hl)
 5810+84C8 C3 56 84           jp    L389
 5811+84CB              L390
 5812+84CB CD 02 B6           call  HALT
 5813+84CE 3E 01              ld    a,1
 5814+84D0 32 5E B0           ld    (_A),a
 5815+84D3 3E 06              ld    a,6
 5816+84D5 32 58 B5           ld    (Lim_A),a
 5817+84D8              L396
 5818+84D8 3E 01              ld    a,1
 5819+84DA 32 5F B0           ld    (_B),a
 5820+84DD 3E 06              ld    a,6
 5821+84DF 32 59 B5           ld    (Lim_B),a
 5822+84E2              L398
 5823+84E2 3A 5E B0           ld    a,(_A)
 5824+84E5 6F                 ld    l,a
 5825+84E6 26 00              ld    h,0
 5826+84E8 2B                 dec   hl
 5827+84E9 29                 add   hl,hl
 5828+84EA 54                 ld    d,h
 5829+84EB 5D                 ld    e,l
 5830+84EC 29                 add   hl,hl
 5831+84ED 19                 add   hl,de
 5832+84EE 11 29 B5           ld    de,_MAPDEL
 5833+84F1 19                 add   hl,de
 5834+84F2 E5                 push  hl
 5835+84F3 3A 5F B0           ld    a,(_B)
 5836+84F6 6F                 ld    l,a
 5837+84F7 26 00              ld    h,0
 5838+84F9 2B                 dec   hl
 5839+84FA D1                 pop   de
 5840+84FB 19                 add   hl,de
 5841+84FC 3E 01              ld    a,1
 5842+84FE BE                 cp    (hl)
 5843+84FF C2 52 85           jp    nz,L400
 5844+8502              L401
 5845+8502 21 8F C8           ld    hl,SPRCLR
 5846+8505 E5                 push  hl
 5847+8506 21 00 00           ld    hl,0
 5848+8509 7D                 ld    a,l
 5849+850A 32 F8 AF           ld    (attr_sprite),a
 5850+850D 3A 5E B0           ld    a,(_A)
 5851+8510 6F                 ld    l,a
 5852+8511 26 00              ld    h,0
 5853+8513 54                 ld    d,h
 5854+8514 5D                 ld    e,l
 5855+8515 29                 add   hl,hl
 5856+8516 19                 add   hl,de
 5857+8517 2B                 dec   hl
 5858+8518 E5                 push  hl
 5859+8519 3A 5F B0           ld    a,(_B)
 5860+851C 6F                 ld    l,a
 5861+851D 26 00              ld    h,0
 5862+851F 54                 ld    d,h
 5863+8520 5D                 ld    e,l
 5864+8521 29                 add   hl,hl
 5865+8522 19                 add   hl,de
 5866+8523 2B                 dec   hl
 5867+8524 55                 ld    d,l
 5868+8525 E1                 pop   hl
 5869+8526 5D                 ld    e,l
 5870+8527 E1                 pop   hl
 5871+8528 CD DA A4           call  put_spr_put
 5872+852B 3A 5E B0           ld    a,(_A)
 5873+852E 6F                 ld    l,a
 5874+852F 26 00              ld    h,0
 5875+8531 2B                 dec   hl
 5876+8532 29                 add   hl,hl
 5877+8533 54                 ld    d,h
 5878+8534 5D                 ld    e,l
 5879+8535 29                 add   hl,hl
 5880+8536 19                 add   hl,de
 5881+8537 11 BD B4           ld    de,_MAPBLOCK
 5882+853A 19                 add   hl,de
 5883+853B E5                 push  hl
 5884+853C 3A 5F B0           ld    a,(_B)
 5885+853F 6F                 ld    l,a
 5886+8540 26 00              ld    h,0
 5887+8542 2B                 dec   hl
 5888+8543 D1                 pop   de
 5889+8544 19                 add   hl,de
 5890+8545 36 00              ld    (hl),0
 5891+8547 3A 62 B0           ld    a,(_S)
 5892+854A 6F                 ld    l,a
 5893+854B 26 00              ld    h,0
 5894+854D 23                 inc   hl
 5895+854E 7D                 ld    a,l
 5896+854F 32 62 B0           ld    (_S),a
 5897+8552              L400
 5898+8552              L402
 5899+8552 3A 59 B5           ld    a,(Lim_B)
 5900+8555 21 5F B0           ld    hl,_B
 5901+8558 BE                 cp    (hl)
 5902+8559 CA 63 85           jp    z,L399
 5903+855C 21 5F B0           ld    hl,_B
 5904+855F 34                 inc   (hl)
 5905+8560 C3 E2 84           jp    L398
 5906+8563              L399
 5907+8563 3A 58 B5           ld    a,(Lim_A)
 5908+8566 21 5E B0           ld    hl,_A
 5909+8569 BE                 cp    (hl)
 5910+856A CA 74 85           jp    z,L397
 5911+856D 21 5E B0           ld    hl,_A
 5912+8570 34                 inc   (hl)
 5913+8571 C3 D8 84           jp    L396
 5914+8574              L397
 5915+8574 AF                 xor   a
 5916+8575 21 62 B0           ld    hl,_S
 5917+8578 BE                 cp    (hl)
 5918+8579 D2 8E 85           jp    nc,L403
 5919+857C              L404
 5920+857C 3E 01              ld    a,1
 5921+857E 32 4F B0           ld    (sound_loop),a
 5922+8581 3E 32              ld    a,50
 5923+8583 32 51 B0           ld    (sound_time),a
 5924+8586 3E 05              ld    a,5
 5925+8588 32 50 B0           ld    (sound_freq),a
 5926+858B CD 62 A3           call  sound_effect
 5927+858E              L403
 5928+858E              L405
 5929+858E 3A 62 B0           ld    a,(_S)
 5930+8591 32 5C B5           ld    (_L406),a
 5931+8594 FE 03              cp    3
 5932+8596 CA 9C 85           jp    z,L409
 5933+8599 C3 A5 85           jp    L410
 5934+859C              L409
 5935+859C 3A 62 B0           ld    a,(_S)
 5936+859F 6F                 ld    l,a
 5937+85A0 26 00              ld    h,0
 5938+85A2 C3 E3 86           jp    L407
 5939+85A5              L410
 5940+85A5 3A 5C B5           ld    a,(_L406)
 5941+85A8 FE 04              cp    4
 5942+85AA CA B0 85           jp    z,L411
 5943+85AD C3 BE 85           jp    L412
 5944+85B0              L411
 5945+85B0 3A 62 B0           ld    a,(_S)
 5946+85B3 6F                 ld    l,a
 5947+85B4 26 00              ld    h,0
 5948+85B6 29                 add   hl,hl
 5949+85B7 7D                 ld    a,l
 5950+85B8 32 62 B0           ld    (_S),a
 5951+85BB C3 E3 86           jp    L407
 5952+85BE              L412
 5953+85BE 3A 5C B5           ld    a,(_L406)
 5954+85C1 FE 05              cp    5
 5955+85C3 CA C9 85           jp    z,L413
 5956+85C6 C3 DA 85           jp    L414
 5957+85C9              L413
 5958+85C9 3A 62 B0           ld    a,(_S)
 5959+85CC 6F                 ld    l,a
 5960+85CD 26 00              ld    h,0
 5961+85CF 54                 ld    d,h
 5962+85D0 5D                 ld    e,l
 5963+85D1 29                 add   hl,hl
 5964+85D2 19                 add   hl,de
 5965+85D3 7D                 ld    a,l
 5966+85D4 32 62 B0           ld    (_S),a
 5967+85D7 C3 E3 86           jp    L407
 5968+85DA              L414
 5969+85DA 3A 5C B5           ld    a,(_L406)
 5970+85DD FE 06              cp    6
 5971+85DF CA E5 85           jp    z,L415
 5972+85E2 C3 F4 85           jp    L416
 5973+85E5              L415
 5974+85E5 3A 62 B0           ld    a,(_S)
 5975+85E8 6F                 ld    l,a
 5976+85E9 26 00              ld    h,0
 5977+85EB 29                 add   hl,hl
 5978+85EC 29                 add   hl,hl
 5979+85ED 7D                 ld    a,l
 5980+85EE 32 62 B0           ld    (_S),a
 5981+85F1 C3 E3 86           jp    L407
 5982+85F4              L416
 5983+85F4 3A 5C B5           ld    a,(_L406)
 5984+85F7 FE 07              cp    7
 5985+85F9 CA FF 85           jp    z,L417
 5986+85FC C3 11 86           jp    L418
 5987+85FF              L417
 5988+85FF 3A 62 B0           ld    a,(_S)
 5989+8602 6F                 ld    l,a
 5990+8603 26 00              ld    h,0
 5991+8605 54                 ld    d,h
 5992+8606 5D                 ld    e,l
 5993+8607 29                 add   hl,hl
 5994+8608 29                 add   hl,hl
 5995+8609 19                 add   hl,de
 5996+860A 7D                 ld    a,l
 5997+860B 32 62 B0           ld    (_S),a
 5998+860E C3 E3 86           jp    L407
 5999+8611              L418
 6000+8611 3A 5C B5           ld    a,(_L406)
 6001+8614 FE 08              cp    8
 6002+8616 CA 1C 86           jp    z,L419
 6003+8619 C3 2E 86           jp    L420
 6004+861C              L419
 6005+861C 3A 62 B0           ld    a,(_S)
 6006+861F 6F                 ld    l,a
 6007+8620 26 00              ld    h,0
 6008+8622 29                 add   hl,hl
 6009+8623 54                 ld    d,h
 6010+8624 5D                 ld    e,l
 6011+8625 29                 add   hl,hl
 6012+8626 19                 add   hl,de
 6013+8627 7D                 ld    a,l
 6014+8628 32 62 B0           ld    (_S),a
 6015+862B C3 E3 86           jp    L407
 6016+862E              L420
 6017+862E 3A 5C B5           ld    a,(_L406)
 6018+8631 FE 09              cp    9
 6019+8633 CA 39 86           jp    z,L421
 6020+8636 C3 4D 86           jp    L422
 6021+8639              L421
 6022+8639 3A 62 B0           ld    a,(_S)
 6023+863C 6F                 ld    l,a
 6024+863D 26 00              ld    h,0
 6025+863F 01 07 00           ld    bc,7
 6026+8642 EB                 ex    de,hl
 6027+8643 CD 63 AA           call  mul
 6028+8646 7D                 ld    a,l
 6029+8647 32 62 B0           ld    (_S),a
 6030+864A C3 E3 86           jp    L407
 6031+864D              L422
 6032+864D 3A 5C B5           ld    a,(_L406)
 6033+8650 FE 0A              cp    10
 6034+8652 CA 58 86           jp    z,L423
 6035+8655 C3 68 86           jp    L424
 6036+8658              L423
 6037+8658 3A 62 B0           ld    a,(_S)
 6038+865B 6F                 ld    l,a
 6039+865C 26 00              ld    h,0
 6040+865E 29                 add   hl,hl
 6041+865F 29                 add   hl,hl
 6042+8660 29                 add   hl,hl
 6043+8661 7D                 ld    a,l
 6044+8662 32 62 B0           ld    (_S),a
 6045+8665 C3 E3 86           jp    L407
 6046+8668              L424
 6047+8668 3A 5C B5           ld    a,(_L406)
 6048+866B FE 0B              cp    11
 6049+866D CA 73 86           jp    z,L425
 6050+8670 C3 87 86           jp    L426
 6051+8673              L425
 6052+8673 3A 62 B0           ld    a,(_S)
 6053+8676 6F                 ld    l,a
 6054+8677 26 00              ld    h,0
 6055+8679 01 09 00           ld    bc,9
 6056+867C EB                 ex    de,hl
 6057+867D CD 63 AA           call  mul
 6058+8680 7D                 ld    a,l
 6059+8681 32 62 B0           ld    (_S),a
 6060+8684 C3 E3 86           jp    L407
 6061+8687              L426
 6062+8687 3A 5C B5           ld    a,(_L406)
 6063+868A FE 0C              cp    12
 6064+868C CA 92 86           jp    z,L427
 6065+868F C3 A5 86           jp    L428
 6066+8692              L427
 6067+8692 3A 62 B0           ld    a,(_S)
 6068+8695 6F                 ld    l,a
 6069+8696 26 00              ld    h,0
 6070+8698 29                 add   hl,hl
 6071+8699 54                 ld    d,h
 6072+869A 5D                 ld    e,l
 6073+869B 29                 add   hl,hl
 6074+869C 29                 add   hl,hl
 6075+869D 19                 add   hl,de
 6076+869E 7D                 ld    a,l
 6077+869F 32 62 B0           ld    (_S),a
 6078+86A2 C3 E3 86           jp    L407
 6079+86A5              L428
 6080+86A5 3A 5C B5           ld    a,(_L406)
 6081+86A8 FE 0D              cp    13
 6082+86AA CA B0 86           jp    z,L429
 6083+86AD C3 C4 86           jp    L430
 6084+86B0              L429
 6085+86B0 3A 62 B0           ld    a,(_S)
 6086+86B3 6F                 ld    l,a
 6087+86B4 26 00              ld    h,0
 6088+86B6 29                 add   hl,hl
 6089+86B7 29                 add   hl,hl
 6090+86B8 54                 ld    d,h
 6091+86B9 5D                 ld    e,l
 6092+86BA 29                 add   hl,hl
 6093+86BB 29                 add   hl,hl
 6094+86BC 19                 add   hl,de
 6095+86BD 7D                 ld    a,l
 6096+86BE 32 62 B0           ld    (_S),a
 6097+86C1 C3 E3 86           jp    L407
 6098+86C4              L430
 6099+86C4 3A 5C B5           ld    a,(_L406)
 6100+86C7 FE 0E              cp    14
 6101+86C9 CA CF 86           jp    z,L431
 6102+86CC C3 E3 86           jp    L432
 6103+86CF              L431
 6104+86CF 3A 62 B0           ld    a,(_S)
 6105+86D2 6F                 ld    l,a
 6106+86D3 26 00              ld    h,0
 6107+86D5 01 1E 00           ld    bc,30
 6108+86D8 EB                 ex    de,hl
 6109+86D9 CD 63 AA           call  mul
 6110+86DC 7D                 ld    a,l
 6111+86DD 32 62 B0           ld    (_S),a
 6112+86E0 C3 E3 86           jp    L407
 6113+86E3              L432
 6114+86E3              L407
 6115+86E3 2A 69 B0           ld    hl,(_SCORE)
 6116+86E6 3A 62 B0           ld    a,(_S)
 6117+86E9 5F                 ld    e,a
 6118+86EA 16 00              ld    d,0
 6119+86EC 19                 add   hl,de
 6120+86ED 22 69 B0           ld    (_SCORE),hl
 6121+86F0 21 06 00           ld    hl,6
 6122+86F3 7D                 ld    a,l
 6123+86F4 E6 07              and   %00000111
 6124+86F6 6F                 ld    l,a
 6125+86F7 3A F7 AF           ld    a,(attr_screen)
 6126+86FA E6 F8              and   %11111000
 6127+86FC B5                 or    l
 6128+86FD 32 F7 AF           ld    (attr_screen),a
 6129+8700 2A 69 B0           ld    hl,(_SCORE)
 6130+8703 11 E8 03           ld    de,1000
 6131+8706 EB                 ex    de,hl
 6132+8707 A7                 and   a
 6133+8708 ED 52              sbc   hl,de
 6134+870A CA 25 87           jp    z,L433
 6135+870D DA 25 87           jp    c,L433
 6136+8710              L434
 6137+8710 21 32 00           ld    hl,50
 6138+8713 AF                 xor   a
 6139+8714 CB 3D              srl   l
 6140+8716 17                 rla
 6141+8717 32 F6 AF           ld    (half_tile_screen),a
 6142+871A 7D                 ld    a,l
 6143+871B 32 F4 AF           ld    (col_screen),a
 6144+871E 21 0A 00           ld    hl,10
 6145+8721 7D                 ld    a,l
 6146+8722 32 F5 AF           ld    (row_screen),a
 6147+8725              L433
 6148+8725              L435
 6149+8725 2A 69 B0           ld    hl,(_SCORE)
 6150+8728 11 64 00           ld    de,100
 6151+872B EB                 ex    de,hl
 6152+872C A7                 and   a
 6153+872D ED 52              sbc   hl,de
 6154+872F CA 4A 87           jp    z,L436
 6155+8732 DA 4A 87           jp    c,L436
 6156+8735              L437
 6157+8735 21 33 00           ld    hl,51
 6158+8738 AF                 xor   a
 6159+8739 CB 3D              srl   l
 6160+873B 17                 rla
 6161+873C 32 F6 AF           ld    (half_tile_screen),a
 6162+873F 7D                 ld    a,l
 6163+8740 32 F4 AF           ld    (col_screen),a
 6164+8743 21 0A 00           ld    hl,10
 6165+8746 7D                 ld    a,l
 6166+8747 32 F5 AF           ld    (row_screen),a
 6167+874A              L436
 6168+874A              L438
 6169+874A 2A 69 B0           ld    hl,(_SCORE)
 6170+874D 11 0A 00           ld    de,10
 6171+8750 EB                 ex    de,hl
 6172+8751 A7                 and   a
 6173+8752 ED 52              sbc   hl,de
 6174+8754 CA 6F 87           jp    z,L439
 6175+8757 DA 6F 87           jp    c,L439
 6176+875A              L440
 6177+875A 21 34 00           ld    hl,52
 6178+875D AF                 xor   a
 6179+875E CB 3D              srl   l
 6180+8760 17                 rla
 6181+8761 32 F6 AF           ld    (half_tile_screen),a
 6182+8764 7D                 ld    a,l
 6183+8765 32 F4 AF           ld    (col_screen),a
 6184+8768 21 0A 00           ld    hl,10
 6185+876B 7D                 ld    a,l
 6186+876C 32 F5 AF           ld    (row_screen),a
 6187+876F              L439
 6188+876F              L441
 6189+876F 2A 69 B0           ld    hl,(_SCORE)
 6190+8772 CD 3A A5           call  convert_16bit_to_string
 6191+8775 21 E0 AF           ld    hl,string_number
 6192+8778 ED 4B F4 AF        ld    bc,(col_screen)
 6193+877C CD 8D A5           call  print64
 6194+877F 2A 69 B0           ld    hl,(_SCORE)
 6195+8782 11 64 00           ld    de,100
 6196+8785 EB                 ex    de,hl
 6197+8786 A7                 and   a
 6198+8787 ED 52              sbc   hl,de
 6199+8789 CA 8F 87           jp    z,L444
 6200+878C D2 94 87           jp    nc,L442
 6201+878F              L444
 6202+878F              L443
 6203+878F 3E 02              ld    a,2
 6204+8791 32 61 B0           ld    (_COLORBLOCK),a
 6205+8794              L442
 6206+8794              L445
 6207+8794 2A 69 B0           ld    hl,(_SCORE)
 6208+8797 11 C8 00           ld    de,200
 6209+879A EB                 ex    de,hl
 6210+879B A7                 and   a
 6211+879C ED 52              sbc   hl,de
 6212+879E CA A4 87           jp    z,L448
 6213+87A1 D2 A9 87           jp    nc,L446
 6214+87A4              L448
 6215+87A4              L447
 6216+87A4 3E 03              ld    a,3
 6217+87A6 32 61 B0           ld    (_COLORBLOCK),a
 6218+87A9              L446
 6219+87A9              L449
 6220+87A9 2A 69 B0           ld    hl,(_SCORE)
 6221+87AC 11 2C 01           ld    de,300
 6222+87AF EB                 ex    de,hl
 6223+87B0 A7                 and   a
 6224+87B1 ED 52              sbc   hl,de
 6225+87B3 CA B9 87           jp    z,L452
 6226+87B6 D2 BE 87           jp    nc,L450
 6227+87B9              L452
 6228+87B9              L451
 6229+87B9 3E 04              ld    a,4
 6230+87BB 32 61 B0           ld    (_COLORBLOCK),a
 6231+87BE              L450
 6232+87BE              L453
 6233+87BE 2A 69 B0           ld    hl,(_SCORE)
 6234+87C1 11 90 01           ld    de,400
 6235+87C4 EB                 ex    de,hl
 6236+87C5 A7                 and   a
 6237+87C6 ED 52              sbc   hl,de
 6238+87C8 CA CE 87           jp    z,L456
 6239+87CB D2 D3 87           jp    nc,L454
 6240+87CE              L456
 6241+87CE              L455
 6242+87CE 3E 05              ld    a,5
 6243+87D0 32 61 B0           ld    (_COLORBLOCK),a
 6244+87D3              L454
 6245+87D3              L457
 6246+87D3 2A 69 B0           ld    hl,(_SCORE)
 6247+87D6 11 F4 01           ld    de,500
 6248+87D9 EB                 ex    de,hl
 6249+87DA A7                 and   a
 6250+87DB ED 52              sbc   hl,de
 6251+87DD CA E3 87           jp    z,L460
 6252+87E0 D2 E8 87           jp    nc,L458
 6253+87E3              L460
 6254+87E3              L459
 6255+87E3 3E 06              ld    a,6
 6256+87E5 32 61 B0           ld    (_COLORBLOCK),a
 6257+87E8              L458
 6258+87E8              L461
 6259+87E8 3A 61 B0           ld    a,(_COLORBLOCK)
 6260+87EB 32 65 B0           ld    (_LEVEL),a
 6261+87EE C9                 ret
 6262+87EF              _BEST
 6263+87EF 2A 6B B0           ld    hl,(_BESTSCORE)
 6264+87F2 ED 5B 69 B0        ld    de,(_SCORE)
 6265+87F6 EB                 ex    de,hl
 6266+87F7 A7                 and   a
 6267+87F8 ED 52              sbc   hl,de
 6268+87FA CA 5D 88           jp    z,L462
 6269+87FD DA 5D 88           jp    c,L462
 6270+8800              L463
 6271+8800 2A 69 B0           ld    hl,(_SCORE)
 6272+8803 22 6B B0           ld    (_BESTSCORE),hl
 6273+8806 21 B5 D5           ld    hl,SPRNEWREC
 6274+8809 E5                 push  hl
 6275+880A 21 47 00           ld    hl,71
 6276+880D 7D                 ld    a,l
 6277+880E 32 F8 AF           ld    (attr_sprite),a
 6278+8811 21 0A 00           ld    hl,10
 6279+8814 E5                 push  hl
 6280+8815 21 0A 00           ld    hl,10
 6281+8818 55                 ld    d,l
 6282+8819 E1                 pop   hl
 6283+881A 5D                 ld    e,l
 6284+881B E1                 pop   hl
 6285+881C CD DA A4           call  put_spr_put
 6286+881F 21 06 00           ld    hl,6
 6287+8822 7D                 ld    a,l
 6288+8823 E6 07              and   %00000111
 6289+8825 6F                 ld    l,a
 6290+8826 3A F7 AF           ld    a,(attr_screen)
 6291+8829 E6 F8              and   %11111000
 6292+882B B5                 or    l
 6293+882C 32 F7 AF           ld    (attr_screen),a
 6294+882F 21 1E 00           ld    hl,30
 6295+8832 AF                 xor   a
 6296+8833 CB 3D              srl   l
 6297+8835 17                 rla
 6298+8836 32 F6 AF           ld    (half_tile_screen),a
 6299+8839 7D                 ld    a,l
 6300+883A 32 F4 AF           ld    (col_screen),a
 6301+883D 21 0C 00           ld    hl,12
 6302+8840 7D                 ld    a,l
 6303+8841 32 F5 AF           ld    (row_screen),a
 6304+8844 2A 6B B0           ld    hl,(_BESTSCORE)
 6305+8847 29                 add   hl,hl
 6306+8848 54                 ld    d,h
 6307+8849 5D                 ld    e,l
 6308+884A 29                 add   hl,hl
 6309+884B 29                 add   hl,hl
 6310+884C 19                 add   hl,de
 6311+884D CD 3A A5           call  convert_16bit_to_string
 6312+8850 21 E0 AF           ld    hl,string_number
 6313+8853 ED 4B F4 AF        ld    bc,(col_screen)
 6314+8857 CD 8D A5           call  print64
 6315+885A CD 2D A5           call  waiting_key
 6316+885D              L462
 6317+885D              L464
 6318+885D C9                 ret
 6319+885E              _GAMEOVER
 6320+885E AF                 xor   a
 6321+885F 32 5D B0           ld    (_OVER),a
 6322+8862 3E 01              ld    a,1
 6323+8864 32 5B B0           ld    (_Y),a
 6324+8867 3E 06              ld    a,6
 6325+8869 32 54 B5           ld    (Lim_Y),a
 6326+886C              L465
 6327+886C 3E 01              ld    a,1
 6328+886E 32 5A B0           ld    (_X),a
 6329+8871 3E 06              ld    a,6
 6330+8873 32 53 B5           ld    (Lim_X),a
 6331+8876              L467
 6332+8876 3A 5A B0           ld    a,(_X)
 6333+8879 6F                 ld    l,a
 6334+887A 26 00              ld    h,0
 6335+887C 2B                 dec   hl
 6336+887D 29                 add   hl,hl
 6337+887E 54                 ld    d,h
 6338+887F 5D                 ld    e,l
 6339+8880 29                 add   hl,hl
 6340+8881 19                 add   hl,de
 6341+8882 11 BD B4           ld    de,_MAPBLOCK
 6342+8885 19                 add   hl,de
 6343+8886 E5                 push  hl
 6344+8887 3A 5B B0           ld    a,(_Y)
 6345+888A 6F                 ld    l,a
 6346+888B 26 00              ld    h,0
 6347+888D 2B                 dec   hl
 6348+888E D1                 pop   de
 6349+888F 19                 add   hl,de
 6350+8890 AF                 xor   a
 6351+8891 BE                 cp    (hl)
 6352+8892 CA A0 88           jp    z,L469
 6353+8895              L470
 6354+8895 3A 5D B0           ld    a,(_OVER)
 6355+8898 6F                 ld    l,a
 6356+8899 26 00              ld    h,0
 6357+889B 23                 inc   hl
 6358+889C 7D                 ld    a,l
 6359+889D 32 5D B0           ld    (_OVER),a
 6360+88A0              L469
 6361+88A0              L471
 6362+88A0 3A 53 B5           ld    a,(Lim_X)
 6363+88A3 21 5A B0           ld    hl,_X
 6364+88A6 BE                 cp    (hl)
 6365+88A7 CA B1 88           jp    z,L468
 6366+88AA 21 5A B0           ld    hl,_X
 6367+88AD 34                 inc   (hl)
 6368+88AE C3 76 88           jp    L467
 6369+88B1              L468
 6370+88B1 3A 54 B5           ld    a,(Lim_Y)
 6371+88B4 21 5B B0           ld    hl,_Y
 6372+88B7 BE                 cp    (hl)
 6373+88B8 CA C2 88           jp    z,L466
 6374+88BB 21 5B B0           ld    hl,_Y
 6375+88BE 34                 inc   (hl)
 6376+88BF C3 6C 88           jp    L465
 6377+88C2              L466
 6378+88C2 3E 24              ld    a,36
 6379+88C4 21 5D B0           ld    hl,_OVER
 6380+88C7 BE                 cp    (hl)
 6381+88C8 C2 28 89           jp    nz,L472
 6382+88CB              L473
 6383+88CB 3E 14              ld    a,20
 6384+88CD 32 4F B0           ld    (sound_loop),a
 6385+88D0 3E 08              ld    a,8
 6386+88D2 32 51 B0           ld    (sound_time),a
 6387+88D5 AF                 xor   a
 6388+88D6 32 50 B0           ld    (sound_freq),a
 6389+88D9 CD 62 A3           call  sound_effect
 6390+88DC 3E 0F              ld    a,15
 6391+88DE 32 4F B0           ld    (sound_loop),a
 6392+88E1 3E 10              ld    a,16
 6393+88E3 32 51 B0           ld    (sound_time),a
 6394+88E6 AF                 xor   a
 6395+88E7 32 50 B0           ld    (sound_freq),a
 6396+88EA CD 62 A3           call  sound_effect
 6397+88ED              L475
 6398+88ED CD 50 A4           call  readkey
 6399+88F0 3A 00 B0           ld    a,(code_key_1)
 6400+88F3 32 67 B0           ld    (_KEY1),a
 6401+88F6 3A 01 B0           ld    a,(code_key_2)
 6402+88F9 32 68 B0           ld    (_KEY2),a
 6403+88FC AF                 xor   a
 6404+88FD 21 67 B0           ld    hl,_KEY1
 6405+8900 BE                 cp    (hl)
 6406+8901 CA 07 89           jp    z,L477
 6407+8904 C3 0A 89           jp    L476
 6408+8907              L477
 6409+8907 C3 ED 88           jp    L475
 6410+890A              L476
 6411+890A 3E 01              ld    a,1
 6412+890C 32 FC AF           ld    (col_window),a
 6413+890F 32 FD AF           ld    (row_window),a
 6414+8912 3E 1E              ld    a,30
 6415+8914 32 FE AF           ld    (width_window),a
 6416+8917 3E 14              ld    a,20
 6417+8919 32 FF AF           ld    (height_window),a
 6418+891C CD CD A7           call  window
 6419+891F CD EF 87           call  _BEST
 6420+8922 CD 44 5E           call  _TITLE
 6421+8925 CD 70 6E           call  _STARTSCR
 6422+8928              L472
 6423+8928              L474
 6424+8928 C9                 ret
 6425+8929              _LEFTMOVE
 6426+8929 3E 01              ld    a,1
 6427+892B 32 5B B0           ld    (_Y),a
 6428+892E 3E 06              ld    a,6
 6429+8930 32 54 B5           ld    (Lim_Y),a
 6430+8933              L478
 6431+8933 3E 01              ld    a,1
 6432+8935 32 5C B0           ld    (_I),a
 6433+8938 3E 05              ld    a,5
 6434+893A 32 5D B5           ld    (Lim_I),a
 6435+893D              L480
 6436+893D 3E 01              ld    a,1
 6437+893F 32 5A B0           ld    (_X),a
 6438+8942 3E 05              ld    a,5
 6439+8944 32 53 B5           ld    (Lim_X),a
 6440+8947              L482
 6441+8947 3A 5A B0           ld    a,(_X)
 6442+894A 6F                 ld    l,a
 6443+894B 26 00              ld    h,0
 6444+894D 2B                 dec   hl
 6445+894E 29                 add   hl,hl
 6446+894F 54                 ld    d,h
 6447+8950 5D                 ld    e,l
 6448+8951 29                 add   hl,hl
 6449+8952 19                 add   hl,de
 6450+8953 11 BD B4           ld    de,_MAPBLOCK
 6451+8956 19                 add   hl,de
 6452+8957 E5                 push  hl
 6453+8958 3A 5B B0           ld    a,(_Y)
 6454+895B 6F                 ld    l,a
 6455+895C 26 00              ld    h,0
 6456+895E 2B                 dec   hl
 6457+895F D1                 pop   de
 6458+8960 19                 add   hl,de
 6459+8961 AF                 xor   a
 6460+8962 BE                 cp    (hl)
 6461+8963 C2 19 8F           jp    nz,L484
 6462+8966 3A 5A B0           ld    a,(_X)
 6463+8969 6F                 ld    l,a
 6464+896A 26 00              ld    h,0
 6465+896C 29                 add   hl,hl
 6466+896D 54                 ld    d,h
 6467+896E 5D                 ld    e,l
 6468+896F 29                 add   hl,hl
 6469+8970 19                 add   hl,de
 6470+8971 11 BD B4           ld    de,_MAPBLOCK
 6471+8974 19                 add   hl,de
 6472+8975 E5                 push  hl
 6473+8976 3A 5B B0           ld    a,(_Y)
 6474+8979 6F                 ld    l,a
 6475+897A 26 00              ld    h,0
 6476+897C 2B                 dec   hl
 6477+897D D1                 pop   de
 6478+897E 19                 add   hl,de
 6479+897F AF                 xor   a
 6480+8980 BE                 cp    (hl)
 6481+8981 CA 19 8F           jp    z,L484
 6482+8984              L485
 6483+8984 3A 5A B0           ld    a,(_X)
 6484+8987 6F                 ld    l,a
 6485+8988 26 00              ld    h,0
 6486+898A 29                 add   hl,hl
 6487+898B 54                 ld    d,h
 6488+898C 5D                 ld    e,l
 6489+898D 29                 add   hl,hl
 6490+898E 19                 add   hl,de
 6491+898F 11 BD B4           ld    de,_MAPBLOCK
 6492+8992 19                 add   hl,de
 6493+8993 E5                 push  hl
 6494+8994 3A 5B B0           ld    a,(_Y)
 6495+8997 6F                 ld    l,a
 6496+8998 26 00              ld    h,0
 6497+899A 2B                 dec   hl
 6498+899B D1                 pop   de
 6499+899C 19                 add   hl,de
 6500+899D 6E                 ld    l,(hl)
 6501+899E 26 00              ld    h,0
 6502+89A0 7D                 ld    a,l
 6503+89A1 32 5E B5           ld    (_L487),a
 6504+89A4 FE 01              cp    1
 6505+89A6 CA AC 89           jp    z,L490
 6506+89A9 C3 69 8A           jp    L491
 6507+89AC              L490
 6508+89AC 3E 01              ld    a,1
 6509+89AE 32 60 B0           ld    (_Z),a
 6510+89B1 3E 03              ld    a,3
 6511+89B3 32 5F B5           ld    (Lim_Z),a
 6512+89B6              L492
 6513+89B6 21 8F C8           ld    hl,SPRCLR
 6514+89B9 E5                 push  hl
 6515+89BA 21 00 00           ld    hl,0
 6516+89BD 7D                 ld    a,l
 6517+89BE 32 F8 AF           ld    (attr_sprite),a
 6518+89C1 3A 5A B0           ld    a,(_X)
 6519+89C4 6F                 ld    l,a
 6520+89C5 26 00              ld    h,0
 6521+89C7 23                 inc   hl
 6522+89C8 54                 ld    d,h
 6523+89C9 5D                 ld    e,l
 6524+89CA 29                 add   hl,hl
 6525+89CB 19                 add   hl,de
 6526+89CC 2B                 dec   hl
 6527+89CD E5                 push  hl
 6528+89CE 3A 5B B0           ld    a,(_Y)
 6529+89D1 6F                 ld    l,a
 6530+89D2 26 00              ld    h,0
 6531+89D4 54                 ld    d,h
 6532+89D5 5D                 ld    e,l
 6533+89D6 29                 add   hl,hl
 6534+89D7 19                 add   hl,de
 6535+89D8 2B                 dec   hl
 6536+89D9 55                 ld    d,l
 6537+89DA E1                 pop   hl
 6538+89DB 5D                 ld    e,l
 6539+89DC E1                 pop   hl
 6540+89DD CD DA A4           call  put_spr_put
 6541+89E0 21 12 C6           ld    hl,SPRBLOCK1
 6542+89E3 E5                 push  hl
 6543+89E4 21 01 00           ld    hl,1
 6544+89E7 7D                 ld    a,l
 6545+89E8 32 F8 AF           ld    (attr_sprite),a
 6546+89EB 3A 5A B0           ld    a,(_X)
 6547+89EE 6F                 ld    l,a
 6548+89EF 26 00              ld    h,0
 6549+89F1 23                 inc   hl
 6550+89F2 54                 ld    d,h
 6551+89F3 5D                 ld    e,l
 6552+89F4 29                 add   hl,hl
 6553+89F5 19                 add   hl,de
 6554+89F6 2B                 dec   hl
 6555+89F7 3A 60 B0           ld    a,(_Z)
 6556+89FA 5F                 ld    e,a
 6557+89FB 16 00              ld    d,0
 6558+89FD A7                 and   a
 6559+89FE ED 52              sbc   hl,de
 6560+8A00 E5                 push  hl
 6561+8A01 3A 5B B0           ld    a,(_Y)
 6562+8A04 6F                 ld    l,a
 6563+8A05 26 00              ld    h,0
 6564+8A07 54                 ld    d,h
 6565+8A08 5D                 ld    e,l
 6566+8A09 29                 add   hl,hl
 6567+8A0A 19                 add   hl,de
 6568+8A0B 2B                 dec   hl
 6569+8A0C 55                 ld    d,l
 6570+8A0D E1                 pop   hl
 6571+8A0E 5D                 ld    e,l
 6572+8A0F E1                 pop   hl
 6573+8A10 CD DA A4           call  put_spr_put
 6574+8A13 3A 5F B5           ld    a,(Lim_Z)
 6575+8A16 21 60 B0           ld    hl,_Z
 6576+8A19 BE                 cp    (hl)
 6577+8A1A CA 24 8A           jp    z,L493
 6578+8A1D 21 60 B0           ld    hl,_Z
 6579+8A20 34                 inc   (hl)
 6580+8A21 C3 B6 89           jp    L492
 6581+8A24              L493
 6582+8A24 3A 5A B0           ld    a,(_X)
 6583+8A27 6F                 ld    l,a
 6584+8A28 26 00              ld    h,0
 6585+8A2A 2B                 dec   hl
 6586+8A2B 29                 add   hl,hl
 6587+8A2C 54                 ld    d,h
 6588+8A2D 5D                 ld    e,l
 6589+8A2E 29                 add   hl,hl
 6590+8A2F 19                 add   hl,de
 6591+8A30 11 BD B4           ld    de,_MAPBLOCK
 6592+8A33 19                 add   hl,de
 6593+8A34 E5                 push  hl
 6594+8A35 3A 5B B0           ld    a,(_Y)
 6595+8A38 6F                 ld    l,a
 6596+8A39 26 00              ld    h,0
 6597+8A3B 2B                 dec   hl
 6598+8A3C D1                 pop   de
 6599+8A3D 19                 add   hl,de
 6600+8A3E E5                 push  hl
 6601+8A3F 3A 5A B0           ld    a,(_X)
 6602+8A42 6F                 ld    l,a
 6603+8A43 26 00              ld    h,0
 6604+8A45 29                 add   hl,hl
 6605+8A46 54                 ld    d,h
 6606+8A47 5D                 ld    e,l
 6607+8A48 29                 add   hl,hl
 6608+8A49 19                 add   hl,de
 6609+8A4A 11 BD B4           ld    de,_MAPBLOCK
 6610+8A4D 19                 add   hl,de
 6611+8A4E E5                 push  hl
 6612+8A4F 3A 5B B0           ld    a,(_Y)
 6613+8A52 6F                 ld    l,a
 6614+8A53 26 00              ld    h,0
 6615+8A55 2B                 dec   hl
 6616+8A56 D1                 pop   de
 6617+8A57 19                 add   hl,de
 6618+8A58 22 EA AF           ld    (addr_arraybyte_index),hl
 6619+8A5B 6E                 ld    l,(hl)
 6620+8A5C 26 00              ld    h,0
 6621+8A5E D1                 pop   de
 6622+8A5F 7D                 ld    a,l
 6623+8A60 12                 ld    (de),a
 6624+8A61 2A EA AF           ld    hl,(addr_arraybyte_index)
 6625+8A64 36 00              ld    (hl),0
 6626+8A66 C3 19 8F           jp    L488
 6627+8A69              L491
 6628+8A69 3A 5E B5           ld    a,(_L487)
 6629+8A6C FE 02              cp    2
 6630+8A6E CA 74 8A           jp    z,L494
 6631+8A71 C3 31 8B           jp    L495
 6632+8A74              L494
 6633+8A74 3E 01              ld    a,1
 6634+8A76 32 60 B0           ld    (_Z),a
 6635+8A79 3E 03              ld    a,3
 6636+8A7B 32 5F B5           ld    (Lim_Z),a
 6637+8A7E              L496
 6638+8A7E 21 8F C8           ld    hl,SPRCLR
 6639+8A81 E5                 push  hl
 6640+8A82 21 00 00           ld    hl,0
 6641+8A85 7D                 ld    a,l
 6642+8A86 32 F8 AF           ld    (attr_sprite),a
 6643+8A89 3A 5A B0           ld    a,(_X)
 6644+8A8C 6F                 ld    l,a
 6645+8A8D 26 00              ld    h,0
 6646+8A8F 23                 inc   hl
 6647+8A90 54                 ld    d,h
 6648+8A91 5D                 ld    e,l
 6649+8A92 29                 add   hl,hl
 6650+8A93 19                 add   hl,de
 6651+8A94 2B                 dec   hl
 6652+8A95 E5                 push  hl
 6653+8A96 3A 5B B0           ld    a,(_Y)
 6654+8A99 6F                 ld    l,a
 6655+8A9A 26 00              ld    h,0
 6656+8A9C 54                 ld    d,h
 6657+8A9D 5D                 ld    e,l
 6658+8A9E 29                 add   hl,hl
 6659+8A9F 19                 add   hl,de
 6660+8AA0 2B                 dec   hl
 6661+8AA1 55                 ld    d,l
 6662+8AA2 E1                 pop   hl
 6663+8AA3 5D                 ld    e,l
 6664+8AA4 E1                 pop   hl
 6665+8AA5 CD DA A4           call  put_spr_put
 6666+8AA8 21 6D C6           ld    hl,SPRBLOCK2
 6667+8AAB E5                 push  hl
 6668+8AAC 21 02 00           ld    hl,2
 6669+8AAF 7D                 ld    a,l
 6670+8AB0 32 F8 AF           ld    (attr_sprite),a
 6671+8AB3 3A 5A B0           ld    a,(_X)
 6672+8AB6 6F                 ld    l,a
 6673+8AB7 26 00              ld    h,0
 6674+8AB9 23                 inc   hl
 6675+8ABA 54                 ld    d,h
 6676+8ABB 5D                 ld    e,l
 6677+8ABC 29                 add   hl,hl
 6678+8ABD 19                 add   hl,de
 6679+8ABE 2B                 dec   hl
 6680+8ABF 3A 60 B0           ld    a,(_Z)
 6681+8AC2 5F                 ld    e,a
 6682+8AC3 16 00              ld    d,0
 6683+8AC5 A7                 and   a
 6684+8AC6 ED 52              sbc   hl,de
 6685+8AC8 E5                 push  hl
 6686+8AC9 3A 5B B0           ld    a,(_Y)
 6687+8ACC 6F                 ld    l,a
 6688+8ACD 26 00              ld    h,0
 6689+8ACF 54                 ld    d,h
 6690+8AD0 5D                 ld    e,l
 6691+8AD1 29                 add   hl,hl
 6692+8AD2 19                 add   hl,de
 6693+8AD3 2B                 dec   hl
 6694+8AD4 55                 ld    d,l
 6695+8AD5 E1                 pop   hl
 6696+8AD6 5D                 ld    e,l
 6697+8AD7 E1                 pop   hl
 6698+8AD8 CD DA A4           call  put_spr_put
 6699+8ADB 3A 5F B5           ld    a,(Lim_Z)
 6700+8ADE 21 60 B0           ld    hl,_Z
 6701+8AE1 BE                 cp    (hl)
 6702+8AE2 CA EC 8A           jp    z,L497
 6703+8AE5 21 60 B0           ld    hl,_Z
 6704+8AE8 34                 inc   (hl)
 6705+8AE9 C3 7E 8A           jp    L496
 6706+8AEC              L497
 6707+8AEC 3A 5A B0           ld    a,(_X)
 6708+8AEF 6F                 ld    l,a
 6709+8AF0 26 00              ld    h,0
 6710+8AF2 2B                 dec   hl
 6711+8AF3 29                 add   hl,hl
 6712+8AF4 54                 ld    d,h
 6713+8AF5 5D                 ld    e,l
 6714+8AF6 29                 add   hl,hl
 6715+8AF7 19                 add   hl,de
 6716+8AF8 11 BD B4           ld    de,_MAPBLOCK
 6717+8AFB 19                 add   hl,de
 6718+8AFC E5                 push  hl
 6719+8AFD 3A 5B B0           ld    a,(_Y)
 6720+8B00 6F                 ld    l,a
 6721+8B01 26 00              ld    h,0
 6722+8B03 2B                 dec   hl
 6723+8B04 D1                 pop   de
 6724+8B05 19                 add   hl,de
 6725+8B06 E5                 push  hl
 6726+8B07 3A 5A B0           ld    a,(_X)
 6727+8B0A 6F                 ld    l,a
 6728+8B0B 26 00              ld    h,0
 6729+8B0D 29                 add   hl,hl
 6730+8B0E 54                 ld    d,h
 6731+8B0F 5D                 ld    e,l
 6732+8B10 29                 add   hl,hl
 6733+8B11 19                 add   hl,de
 6734+8B12 11 BD B4           ld    de,_MAPBLOCK
 6735+8B15 19                 add   hl,de
 6736+8B16 E5                 push  hl
 6737+8B17 3A 5B B0           ld    a,(_Y)
 6738+8B1A 6F                 ld    l,a
 6739+8B1B 26 00              ld    h,0
 6740+8B1D 2B                 dec   hl
 6741+8B1E D1                 pop   de
 6742+8B1F 19                 add   hl,de
 6743+8B20 22 EA AF           ld    (addr_arraybyte_index),hl
 6744+8B23 6E                 ld    l,(hl)
 6745+8B24 26 00              ld    h,0
 6746+8B26 D1                 pop   de
 6747+8B27 7D                 ld    a,l
 6748+8B28 12                 ld    (de),a
 6749+8B29 2A EA AF           ld    hl,(addr_arraybyte_index)
 6750+8B2C 36 00              ld    (hl),0
 6751+8B2E C3 19 8F           jp    L488
 6752+8B31              L495
 6753+8B31 3A 5E B5           ld    a,(_L487)
 6754+8B34 FE 03              cp    3
 6755+8B36 CA 3C 8B           jp    z,L498
 6756+8B39 C3 F9 8B           jp    L499
 6757+8B3C              L498
 6758+8B3C 3E 01              ld    a,1
 6759+8B3E 32 60 B0           ld    (_Z),a
 6760+8B41 3E 03              ld    a,3
 6761+8B43 32 5F B5           ld    (Lim_Z),a
 6762+8B46              L500
 6763+8B46 21 8F C8           ld    hl,SPRCLR
 6764+8B49 E5                 push  hl
 6765+8B4A 21 00 00           ld    hl,0
 6766+8B4D 7D                 ld    a,l
 6767+8B4E 32 F8 AF           ld    (attr_sprite),a
 6768+8B51 3A 5A B0           ld    a,(_X)
 6769+8B54 6F                 ld    l,a
 6770+8B55 26 00              ld    h,0
 6771+8B57 23                 inc   hl
 6772+8B58 54                 ld    d,h
 6773+8B59 5D                 ld    e,l
 6774+8B5A 29                 add   hl,hl
 6775+8B5B 19                 add   hl,de
 6776+8B5C 2B                 dec   hl
 6777+8B5D E5                 push  hl
 6778+8B5E 3A 5B B0           ld    a,(_Y)
 6779+8B61 6F                 ld    l,a
 6780+8B62 26 00              ld    h,0
 6781+8B64 54                 ld    d,h
 6782+8B65 5D                 ld    e,l
 6783+8B66 29                 add   hl,hl
 6784+8B67 19                 add   hl,de
 6785+8B68 2B                 dec   hl
 6786+8B69 55                 ld    d,l
 6787+8B6A E1                 pop   hl
 6788+8B6B 5D                 ld    e,l
 6789+8B6C E1                 pop   hl
 6790+8B6D CD DA A4           call  put_spr_put
 6791+8B70 21 C8 C6           ld    hl,SPRBLOCK3
 6792+8B73 E5                 push  hl
 6793+8B74 21 03 00           ld    hl,3
 6794+8B77 7D                 ld    a,l
 6795+8B78 32 F8 AF           ld    (attr_sprite),a
 6796+8B7B 3A 5A B0           ld    a,(_X)
 6797+8B7E 6F                 ld    l,a
 6798+8B7F 26 00              ld    h,0
 6799+8B81 23                 inc   hl
 6800+8B82 54                 ld    d,h
 6801+8B83 5D                 ld    e,l
 6802+8B84 29                 add   hl,hl
 6803+8B85 19                 add   hl,de
 6804+8B86 2B                 dec   hl
 6805+8B87 3A 60 B0           ld    a,(_Z)
 6806+8B8A 5F                 ld    e,a
 6807+8B8B 16 00              ld    d,0
 6808+8B8D A7                 and   a
 6809+8B8E ED 52              sbc   hl,de
 6810+8B90 E5                 push  hl
 6811+8B91 3A 5B B0           ld    a,(_Y)
 6812+8B94 6F                 ld    l,a
 6813+8B95 26 00              ld    h,0
 6814+8B97 54                 ld    d,h
 6815+8B98 5D                 ld    e,l
 6816+8B99 29                 add   hl,hl
 6817+8B9A 19                 add   hl,de
 6818+8B9B 2B                 dec   hl
 6819+8B9C 55                 ld    d,l
 6820+8B9D E1                 pop   hl
 6821+8B9E 5D                 ld    e,l
 6822+8B9F E1                 pop   hl
 6823+8BA0 CD DA A4           call  put_spr_put
 6824+8BA3 3A 5F B5           ld    a,(Lim_Z)
 6825+8BA6 21 60 B0           ld    hl,_Z
 6826+8BA9 BE                 cp    (hl)
 6827+8BAA CA B4 8B           jp    z,L501
 6828+8BAD 21 60 B0           ld    hl,_Z
 6829+8BB0 34                 inc   (hl)
 6830+8BB1 C3 46 8B           jp    L500
 6831+8BB4              L501
 6832+8BB4 3A 5A B0           ld    a,(_X)
 6833+8BB7 6F                 ld    l,a
 6834+8BB8 26 00              ld    h,0
 6835+8BBA 2B                 dec   hl
 6836+8BBB 29                 add   hl,hl
 6837+8BBC 54                 ld    d,h
 6838+8BBD 5D                 ld    e,l
 6839+8BBE 29                 add   hl,hl
 6840+8BBF 19                 add   hl,de
 6841+8BC0 11 BD B4           ld    de,_MAPBLOCK
 6842+8BC3 19                 add   hl,de
 6843+8BC4 E5                 push  hl
 6844+8BC5 3A 5B B0           ld    a,(_Y)
 6845+8BC8 6F                 ld    l,a
 6846+8BC9 26 00              ld    h,0
 6847+8BCB 2B                 dec   hl
 6848+8BCC D1                 pop   de
 6849+8BCD 19                 add   hl,de
 6850+8BCE E5                 push  hl
 6851+8BCF 3A 5A B0           ld    a,(_X)
 6852+8BD2 6F                 ld    l,a
 6853+8BD3 26 00              ld    h,0
 6854+8BD5 29                 add   hl,hl
 6855+8BD6 54                 ld    d,h
 6856+8BD7 5D                 ld    e,l
 6857+8BD8 29                 add   hl,hl
 6858+8BD9 19                 add   hl,de
 6859+8BDA 11 BD B4           ld    de,_MAPBLOCK
 6860+8BDD 19                 add   hl,de
 6861+8BDE E5                 push  hl
 6862+8BDF 3A 5B B0           ld    a,(_Y)
 6863+8BE2 6F                 ld    l,a
 6864+8BE3 26 00              ld    h,0
 6865+8BE5 2B                 dec   hl
 6866+8BE6 D1                 pop   de
 6867+8BE7 19                 add   hl,de
 6868+8BE8 22 EA AF           ld    (addr_arraybyte_index),hl
 6869+8BEB 6E                 ld    l,(hl)
 6870+8BEC 26 00              ld    h,0
 6871+8BEE D1                 pop   de
 6872+8BEF 7D                 ld    a,l
 6873+8BF0 12                 ld    (de),a
 6874+8BF1 2A EA AF           ld    hl,(addr_arraybyte_index)
 6875+8BF4 36 00              ld    (hl),0
 6876+8BF6 C3 19 8F           jp    L488
 6877+8BF9              L499
 6878+8BF9 3A 5E B5           ld    a,(_L487)
 6879+8BFC FE 04              cp    4
 6880+8BFE CA 04 8C           jp    z,L502
 6881+8C01 C3 C1 8C           jp    L503
 6882+8C04              L502
 6883+8C04 3E 01              ld    a,1
 6884+8C06 32 60 B0           ld    (_Z),a
 6885+8C09 3E 03              ld    a,3
 6886+8C0B 32 5F B5           ld    (Lim_Z),a
 6887+8C0E              L504
 6888+8C0E 21 8F C8           ld    hl,SPRCLR
 6889+8C11 E5                 push  hl
 6890+8C12 21 00 00           ld    hl,0
 6891+8C15 7D                 ld    a,l
 6892+8C16 32 F8 AF           ld    (attr_sprite),a
 6893+8C19 3A 5A B0           ld    a,(_X)
 6894+8C1C 6F                 ld    l,a
 6895+8C1D 26 00              ld    h,0
 6896+8C1F 23                 inc   hl
 6897+8C20 54                 ld    d,h
 6898+8C21 5D                 ld    e,l
 6899+8C22 29                 add   hl,hl
 6900+8C23 19                 add   hl,de
 6901+8C24 2B                 dec   hl
 6902+8C25 E5                 push  hl
 6903+8C26 3A 5B B0           ld    a,(_Y)
 6904+8C29 6F                 ld    l,a
 6905+8C2A 26 00              ld    h,0
 6906+8C2C 54                 ld    d,h
 6907+8C2D 5D                 ld    e,l
 6908+8C2E 29                 add   hl,hl
 6909+8C2F 19                 add   hl,de
 6910+8C30 2B                 dec   hl
 6911+8C31 55                 ld    d,l
 6912+8C32 E1                 pop   hl
 6913+8C33 5D                 ld    e,l
 6914+8C34 E1                 pop   hl
 6915+8C35 CD DA A4           call  put_spr_put
 6916+8C38 21 23 C7           ld    hl,SPRBLOCK4
 6917+8C3B E5                 push  hl
 6918+8C3C 21 04 00           ld    hl,4
 6919+8C3F 7D                 ld    a,l
 6920+8C40 32 F8 AF           ld    (attr_sprite),a
 6921+8C43 3A 5A B0           ld    a,(_X)
 6922+8C46 6F                 ld    l,a
 6923+8C47 26 00              ld    h,0
 6924+8C49 23                 inc   hl
 6925+8C4A 54                 ld    d,h
 6926+8C4B 5D                 ld    e,l
 6927+8C4C 29                 add   hl,hl
 6928+8C4D 19                 add   hl,de
 6929+8C4E 2B                 dec   hl
 6930+8C4F 3A 60 B0           ld    a,(_Z)
 6931+8C52 5F                 ld    e,a
 6932+8C53 16 00              ld    d,0
 6933+8C55 A7                 and   a
 6934+8C56 ED 52              sbc   hl,de
 6935+8C58 E5                 push  hl
 6936+8C59 3A 5B B0           ld    a,(_Y)
 6937+8C5C 6F                 ld    l,a
 6938+8C5D 26 00              ld    h,0
 6939+8C5F 54                 ld    d,h
 6940+8C60 5D                 ld    e,l
 6941+8C61 29                 add   hl,hl
 6942+8C62 19                 add   hl,de
 6943+8C63 2B                 dec   hl
 6944+8C64 55                 ld    d,l
 6945+8C65 E1                 pop   hl
 6946+8C66 5D                 ld    e,l
 6947+8C67 E1                 pop   hl
 6948+8C68 CD DA A4           call  put_spr_put
 6949+8C6B 3A 5F B5           ld    a,(Lim_Z)
 6950+8C6E 21 60 B0           ld    hl,_Z
 6951+8C71 BE                 cp    (hl)
 6952+8C72 CA 7C 8C           jp    z,L505
 6953+8C75 21 60 B0           ld    hl,_Z
 6954+8C78 34                 inc   (hl)
 6955+8C79 C3 0E 8C           jp    L504
 6956+8C7C              L505
 6957+8C7C 3A 5A B0           ld    a,(_X)
 6958+8C7F 6F                 ld    l,a
 6959+8C80 26 00              ld    h,0
 6960+8C82 2B                 dec   hl
 6961+8C83 29                 add   hl,hl
 6962+8C84 54                 ld    d,h
 6963+8C85 5D                 ld    e,l
 6964+8C86 29                 add   hl,hl
 6965+8C87 19                 add   hl,de
 6966+8C88 11 BD B4           ld    de,_MAPBLOCK
 6967+8C8B 19                 add   hl,de
 6968+8C8C E5                 push  hl
 6969+8C8D 3A 5B B0           ld    a,(_Y)
 6970+8C90 6F                 ld    l,a
 6971+8C91 26 00              ld    h,0
 6972+8C93 2B                 dec   hl
 6973+8C94 D1                 pop   de
 6974+8C95 19                 add   hl,de
 6975+8C96 E5                 push  hl
 6976+8C97 3A 5A B0           ld    a,(_X)
 6977+8C9A 6F                 ld    l,a
 6978+8C9B 26 00              ld    h,0
 6979+8C9D 29                 add   hl,hl
 6980+8C9E 54                 ld    d,h
 6981+8C9F 5D                 ld    e,l
 6982+8CA0 29                 add   hl,hl
 6983+8CA1 19                 add   hl,de
 6984+8CA2 11 BD B4           ld    de,_MAPBLOCK
 6985+8CA5 19                 add   hl,de
 6986+8CA6 E5                 push  hl
 6987+8CA7 3A 5B B0           ld    a,(_Y)
 6988+8CAA 6F                 ld    l,a
 6989+8CAB 26 00              ld    h,0
 6990+8CAD 2B                 dec   hl
 6991+8CAE D1                 pop   de
 6992+8CAF 19                 add   hl,de
 6993+8CB0 22 EA AF           ld    (addr_arraybyte_index),hl
 6994+8CB3 6E                 ld    l,(hl)
 6995+8CB4 26 00              ld    h,0
 6996+8CB6 D1                 pop   de
 6997+8CB7 7D                 ld    a,l
 6998+8CB8 12                 ld    (de),a
 6999+8CB9 2A EA AF           ld    hl,(addr_arraybyte_index)
 7000+8CBC 36 00              ld    (hl),0
 7001+8CBE C3 19 8F           jp    L488
 7002+8CC1              L503
 7003+8CC1 3A 5E B5           ld    a,(_L487)
 7004+8CC4 FE 05              cp    5
 7005+8CC6 CA CC 8C           jp    z,L506
 7006+8CC9 C3 89 8D           jp    L507
 7007+8CCC              L506
 7008+8CCC 3E 01              ld    a,1
 7009+8CCE 32 60 B0           ld    (_Z),a
 7010+8CD1 3E 03              ld    a,3
 7011+8CD3 32 5F B5           ld    (Lim_Z),a
 7012+8CD6              L508
 7013+8CD6 21 8F C8           ld    hl,SPRCLR
 7014+8CD9 E5                 push  hl
 7015+8CDA 21 00 00           ld    hl,0
 7016+8CDD 7D                 ld    a,l
 7017+8CDE 32 F8 AF           ld    (attr_sprite),a
 7018+8CE1 3A 5A B0           ld    a,(_X)
 7019+8CE4 6F                 ld    l,a
 7020+8CE5 26 00              ld    h,0
 7021+8CE7 23                 inc   hl
 7022+8CE8 54                 ld    d,h
 7023+8CE9 5D                 ld    e,l
 7024+8CEA 29                 add   hl,hl
 7025+8CEB 19                 add   hl,de
 7026+8CEC 2B                 dec   hl
 7027+8CED E5                 push  hl
 7028+8CEE 3A 5B B0           ld    a,(_Y)
 7029+8CF1 6F                 ld    l,a
 7030+8CF2 26 00              ld    h,0
 7031+8CF4 54                 ld    d,h
 7032+8CF5 5D                 ld    e,l
 7033+8CF6 29                 add   hl,hl
 7034+8CF7 19                 add   hl,de
 7035+8CF8 2B                 dec   hl
 7036+8CF9 55                 ld    d,l
 7037+8CFA E1                 pop   hl
 7038+8CFB 5D                 ld    e,l
 7039+8CFC E1                 pop   hl
 7040+8CFD CD DA A4           call  put_spr_put
 7041+8D00 21 7E C7           ld    hl,SPRBLOCK5
 7042+8D03 E5                 push  hl
 7043+8D04 21 05 00           ld    hl,5
 7044+8D07 7D                 ld    a,l
 7045+8D08 32 F8 AF           ld    (attr_sprite),a
 7046+8D0B 3A 5A B0           ld    a,(_X)
 7047+8D0E 6F                 ld    l,a
 7048+8D0F 26 00              ld    h,0
 7049+8D11 23                 inc   hl
 7050+8D12 54                 ld    d,h
 7051+8D13 5D                 ld    e,l
 7052+8D14 29                 add   hl,hl
 7053+8D15 19                 add   hl,de
 7054+8D16 2B                 dec   hl
 7055+8D17 3A 60 B0           ld    a,(_Z)
 7056+8D1A 5F                 ld    e,a
 7057+8D1B 16 00              ld    d,0
 7058+8D1D A7                 and   a
 7059+8D1E ED 52              sbc   hl,de
 7060+8D20 E5                 push  hl
 7061+8D21 3A 5B B0           ld    a,(_Y)
 7062+8D24 6F                 ld    l,a
 7063+8D25 26 00              ld    h,0
 7064+8D27 54                 ld    d,h
 7065+8D28 5D                 ld    e,l
 7066+8D29 29                 add   hl,hl
 7067+8D2A 19                 add   hl,de
 7068+8D2B 2B                 dec   hl
 7069+8D2C 55                 ld    d,l
 7070+8D2D E1                 pop   hl
 7071+8D2E 5D                 ld    e,l
 7072+8D2F E1                 pop   hl
 7073+8D30 CD DA A4           call  put_spr_put
 7074+8D33 3A 5F B5           ld    a,(Lim_Z)
 7075+8D36 21 60 B0           ld    hl,_Z
 7076+8D39 BE                 cp    (hl)
 7077+8D3A CA 44 8D           jp    z,L509
 7078+8D3D 21 60 B0           ld    hl,_Z
 7079+8D40 34                 inc   (hl)
 7080+8D41 C3 D6 8C           jp    L508
 7081+8D44              L509
 7082+8D44 3A 5A B0           ld    a,(_X)
 7083+8D47 6F                 ld    l,a
 7084+8D48 26 00              ld    h,0
 7085+8D4A 2B                 dec   hl
 7086+8D4B 29                 add   hl,hl
 7087+8D4C 54                 ld    d,h
 7088+8D4D 5D                 ld    e,l
 7089+8D4E 29                 add   hl,hl
 7090+8D4F 19                 add   hl,de
 7091+8D50 11 BD B4           ld    de,_MAPBLOCK
 7092+8D53 19                 add   hl,de
 7093+8D54 E5                 push  hl
 7094+8D55 3A 5B B0           ld    a,(_Y)
 7095+8D58 6F                 ld    l,a
 7096+8D59 26 00              ld    h,0
 7097+8D5B 2B                 dec   hl
 7098+8D5C D1                 pop   de
 7099+8D5D 19                 add   hl,de
 7100+8D5E E5                 push  hl
 7101+8D5F 3A 5A B0           ld    a,(_X)
 7102+8D62 6F                 ld    l,a
 7103+8D63 26 00              ld    h,0
 7104+8D65 29                 add   hl,hl
 7105+8D66 54                 ld    d,h
 7106+8D67 5D                 ld    e,l
 7107+8D68 29                 add   hl,hl
 7108+8D69 19                 add   hl,de
 7109+8D6A 11 BD B4           ld    de,_MAPBLOCK
 7110+8D6D 19                 add   hl,de
 7111+8D6E E5                 push  hl
 7112+8D6F 3A 5B B0           ld    a,(_Y)
 7113+8D72 6F                 ld    l,a
 7114+8D73 26 00              ld    h,0
 7115+8D75 2B                 dec   hl
 7116+8D76 D1                 pop   de
 7117+8D77 19                 add   hl,de
 7118+8D78 22 EA AF           ld    (addr_arraybyte_index),hl
 7119+8D7B 6E                 ld    l,(hl)
 7120+8D7C 26 00              ld    h,0
 7121+8D7E D1                 pop   de
 7122+8D7F 7D                 ld    a,l
 7123+8D80 12                 ld    (de),a
 7124+8D81 2A EA AF           ld    hl,(addr_arraybyte_index)
 7125+8D84 36 00              ld    (hl),0
 7126+8D86 C3 19 8F           jp    L488
 7127+8D89              L507
 7128+8D89 3A 5E B5           ld    a,(_L487)
 7129+8D8C FE 06              cp    6
 7130+8D8E CA 94 8D           jp    z,L510
 7131+8D91 C3 51 8E           jp    L511
 7132+8D94              L510
 7133+8D94 3E 01              ld    a,1
 7134+8D96 32 60 B0           ld    (_Z),a
 7135+8D99 3E 03              ld    a,3
 7136+8D9B 32 5F B5           ld    (Lim_Z),a
 7137+8D9E              L512
 7138+8D9E 21 8F C8           ld    hl,SPRCLR
 7139+8DA1 E5                 push  hl
 7140+8DA2 21 00 00           ld    hl,0
 7141+8DA5 7D                 ld    a,l
 7142+8DA6 32 F8 AF           ld    (attr_sprite),a
 7143+8DA9 3A 5A B0           ld    a,(_X)
 7144+8DAC 6F                 ld    l,a
 7145+8DAD 26 00              ld    h,0
 7146+8DAF 23                 inc   hl
 7147+8DB0 54                 ld    d,h
 7148+8DB1 5D                 ld    e,l
 7149+8DB2 29                 add   hl,hl
 7150+8DB3 19                 add   hl,de
 7151+8DB4 2B                 dec   hl
 7152+8DB5 E5                 push  hl
 7153+8DB6 3A 5B B0           ld    a,(_Y)
 7154+8DB9 6F                 ld    l,a
 7155+8DBA 26 00              ld    h,0
 7156+8DBC 54                 ld    d,h
 7157+8DBD 5D                 ld    e,l
 7158+8DBE 29                 add   hl,hl
 7159+8DBF 19                 add   hl,de
 7160+8DC0 2B                 dec   hl
 7161+8DC1 55                 ld    d,l
 7162+8DC2 E1                 pop   hl
 7163+8DC3 5D                 ld    e,l
 7164+8DC4 E1                 pop   hl
 7165+8DC5 CD DA A4           call  put_spr_put
 7166+8DC8 21 D9 C7           ld    hl,SPRBLOCK6
 7167+8DCB E5                 push  hl
 7168+8DCC 21 06 00           ld    hl,6
 7169+8DCF 7D                 ld    a,l
 7170+8DD0 32 F8 AF           ld    (attr_sprite),a
 7171+8DD3 3A 5A B0           ld    a,(_X)
 7172+8DD6 6F                 ld    l,a
 7173+8DD7 26 00              ld    h,0
 7174+8DD9 23                 inc   hl
 7175+8DDA 54                 ld    d,h
 7176+8DDB 5D                 ld    e,l
 7177+8DDC 29                 add   hl,hl
 7178+8DDD 19                 add   hl,de
 7179+8DDE 2B                 dec   hl
 7180+8DDF 3A 60 B0           ld    a,(_Z)
 7181+8DE2 5F                 ld    e,a
 7182+8DE3 16 00              ld    d,0
 7183+8DE5 A7                 and   a
 7184+8DE6 ED 52              sbc   hl,de
 7185+8DE8 E5                 push  hl
 7186+8DE9 3A 5B B0           ld    a,(_Y)
 7187+8DEC 6F                 ld    l,a
 7188+8DED 26 00              ld    h,0
 7189+8DEF 54                 ld    d,h
 7190+8DF0 5D                 ld    e,l
 7191+8DF1 29                 add   hl,hl
 7192+8DF2 19                 add   hl,de
 7193+8DF3 2B                 dec   hl
 7194+8DF4 55                 ld    d,l
 7195+8DF5 E1                 pop   hl
 7196+8DF6 5D                 ld    e,l
 7197+8DF7 E1                 pop   hl
 7198+8DF8 CD DA A4           call  put_spr_put
 7199+8DFB 3A 5F B5           ld    a,(Lim_Z)
 7200+8DFE 21 60 B0           ld    hl,_Z
 7201+8E01 BE                 cp    (hl)
 7202+8E02 CA 0C 8E           jp    z,L513
 7203+8E05 21 60 B0           ld    hl,_Z
 7204+8E08 34                 inc   (hl)
 7205+8E09 C3 9E 8D           jp    L512
 7206+8E0C              L513
 7207+8E0C 3A 5A B0           ld    a,(_X)
 7208+8E0F 6F                 ld    l,a
 7209+8E10 26 00              ld    h,0
 7210+8E12 2B                 dec   hl
 7211+8E13 29                 add   hl,hl
 7212+8E14 54                 ld    d,h
 7213+8E15 5D                 ld    e,l
 7214+8E16 29                 add   hl,hl
 7215+8E17 19                 add   hl,de
 7216+8E18 11 BD B4           ld    de,_MAPBLOCK
 7217+8E1B 19                 add   hl,de
 7218+8E1C E5                 push  hl
 7219+8E1D 3A 5B B0           ld    a,(_Y)
 7220+8E20 6F                 ld    l,a
 7221+8E21 26 00              ld    h,0
 7222+8E23 2B                 dec   hl
 7223+8E24 D1                 pop   de
 7224+8E25 19                 add   hl,de
 7225+8E26 E5                 push  hl
 7226+8E27 3A 5A B0           ld    a,(_X)
 7227+8E2A 6F                 ld    l,a
 7228+8E2B 26 00              ld    h,0
 7229+8E2D 29                 add   hl,hl
 7230+8E2E 54                 ld    d,h
 7231+8E2F 5D                 ld    e,l
 7232+8E30 29                 add   hl,hl
 7233+8E31 19                 add   hl,de
 7234+8E32 11 BD B4           ld    de,_MAPBLOCK
 7235+8E35 19                 add   hl,de
 7236+8E36 E5                 push  hl
 7237+8E37 3A 5B B0           ld    a,(_Y)
 7238+8E3A 6F                 ld    l,a
 7239+8E3B 26 00              ld    h,0
 7240+8E3D 2B                 dec   hl
 7241+8E3E D1                 pop   de
 7242+8E3F 19                 add   hl,de
 7243+8E40 22 EA AF           ld    (addr_arraybyte_index),hl
 7244+8E43 6E                 ld    l,(hl)
 7245+8E44 26 00              ld    h,0
 7246+8E46 D1                 pop   de
 7247+8E47 7D                 ld    a,l
 7248+8E48 12                 ld    (de),a
 7249+8E49 2A EA AF           ld    hl,(addr_arraybyte_index)
 7250+8E4C 36 00              ld    (hl),0
 7251+8E4E C3 19 8F           jp    L488
 7252+8E51              L511
 7253+8E51 3A 5E B5           ld    a,(_L487)
 7254+8E54 FE 07              cp    7
 7255+8E56 CA 5C 8E           jp    z,L514
 7256+8E59 C3 19 8F           jp    L515
 7257+8E5C              L514
 7258+8E5C 3E 01              ld    a,1
 7259+8E5E 32 60 B0           ld    (_Z),a
 7260+8E61 3E 03              ld    a,3
 7261+8E63 32 5F B5           ld    (Lim_Z),a
 7262+8E66              L516
 7263+8E66 21 8F C8           ld    hl,SPRCLR
 7264+8E69 E5                 push  hl
 7265+8E6A 21 00 00           ld    hl,0
 7266+8E6D 7D                 ld    a,l
 7267+8E6E 32 F8 AF           ld    (attr_sprite),a
 7268+8E71 3A 5A B0           ld    a,(_X)
 7269+8E74 6F                 ld    l,a
 7270+8E75 26 00              ld    h,0
 7271+8E77 23                 inc   hl
 7272+8E78 54                 ld    d,h
 7273+8E79 5D                 ld    e,l
 7274+8E7A 29                 add   hl,hl
 7275+8E7B 19                 add   hl,de
 7276+8E7C 2B                 dec   hl
 7277+8E7D E5                 push  hl
 7278+8E7E 3A 5B B0           ld    a,(_Y)
 7279+8E81 6F                 ld    l,a
 7280+8E82 26 00              ld    h,0
 7281+8E84 54                 ld    d,h
 7282+8E85 5D                 ld    e,l
 7283+8E86 29                 add   hl,hl
 7284+8E87 19                 add   hl,de
 7285+8E88 2B                 dec   hl
 7286+8E89 55                 ld    d,l
 7287+8E8A E1                 pop   hl
 7288+8E8B 5D                 ld    e,l
 7289+8E8C E1                 pop   hl
 7290+8E8D CD DA A4           call  put_spr_put
 7291+8E90 21 34 C8           ld    hl,SPRBLOCK7
 7292+8E93 E5                 push  hl
 7293+8E94 21 47 00           ld    hl,71
 7294+8E97 7D                 ld    a,l
 7295+8E98 32 F8 AF           ld    (attr_sprite),a
 7296+8E9B 3A 5A B0           ld    a,(_X)
 7297+8E9E 6F                 ld    l,a
 7298+8E9F 26 00              ld    h,0
 7299+8EA1 23                 inc   hl
 7300+8EA2 54                 ld    d,h
 7301+8EA3 5D                 ld    e,l
 7302+8EA4 29                 add   hl,hl
 7303+8EA5 19                 add   hl,de
 7304+8EA6 2B                 dec   hl
 7305+8EA7 3A 60 B0           ld    a,(_Z)
 7306+8EAA 5F                 ld    e,a
 7307+8EAB 16 00              ld    d,0
 7308+8EAD A7                 and   a
 7309+8EAE ED 52              sbc   hl,de
 7310+8EB0 E5                 push  hl
 7311+8EB1 3A 5B B0           ld    a,(_Y)
 7312+8EB4 6F                 ld    l,a
 7313+8EB5 26 00              ld    h,0
 7314+8EB7 54                 ld    d,h
 7315+8EB8 5D                 ld    e,l
 7316+8EB9 29                 add   hl,hl
 7317+8EBA 19                 add   hl,de
 7318+8EBB 2B                 dec   hl
 7319+8EBC 55                 ld    d,l
 7320+8EBD E1                 pop   hl
 7321+8EBE 5D                 ld    e,l
 7322+8EBF E1                 pop   hl
 7323+8EC0 CD DA A4           call  put_spr_put
 7324+8EC3 3A 5F B5           ld    a,(Lim_Z)
 7325+8EC6 21 60 B0           ld    hl,_Z
 7326+8EC9 BE                 cp    (hl)
 7327+8ECA CA D4 8E           jp    z,L517
 7328+8ECD 21 60 B0           ld    hl,_Z
 7329+8ED0 34                 inc   (hl)
 7330+8ED1 C3 66 8E           jp    L516
 7331+8ED4              L517
 7332+8ED4 3A 5A B0           ld    a,(_X)
 7333+8ED7 6F                 ld    l,a
 7334+8ED8 26 00              ld    h,0
 7335+8EDA 2B                 dec   hl
 7336+8EDB 29                 add   hl,hl
 7337+8EDC 54                 ld    d,h
 7338+8EDD 5D                 ld    e,l
 7339+8EDE 29                 add   hl,hl
 7340+8EDF 19                 add   hl,de
 7341+8EE0 11 BD B4           ld    de,_MAPBLOCK
 7342+8EE3 19                 add   hl,de
 7343+8EE4 E5                 push  hl
 7344+8EE5 3A 5B B0           ld    a,(_Y)
 7345+8EE8 6F                 ld    l,a
 7346+8EE9 26 00              ld    h,0
 7347+8EEB 2B                 dec   hl
 7348+8EEC D1                 pop   de
 7349+8EED 19                 add   hl,de
 7350+8EEE E5                 push  hl
 7351+8EEF 3A 5A B0           ld    a,(_X)
 7352+8EF2 6F                 ld    l,a
 7353+8EF3 26 00              ld    h,0
 7354+8EF5 29                 add   hl,hl
 7355+8EF6 54                 ld    d,h
 7356+8EF7 5D                 ld    e,l
 7357+8EF8 29                 add   hl,hl
 7358+8EF9 19                 add   hl,de
 7359+8EFA 11 BD B4           ld    de,_MAPBLOCK
 7360+8EFD 19                 add   hl,de
 7361+8EFE E5                 push  hl
 7362+8EFF 3A 5B B0           ld    a,(_Y)
 7363+8F02 6F                 ld    l,a
 7364+8F03 26 00              ld    h,0
 7365+8F05 2B                 dec   hl
 7366+8F06 D1                 pop   de
 7367+8F07 19                 add   hl,de
 7368+8F08 22 EA AF           ld    (addr_arraybyte_index),hl
 7369+8F0B 6E                 ld    l,(hl)
 7370+8F0C 26 00              ld    h,0
 7371+8F0E D1                 pop   de
 7372+8F0F 7D                 ld    a,l
 7373+8F10 12                 ld    (de),a
 7374+8F11 2A EA AF           ld    hl,(addr_arraybyte_index)
 7375+8F14 36 00              ld    (hl),0
 7376+8F16 C3 19 8F           jp    L488
 7377+8F19              L515
 7378+8F19              L488
 7379+8F19              L484
 7380+8F19              L486
 7381+8F19 3A 53 B5           ld    a,(Lim_X)
 7382+8F1C 21 5A B0           ld    hl,_X
 7383+8F1F BE                 cp    (hl)
 7384+8F20 CA 2A 8F           jp    z,L483
 7385+8F23 21 5A B0           ld    hl,_X
 7386+8F26 34                 inc   (hl)
 7387+8F27 C3 47 89           jp    L482
 7388+8F2A              L483
 7389+8F2A 3A 5D B5           ld    a,(Lim_I)
 7390+8F2D 21 5C B0           ld    hl,_I
 7391+8F30 BE                 cp    (hl)
 7392+8F31 CA 3B 8F           jp    z,L481
 7393+8F34 21 5C B0           ld    hl,_I
 7394+8F37 34                 inc   (hl)
 7395+8F38 C3 3D 89           jp    L480
 7396+8F3B              L481
 7397+8F3B 3A 54 B5           ld    a,(Lim_Y)
 7398+8F3E 21 5B B0           ld    hl,_Y
 7399+8F41 BE                 cp    (hl)
 7400+8F42 CA 4C 8F           jp    z,L479
 7401+8F45 21 5B B0           ld    hl,_Y
 7402+8F48 34                 inc   (hl)
 7403+8F49 C3 33 89           jp    L478
 7404+8F4C              L479
 7405+8F4C 3E 01              ld    a,1
 7406+8F4E 32 4F B0           ld    (sound_loop),a
 7407+8F51 3E 03              ld    a,3
 7408+8F53 32 51 B0           ld    (sound_time),a
 7409+8F56 AF                 xor   a
 7410+8F57 32 50 B0           ld    (sound_freq),a
 7411+8F5A CD 62 A3           call  sound_effect
 7412+8F5D 3E 01              ld    a,1
 7413+8F5F 32 63 B0           ld    (_SEVENFLAG),a
 7414+8F62 CD EF 6F           call  _DELET
 7415+8F65 AF                 xor   a
 7416+8F66 21 62 B0           ld    hl,_S
 7417+8F69 BE                 cp    (hl)
 7418+8F6A C2 82 8F           jp    nz,L518
 7419+8F6D              L519
 7420+8F6D 3E 1C              ld    a,28
 7421+8F6F 21 5D B0           ld    hl,_OVER
 7422+8F72 BE                 cp    (hl)
 7423+8F73 CA 7F 8F           jp    z,L521
 7424+8F76 DA 7F 8F           jp    c,L521
 7425+8F79              L522
 7426+8F79 CD EA 64           call  _BLOCKGEN
 7427+8F7C C3 82 8F           jp    L523
 7428+8F7F              L521
 7429+8F7F CD E7 68           call  _BLOCKGEN2
 7430+8F82              L523
 7431+8F82              L518
 7432+8F82              L520
 7433+8F82 AF                 xor   a
 7434+8F83 32 63 B0           ld    (_SEVENFLAG),a
 7435+8F86 CD EF 6F           call  _DELET
 7436+8F89 CD 5E 88           call  _GAMEOVER
 7437+8F8C AF                 xor   a
 7438+8F8D 21 5D B0           ld    hl,_OVER
 7439+8F90 BE                 cp    (hl)
 7440+8F91 C2 97 8F           jp    nz,L524
 7441+8F94              L525
 7442+8F94 CD EA 64           call  _BLOCKGEN
 7443+8F97              L524
 7444+8F97              L526
 7445+8F97 C9                 ret
 7446+8F98              _RIGHTMOVE
 7447+8F98 3E 01              ld    a,1
 7448+8F9A 32 5B B0           ld    (_Y),a
 7449+8F9D 3E 06              ld    a,6
 7450+8F9F 32 54 B5           ld    (Lim_Y),a
 7451+8FA2              L527
 7452+8FA2 3E 01              ld    a,1
 7453+8FA4 32 5C B0           ld    (_I),a
 7454+8FA7 3E 05              ld    a,5
 7455+8FA9 32 5D B5           ld    (Lim_I),a
 7456+8FAC              L529
 7457+8FAC 3E 06              ld    a,6
 7458+8FAE 32 5A B0           ld    (_X),a
 7459+8FB1 3E 02              ld    a,2
 7460+8FB3 32 53 B5           ld    (Lim_X),a
 7461+8FB6              L531
 7462+8FB6 3A 5A B0           ld    a,(_X)
 7463+8FB9 6F                 ld    l,a
 7464+8FBA 26 00              ld    h,0
 7465+8FBC 2B                 dec   hl
 7466+8FBD 29                 add   hl,hl
 7467+8FBE 54                 ld    d,h
 7468+8FBF 5D                 ld    e,l
 7469+8FC0 29                 add   hl,hl
 7470+8FC1 19                 add   hl,de
 7471+8FC2 11 BD B4           ld    de,_MAPBLOCK
 7472+8FC5 19                 add   hl,de
 7473+8FC6 E5                 push  hl
 7474+8FC7 3A 5B B0           ld    a,(_Y)
 7475+8FCA 6F                 ld    l,a
 7476+8FCB 26 00              ld    h,0
 7477+8FCD 2B                 dec   hl
 7478+8FCE D1                 pop   de
 7479+8FCF 19                 add   hl,de
 7480+8FD0 AF                 xor   a
 7481+8FD1 BE                 cp    (hl)
 7482+8FD2 C2 8C 95           jp    nz,L533
 7483+8FD5 3A 5A B0           ld    a,(_X)
 7484+8FD8 6F                 ld    l,a
 7485+8FD9 26 00              ld    h,0
 7486+8FDB 2B                 dec   hl
 7487+8FDC 2B                 dec   hl
 7488+8FDD 29                 add   hl,hl
 7489+8FDE 54                 ld    d,h
 7490+8FDF 5D                 ld    e,l
 7491+8FE0 29                 add   hl,hl
 7492+8FE1 19                 add   hl,de
 7493+8FE2 11 BD B4           ld    de,_MAPBLOCK
 7494+8FE5 19                 add   hl,de
 7495+8FE6 E5                 push  hl
 7496+8FE7 3A 5B B0           ld    a,(_Y)
 7497+8FEA 6F                 ld    l,a
 7498+8FEB 26 00              ld    h,0
 7499+8FED 2B                 dec   hl
 7500+8FEE D1                 pop   de
 7501+8FEF 19                 add   hl,de
 7502+8FF0 AF                 xor   a
 7503+8FF1 BE                 cp    (hl)
 7504+8FF2 CA 8C 95           jp    z,L533
 7505+8FF5              L534
 7506+8FF5 3A 5A B0           ld    a,(_X)
 7507+8FF8 6F                 ld    l,a
 7508+8FF9 26 00              ld    h,0
 7509+8FFB 2B                 dec   hl
 7510+8FFC 2B                 dec   hl
 7511+8FFD 29                 add   hl,hl
 7512+8FFE 54                 ld    d,h
 7513+8FFF 5D                 ld    e,l
 7514+9000 29                 add   hl,hl
 7515+9001 19                 add   hl,de
 7516+9002 11 BD B4           ld    de,_MAPBLOCK
 7517+9005 19                 add   hl,de
 7518+9006 E5                 push  hl
 7519+9007 3A 5B B0           ld    a,(_Y)
 7520+900A 6F                 ld    l,a
 7521+900B 26 00              ld    h,0
 7522+900D 2B                 dec   hl
 7523+900E D1                 pop   de
 7524+900F 19                 add   hl,de
 7525+9010 6E                 ld    l,(hl)
 7526+9011 26 00              ld    h,0
 7527+9013 7D                 ld    a,l
 7528+9014 32 60 B5           ld    (_L536),a
 7529+9017 FE 01              cp    1
 7530+9019 CA 1F 90           jp    z,L539
 7531+901C C3 DC 90           jp    L540
 7532+901F              L539
 7533+901F 3E 01              ld    a,1
 7534+9021 32 60 B0           ld    (_Z),a
 7535+9024 3E 03              ld    a,3
 7536+9026 32 5F B5           ld    (Lim_Z),a
 7537+9029              L541
 7538+9029 21 8F C8           ld    hl,SPRCLR
 7539+902C E5                 push  hl
 7540+902D 21 00 00           ld    hl,0
 7541+9030 7D                 ld    a,l
 7542+9031 32 F8 AF           ld    (attr_sprite),a
 7543+9034 3A 5A B0           ld    a,(_X)
 7544+9037 6F                 ld    l,a
 7545+9038 26 00              ld    h,0
 7546+903A 2B                 dec   hl
 7547+903B 54                 ld    d,h
 7548+903C 5D                 ld    e,l
 7549+903D 29                 add   hl,hl
 7550+903E 19                 add   hl,de
 7551+903F 2B                 dec   hl
 7552+9040 E5                 push  hl
 7553+9041 3A 5B B0           ld    a,(_Y)
 7554+9044 6F                 ld    l,a
 7555+9045 26 00              ld    h,0
 7556+9047 54                 ld    d,h
 7557+9048 5D                 ld    e,l
 7558+9049 29                 add   hl,hl
 7559+904A 19                 add   hl,de
 7560+904B 2B                 dec   hl
 7561+904C 55                 ld    d,l
 7562+904D E1                 pop   hl
 7563+904E 5D                 ld    e,l
 7564+904F E1                 pop   hl
 7565+9050 CD DA A4           call  put_spr_put
 7566+9053 21 12 C6           ld    hl,SPRBLOCK1
 7567+9056 E5                 push  hl
 7568+9057 21 01 00           ld    hl,1
 7569+905A 7D                 ld    a,l
 7570+905B 32 F8 AF           ld    (attr_sprite),a
 7571+905E 3A 5A B0           ld    a,(_X)
 7572+9061 6F                 ld    l,a
 7573+9062 26 00              ld    h,0
 7574+9064 2B                 dec   hl
 7575+9065 54                 ld    d,h
 7576+9066 5D                 ld    e,l
 7577+9067 29                 add   hl,hl
 7578+9068 19                 add   hl,de
 7579+9069 2B                 dec   hl
 7580+906A 3A 60 B0           ld    a,(_Z)
 7581+906D 5F                 ld    e,a
 7582+906E 16 00              ld    d,0
 7583+9070 19                 add   hl,de
 7584+9071 E5                 push  hl
 7585+9072 3A 5B B0           ld    a,(_Y)
 7586+9075 6F                 ld    l,a
 7587+9076 26 00              ld    h,0
 7588+9078 54                 ld    d,h
 7589+9079 5D                 ld    e,l
 7590+907A 29                 add   hl,hl
 7591+907B 19                 add   hl,de
 7592+907C 2B                 dec   hl
 7593+907D 55                 ld    d,l
 7594+907E E1                 pop   hl
 7595+907F 5D                 ld    e,l
 7596+9080 E1                 pop   hl
 7597+9081 CD DA A4           call  put_spr_put
 7598+9084 3A 5F B5           ld    a,(Lim_Z)
 7599+9087 21 60 B0           ld    hl,_Z
 7600+908A BE                 cp    (hl)
 7601+908B CA 95 90           jp    z,L542
 7602+908E 21 60 B0           ld    hl,_Z
 7603+9091 34                 inc   (hl)
 7604+9092 C3 29 90           jp    L541
 7605+9095              L542
 7606+9095 3A 5A B0           ld    a,(_X)
 7607+9098 6F                 ld    l,a
 7608+9099 26 00              ld    h,0
 7609+909B 2B                 dec   hl
 7610+909C 29                 add   hl,hl
 7611+909D 54                 ld    d,h
 7612+909E 5D                 ld    e,l
 7613+909F 29                 add   hl,hl
 7614+90A0 19                 add   hl,de
 7615+90A1 11 BD B4           ld    de,_MAPBLOCK
 7616+90A4 19                 add   hl,de
 7617+90A5 E5                 push  hl
 7618+90A6 3A 5B B0           ld    a,(_Y)
 7619+90A9 6F                 ld    l,a
 7620+90AA 26 00              ld    h,0
 7621+90AC 2B                 dec   hl
 7622+90AD D1                 pop   de
 7623+90AE 19                 add   hl,de
 7624+90AF E5                 push  hl
 7625+90B0 3A 5A B0           ld    a,(_X)
 7626+90B3 6F                 ld    l,a
 7627+90B4 26 00              ld    h,0
 7628+90B6 2B                 dec   hl
 7629+90B7 2B                 dec   hl
 7630+90B8 29                 add   hl,hl
 7631+90B9 54                 ld    d,h
 7632+90BA 5D                 ld    e,l
 7633+90BB 29                 add   hl,hl
 7634+90BC 19                 add   hl,de
 7635+90BD 11 BD B4           ld    de,_MAPBLOCK
 7636+90C0 19                 add   hl,de
 7637+90C1 E5                 push  hl
 7638+90C2 3A 5B B0           ld    a,(_Y)
 7639+90C5 6F                 ld    l,a
 7640+90C6 26 00              ld    h,0
 7641+90C8 2B                 dec   hl
 7642+90C9 D1                 pop   de
 7643+90CA 19                 add   hl,de
 7644+90CB 22 EA AF           ld    (addr_arraybyte_index),hl
 7645+90CE 6E                 ld    l,(hl)
 7646+90CF 26 00              ld    h,0
 7647+90D1 D1                 pop   de
 7648+90D2 7D                 ld    a,l
 7649+90D3 12                 ld    (de),a
 7650+90D4 2A EA AF           ld    hl,(addr_arraybyte_index)
 7651+90D7 36 00              ld    (hl),0
 7652+90D9 C3 8C 95           jp    L537
 7653+90DC              L540
 7654+90DC 3A 60 B5           ld    a,(_L536)
 7655+90DF FE 02              cp    2
 7656+90E1 CA E7 90           jp    z,L543
 7657+90E4 C3 A4 91           jp    L544
 7658+90E7              L543
 7659+90E7 3E 01              ld    a,1
 7660+90E9 32 60 B0           ld    (_Z),a
 7661+90EC 3E 03              ld    a,3
 7662+90EE 32 5F B5           ld    (Lim_Z),a
 7663+90F1              L545
 7664+90F1 21 8F C8           ld    hl,SPRCLR
 7665+90F4 E5                 push  hl
 7666+90F5 21 00 00           ld    hl,0
 7667+90F8 7D                 ld    a,l
 7668+90F9 32 F8 AF           ld    (attr_sprite),a
 7669+90FC 3A 5A B0           ld    a,(_X)
 7670+90FF 6F                 ld    l,a
 7671+9100 26 00              ld    h,0
 7672+9102 2B                 dec   hl
 7673+9103 54                 ld    d,h
 7674+9104 5D                 ld    e,l
 7675+9105 29                 add   hl,hl
 7676+9106 19                 add   hl,de
 7677+9107 2B                 dec   hl
 7678+9108 E5                 push  hl
 7679+9109 3A 5B B0           ld    a,(_Y)
 7680+910C 6F                 ld    l,a
 7681+910D 26 00              ld    h,0
 7682+910F 54                 ld    d,h
 7683+9110 5D                 ld    e,l
 7684+9111 29                 add   hl,hl
 7685+9112 19                 add   hl,de
 7686+9113 2B                 dec   hl
 7687+9114 55                 ld    d,l
 7688+9115 E1                 pop   hl
 7689+9116 5D                 ld    e,l
 7690+9117 E1                 pop   hl
 7691+9118 CD DA A4           call  put_spr_put
 7692+911B 21 6D C6           ld    hl,SPRBLOCK2
 7693+911E E5                 push  hl
 7694+911F 21 02 00           ld    hl,2
 7695+9122 7D                 ld    a,l
 7696+9123 32 F8 AF           ld    (attr_sprite),a
 7697+9126 3A 5A B0           ld    a,(_X)
 7698+9129 6F                 ld    l,a
 7699+912A 26 00              ld    h,0
 7700+912C 2B                 dec   hl
 7701+912D 54                 ld    d,h
 7702+912E 5D                 ld    e,l
 7703+912F 29                 add   hl,hl
 7704+9130 19                 add   hl,de
 7705+9131 2B                 dec   hl
 7706+9132 3A 60 B0           ld    a,(_Z)
 7707+9135 5F                 ld    e,a
 7708+9136 16 00              ld    d,0
 7709+9138 19                 add   hl,de
 7710+9139 E5                 push  hl
 7711+913A 3A 5B B0           ld    a,(_Y)
 7712+913D 6F                 ld    l,a
 7713+913E 26 00              ld    h,0
 7714+9140 54                 ld    d,h
 7715+9141 5D                 ld    e,l
 7716+9142 29                 add   hl,hl
 7717+9143 19                 add   hl,de
 7718+9144 2B                 dec   hl
 7719+9145 55                 ld    d,l
 7720+9146 E1                 pop   hl
 7721+9147 5D                 ld    e,l
 7722+9148 E1                 pop   hl
 7723+9149 CD DA A4           call  put_spr_put
 7724+914C 3A 5F B5           ld    a,(Lim_Z)
 7725+914F 21 60 B0           ld    hl,_Z
 7726+9152 BE                 cp    (hl)
 7727+9153 CA 5D 91           jp    z,L546
 7728+9156 21 60 B0           ld    hl,_Z
 7729+9159 34                 inc   (hl)
 7730+915A C3 F1 90           jp    L545
 7731+915D              L546
 7732+915D 3A 5A B0           ld    a,(_X)
 7733+9160 6F                 ld    l,a
 7734+9161 26 00              ld    h,0
 7735+9163 2B                 dec   hl
 7736+9164 29                 add   hl,hl
 7737+9165 54                 ld    d,h
 7738+9166 5D                 ld    e,l
 7739+9167 29                 add   hl,hl
 7740+9168 19                 add   hl,de
 7741+9169 11 BD B4           ld    de,_MAPBLOCK
 7742+916C 19                 add   hl,de
 7743+916D E5                 push  hl
 7744+916E 3A 5B B0           ld    a,(_Y)
 7745+9171 6F                 ld    l,a
 7746+9172 26 00              ld    h,0
 7747+9174 2B                 dec   hl
 7748+9175 D1                 pop   de
 7749+9176 19                 add   hl,de
 7750+9177 E5                 push  hl
 7751+9178 3A 5A B0           ld    a,(_X)
 7752+917B 6F                 ld    l,a
 7753+917C 26 00              ld    h,0
 7754+917E 2B                 dec   hl
 7755+917F 2B                 dec   hl
 7756+9180 29                 add   hl,hl
 7757+9181 54                 ld    d,h
 7758+9182 5D                 ld    e,l
 7759+9183 29                 add   hl,hl
 7760+9184 19                 add   hl,de
 7761+9185 11 BD B4           ld    de,_MAPBLOCK
 7762+9188 19                 add   hl,de
 7763+9189 E5                 push  hl
 7764+918A 3A 5B B0           ld    a,(_Y)
 7765+918D 6F                 ld    l,a
 7766+918E 26 00              ld    h,0
 7767+9190 2B                 dec   hl
 7768+9191 D1                 pop   de
 7769+9192 19                 add   hl,de
 7770+9193 22 EA AF           ld    (addr_arraybyte_index),hl
 7771+9196 6E                 ld    l,(hl)
 7772+9197 26 00              ld    h,0
 7773+9199 D1                 pop   de
 7774+919A 7D                 ld    a,l
 7775+919B 12                 ld    (de),a
 7776+919C 2A EA AF           ld    hl,(addr_arraybyte_index)
 7777+919F 36 00              ld    (hl),0
 7778+91A1 C3 8C 95           jp    L537
 7779+91A4              L544
 7780+91A4 3A 60 B5           ld    a,(_L536)
 7781+91A7 FE 03              cp    3
 7782+91A9 CA AF 91           jp    z,L547
 7783+91AC C3 6C 92           jp    L548
 7784+91AF              L547
 7785+91AF 3E 01              ld    a,1
 7786+91B1 32 60 B0           ld    (_Z),a
 7787+91B4 3E 03              ld    a,3
 7788+91B6 32 5F B5           ld    (Lim_Z),a
 7789+91B9              L549
 7790+91B9 21 8F C8           ld    hl,SPRCLR
 7791+91BC E5                 push  hl
 7792+91BD 21 00 00           ld    hl,0
 7793+91C0 7D                 ld    a,l
 7794+91C1 32 F8 AF           ld    (attr_sprite),a
 7795+91C4 3A 5A B0           ld    a,(_X)
 7796+91C7 6F                 ld    l,a
 7797+91C8 26 00              ld    h,0
 7798+91CA 2B                 dec   hl
 7799+91CB 54                 ld    d,h
 7800+91CC 5D                 ld    e,l
 7801+91CD 29                 add   hl,hl
 7802+91CE 19                 add   hl,de
 7803+91CF 2B                 dec   hl
 7804+91D0 E5                 push  hl
 7805+91D1 3A 5B B0           ld    a,(_Y)
 7806+91D4 6F                 ld    l,a
 7807+91D5 26 00              ld    h,0
 7808+91D7 54                 ld    d,h
 7809+91D8 5D                 ld    e,l
 7810+91D9 29                 add   hl,hl
 7811+91DA 19                 add   hl,de
 7812+91DB 2B                 dec   hl
 7813+91DC 55                 ld    d,l
 7814+91DD E1                 pop   hl
 7815+91DE 5D                 ld    e,l
 7816+91DF E1                 pop   hl
 7817+91E0 CD DA A4           call  put_spr_put
 7818+91E3 21 C8 C6           ld    hl,SPRBLOCK3
 7819+91E6 E5                 push  hl
 7820+91E7 21 03 00           ld    hl,3
 7821+91EA 7D                 ld    a,l
 7822+91EB 32 F8 AF           ld    (attr_sprite),a
 7823+91EE 3A 5A B0           ld    a,(_X)
 7824+91F1 6F                 ld    l,a
 7825+91F2 26 00              ld    h,0
 7826+91F4 2B                 dec   hl
 7827+91F5 54                 ld    d,h
 7828+91F6 5D                 ld    e,l
 7829+91F7 29                 add   hl,hl
 7830+91F8 19                 add   hl,de
 7831+91F9 2B                 dec   hl
 7832+91FA 3A 60 B0           ld    a,(_Z)
 7833+91FD 5F                 ld    e,a
 7834+91FE 16 00              ld    d,0
 7835+9200 19                 add   hl,de
 7836+9201 E5                 push  hl
 7837+9202 3A 5B B0           ld    a,(_Y)
 7838+9205 6F                 ld    l,a
 7839+9206 26 00              ld    h,0
 7840+9208 54                 ld    d,h
 7841+9209 5D                 ld    e,l
 7842+920A 29                 add   hl,hl
 7843+920B 19                 add   hl,de
 7844+920C 2B                 dec   hl
 7845+920D 55                 ld    d,l
 7846+920E E1                 pop   hl
 7847+920F 5D                 ld    e,l
 7848+9210 E1                 pop   hl
 7849+9211 CD DA A4           call  put_spr_put
 7850+9214 3A 5F B5           ld    a,(Lim_Z)
 7851+9217 21 60 B0           ld    hl,_Z
 7852+921A BE                 cp    (hl)
 7853+921B CA 25 92           jp    z,L550
 7854+921E 21 60 B0           ld    hl,_Z
 7855+9221 34                 inc   (hl)
 7856+9222 C3 B9 91           jp    L549
 7857+9225              L550
 7858+9225 3A 5A B0           ld    a,(_X)
 7859+9228 6F                 ld    l,a
 7860+9229 26 00              ld    h,0
 7861+922B 2B                 dec   hl
 7862+922C 29                 add   hl,hl
 7863+922D 54                 ld    d,h
 7864+922E 5D                 ld    e,l
 7865+922F 29                 add   hl,hl
 7866+9230 19                 add   hl,de
 7867+9231 11 BD B4           ld    de,_MAPBLOCK
 7868+9234 19                 add   hl,de
 7869+9235 E5                 push  hl
 7870+9236 3A 5B B0           ld    a,(_Y)
 7871+9239 6F                 ld    l,a
 7872+923A 26 00              ld    h,0
 7873+923C 2B                 dec   hl
 7874+923D D1                 pop   de
 7875+923E 19                 add   hl,de
 7876+923F E5                 push  hl
 7877+9240 3A 5A B0           ld    a,(_X)
 7878+9243 6F                 ld    l,a
 7879+9244 26 00              ld    h,0
 7880+9246 2B                 dec   hl
 7881+9247 2B                 dec   hl
 7882+9248 29                 add   hl,hl
 7883+9249 54                 ld    d,h
 7884+924A 5D                 ld    e,l
 7885+924B 29                 add   hl,hl
 7886+924C 19                 add   hl,de
 7887+924D 11 BD B4           ld    de,_MAPBLOCK
 7888+9250 19                 add   hl,de
 7889+9251 E5                 push  hl
 7890+9252 3A 5B B0           ld    a,(_Y)
 7891+9255 6F                 ld    l,a
 7892+9256 26 00              ld    h,0
 7893+9258 2B                 dec   hl
 7894+9259 D1                 pop   de
 7895+925A 19                 add   hl,de
 7896+925B 22 EA AF           ld    (addr_arraybyte_index),hl
 7897+925E 6E                 ld    l,(hl)
 7898+925F 26 00              ld    h,0
 7899+9261 D1                 pop   de
 7900+9262 7D                 ld    a,l
 7901+9263 12                 ld    (de),a
 7902+9264 2A EA AF           ld    hl,(addr_arraybyte_index)
 7903+9267 36 00              ld    (hl),0
 7904+9269 C3 8C 95           jp    L537
 7905+926C              L548
 7906+926C 3A 60 B5           ld    a,(_L536)
 7907+926F FE 04              cp    4
 7908+9271 CA 77 92           jp    z,L551
 7909+9274 C3 34 93           jp    L552
 7910+9277              L551
 7911+9277 3E 01              ld    a,1
 7912+9279 32 60 B0           ld    (_Z),a
 7913+927C 3E 03              ld    a,3
 7914+927E 32 5F B5           ld    (Lim_Z),a
 7915+9281              L553
 7916+9281 21 8F C8           ld    hl,SPRCLR
 7917+9284 E5                 push  hl
 7918+9285 21 00 00           ld    hl,0
 7919+9288 7D                 ld    a,l
 7920+9289 32 F8 AF           ld    (attr_sprite),a
 7921+928C 3A 5A B0           ld    a,(_X)
 7922+928F 6F                 ld    l,a
 7923+9290 26 00              ld    h,0
 7924+9292 2B                 dec   hl
 7925+9293 54                 ld    d,h
 7926+9294 5D                 ld    e,l
 7927+9295 29                 add   hl,hl
 7928+9296 19                 add   hl,de
 7929+9297 2B                 dec   hl
 7930+9298 E5                 push  hl
 7931+9299 3A 5B B0           ld    a,(_Y)
 7932+929C 6F                 ld    l,a
 7933+929D 26 00              ld    h,0
 7934+929F 54                 ld    d,h
 7935+92A0 5D                 ld    e,l
 7936+92A1 29                 add   hl,hl
 7937+92A2 19                 add   hl,de
 7938+92A3 2B                 dec   hl
 7939+92A4 55                 ld    d,l
 7940+92A5 E1                 pop   hl
 7941+92A6 5D                 ld    e,l
 7942+92A7 E1                 pop   hl
 7943+92A8 CD DA A4           call  put_spr_put
 7944+92AB 21 23 C7           ld    hl,SPRBLOCK4
 7945+92AE E5                 push  hl
 7946+92AF 21 04 00           ld    hl,4
 7947+92B2 7D                 ld    a,l
 7948+92B3 32 F8 AF           ld    (attr_sprite),a
 7949+92B6 3A 5A B0           ld    a,(_X)
 7950+92B9 6F                 ld    l,a
 7951+92BA 26 00              ld    h,0
 7952+92BC 2B                 dec   hl
 7953+92BD 54                 ld    d,h
 7954+92BE 5D                 ld    e,l
 7955+92BF 29                 add   hl,hl
 7956+92C0 19                 add   hl,de
 7957+92C1 2B                 dec   hl
 7958+92C2 3A 60 B0           ld    a,(_Z)
 7959+92C5 5F                 ld    e,a
 7960+92C6 16 00              ld    d,0
 7961+92C8 19                 add   hl,de
 7962+92C9 E5                 push  hl
 7963+92CA 3A 5B B0           ld    a,(_Y)
 7964+92CD 6F                 ld    l,a
 7965+92CE 26 00              ld    h,0
 7966+92D0 54                 ld    d,h
 7967+92D1 5D                 ld    e,l
 7968+92D2 29                 add   hl,hl
 7969+92D3 19                 add   hl,de
 7970+92D4 2B                 dec   hl
 7971+92D5 55                 ld    d,l
 7972+92D6 E1                 pop   hl
 7973+92D7 5D                 ld    e,l
 7974+92D8 E1                 pop   hl
 7975+92D9 CD DA A4           call  put_spr_put
 7976+92DC 3A 5F B5           ld    a,(Lim_Z)
 7977+92DF 21 60 B0           ld    hl,_Z
 7978+92E2 BE                 cp    (hl)
 7979+92E3 CA ED 92           jp    z,L554
 7980+92E6 21 60 B0           ld    hl,_Z
 7981+92E9 34                 inc   (hl)
 7982+92EA C3 81 92           jp    L553
 7983+92ED              L554
 7984+92ED 3A 5A B0           ld    a,(_X)
 7985+92F0 6F                 ld    l,a
 7986+92F1 26 00              ld    h,0
 7987+92F3 2B                 dec   hl
 7988+92F4 29                 add   hl,hl
 7989+92F5 54                 ld    d,h
 7990+92F6 5D                 ld    e,l
 7991+92F7 29                 add   hl,hl
 7992+92F8 19                 add   hl,de
 7993+92F9 11 BD B4           ld    de,_MAPBLOCK
 7994+92FC 19                 add   hl,de
 7995+92FD E5                 push  hl
 7996+92FE 3A 5B B0           ld    a,(_Y)
 7997+9301 6F                 ld    l,a
 7998+9302 26 00              ld    h,0
 7999+9304 2B                 dec   hl
 8000+9305 D1                 pop   de
 8001+9306 19                 add   hl,de
 8002+9307 E5                 push  hl
 8003+9308 3A 5A B0           ld    a,(_X)
 8004+930B 6F                 ld    l,a
 8005+930C 26 00              ld    h,0
 8006+930E 2B                 dec   hl
 8007+930F 2B                 dec   hl
 8008+9310 29                 add   hl,hl
 8009+9311 54                 ld    d,h
 8010+9312 5D                 ld    e,l
 8011+9313 29                 add   hl,hl
 8012+9314 19                 add   hl,de
 8013+9315 11 BD B4           ld    de,_MAPBLOCK
 8014+9318 19                 add   hl,de
 8015+9319 E5                 push  hl
 8016+931A 3A 5B B0           ld    a,(_Y)
 8017+931D 6F                 ld    l,a
 8018+931E 26 00              ld    h,0
 8019+9320 2B                 dec   hl
 8020+9321 D1                 pop   de
 8021+9322 19                 add   hl,de
 8022+9323 22 EA AF           ld    (addr_arraybyte_index),hl
 8023+9326 6E                 ld    l,(hl)
 8024+9327 26 00              ld    h,0
 8025+9329 D1                 pop   de
 8026+932A 7D                 ld    a,l
 8027+932B 12                 ld    (de),a
 8028+932C 2A EA AF           ld    hl,(addr_arraybyte_index)
 8029+932F 36 00              ld    (hl),0
 8030+9331 C3 8C 95           jp    L537
 8031+9334              L552
 8032+9334 3A 60 B5           ld    a,(_L536)
 8033+9337 FE 05              cp    5
 8034+9339 CA 3F 93           jp    z,L555
 8035+933C C3 FC 93           jp    L556
 8036+933F              L555
 8037+933F 3E 01              ld    a,1
 8038+9341 32 60 B0           ld    (_Z),a
 8039+9344 3E 03              ld    a,3
 8040+9346 32 5F B5           ld    (Lim_Z),a
 8041+9349              L557
 8042+9349 21 8F C8           ld    hl,SPRCLR
 8043+934C E5                 push  hl
 8044+934D 21 00 00           ld    hl,0
 8045+9350 7D                 ld    a,l
 8046+9351 32 F8 AF           ld    (attr_sprite),a
 8047+9354 3A 5A B0           ld    a,(_X)
 8048+9357 6F                 ld    l,a
 8049+9358 26 00              ld    h,0
 8050+935A 2B                 dec   hl
 8051+935B 54                 ld    d,h
 8052+935C 5D                 ld    e,l
 8053+935D 29                 add   hl,hl
 8054+935E 19                 add   hl,de
 8055+935F 2B                 dec   hl
 8056+9360 E5                 push  hl
 8057+9361 3A 5B B0           ld    a,(_Y)
 8058+9364 6F                 ld    l,a
 8059+9365 26 00              ld    h,0
 8060+9367 54                 ld    d,h
 8061+9368 5D                 ld    e,l
 8062+9369 29                 add   hl,hl
 8063+936A 19                 add   hl,de
 8064+936B 2B                 dec   hl
 8065+936C 55                 ld    d,l
 8066+936D E1                 pop   hl
 8067+936E 5D                 ld    e,l
 8068+936F E1                 pop   hl
 8069+9370 CD DA A4           call  put_spr_put
 8070+9373 21 7E C7           ld    hl,SPRBLOCK5
 8071+9376 E5                 push  hl
 8072+9377 21 05 00           ld    hl,5
 8073+937A 7D                 ld    a,l
 8074+937B 32 F8 AF           ld    (attr_sprite),a
 8075+937E 3A 5A B0           ld    a,(_X)
 8076+9381 6F                 ld    l,a
 8077+9382 26 00              ld    h,0
 8078+9384 2B                 dec   hl
 8079+9385 54                 ld    d,h
 8080+9386 5D                 ld    e,l
 8081+9387 29                 add   hl,hl
 8082+9388 19                 add   hl,de
 8083+9389 2B                 dec   hl
 8084+938A 3A 60 B0           ld    a,(_Z)
 8085+938D 5F                 ld    e,a
 8086+938E 16 00              ld    d,0
 8087+9390 19                 add   hl,de
 8088+9391 E5                 push  hl
 8089+9392 3A 5B B0           ld    a,(_Y)
 8090+9395 6F                 ld    l,a
 8091+9396 26 00              ld    h,0
 8092+9398 54                 ld    d,h
 8093+9399 5D                 ld    e,l
 8094+939A 29                 add   hl,hl
 8095+939B 19                 add   hl,de
 8096+939C 2B                 dec   hl
 8097+939D 55                 ld    d,l
 8098+939E E1                 pop   hl
 8099+939F 5D                 ld    e,l
 8100+93A0 E1                 pop   hl
 8101+93A1 CD DA A4           call  put_spr_put
 8102+93A4 3A 5F B5           ld    a,(Lim_Z)
 8103+93A7 21 60 B0           ld    hl,_Z
 8104+93AA BE                 cp    (hl)
 8105+93AB CA B5 93           jp    z,L558
 8106+93AE 21 60 B0           ld    hl,_Z
 8107+93B1 34                 inc   (hl)
 8108+93B2 C3 49 93           jp    L557
 8109+93B5              L558
 8110+93B5 3A 5A B0           ld    a,(_X)
 8111+93B8 6F                 ld    l,a
 8112+93B9 26 00              ld    h,0
 8113+93BB 2B                 dec   hl
 8114+93BC 29                 add   hl,hl
 8115+93BD 54                 ld    d,h
 8116+93BE 5D                 ld    e,l
 8117+93BF 29                 add   hl,hl
 8118+93C0 19                 add   hl,de
 8119+93C1 11 BD B4           ld    de,_MAPBLOCK
 8120+93C4 19                 add   hl,de
 8121+93C5 E5                 push  hl
 8122+93C6 3A 5B B0           ld    a,(_Y)
 8123+93C9 6F                 ld    l,a
 8124+93CA 26 00              ld    h,0
 8125+93CC 2B                 dec   hl
 8126+93CD D1                 pop   de
 8127+93CE 19                 add   hl,de
 8128+93CF E5                 push  hl
 8129+93D0 3A 5A B0           ld    a,(_X)
 8130+93D3 6F                 ld    l,a
 8131+93D4 26 00              ld    h,0
 8132+93D6 2B                 dec   hl
 8133+93D7 2B                 dec   hl
 8134+93D8 29                 add   hl,hl
 8135+93D9 54                 ld    d,h
 8136+93DA 5D                 ld    e,l
 8137+93DB 29                 add   hl,hl
 8138+93DC 19                 add   hl,de
 8139+93DD 11 BD B4           ld    de,_MAPBLOCK
 8140+93E0 19                 add   hl,de
 8141+93E1 E5                 push  hl
 8142+93E2 3A 5B B0           ld    a,(_Y)
 8143+93E5 6F                 ld    l,a
 8144+93E6 26 00              ld    h,0
 8145+93E8 2B                 dec   hl
 8146+93E9 D1                 pop   de
 8147+93EA 19                 add   hl,de
 8148+93EB 22 EA AF           ld    (addr_arraybyte_index),hl
 8149+93EE 6E                 ld    l,(hl)
 8150+93EF 26 00              ld    h,0
 8151+93F1 D1                 pop   de
 8152+93F2 7D                 ld    a,l
 8153+93F3 12                 ld    (de),a
 8154+93F4 2A EA AF           ld    hl,(addr_arraybyte_index)
 8155+93F7 36 00              ld    (hl),0
 8156+93F9 C3 8C 95           jp    L537
 8157+93FC              L556
 8158+93FC 3A 60 B5           ld    a,(_L536)
 8159+93FF FE 06              cp    6
 8160+9401 CA 07 94           jp    z,L559
 8161+9404 C3 C4 94           jp    L560
 8162+9407              L559
 8163+9407 3E 01              ld    a,1
 8164+9409 32 60 B0           ld    (_Z),a
 8165+940C 3E 03              ld    a,3
 8166+940E 32 5F B5           ld    (Lim_Z),a
 8167+9411              L561
 8168+9411 21 8F C8           ld    hl,SPRCLR
 8169+9414 E5                 push  hl
 8170+9415 21 00 00           ld    hl,0
 8171+9418 7D                 ld    a,l
 8172+9419 32 F8 AF           ld    (attr_sprite),a
 8173+941C 3A 5A B0           ld    a,(_X)
 8174+941F 6F                 ld    l,a
 8175+9420 26 00              ld    h,0
 8176+9422 2B                 dec   hl
 8177+9423 54                 ld    d,h
 8178+9424 5D                 ld    e,l
 8179+9425 29                 add   hl,hl
 8180+9426 19                 add   hl,de
 8181+9427 2B                 dec   hl
 8182+9428 E5                 push  hl
 8183+9429 3A 5B B0           ld    a,(_Y)
 8184+942C 6F                 ld    l,a
 8185+942D 26 00              ld    h,0
 8186+942F 54                 ld    d,h
 8187+9430 5D                 ld    e,l
 8188+9431 29                 add   hl,hl
 8189+9432 19                 add   hl,de
 8190+9433 2B                 dec   hl
 8191+9434 55                 ld    d,l
 8192+9435 E1                 pop   hl
 8193+9436 5D                 ld    e,l
 8194+9437 E1                 pop   hl
 8195+9438 CD DA A4           call  put_spr_put
 8196+943B 21 D9 C7           ld    hl,SPRBLOCK6
 8197+943E E5                 push  hl
 8198+943F 21 06 00           ld    hl,6
 8199+9442 7D                 ld    a,l
 8200+9443 32 F8 AF           ld    (attr_sprite),a
 8201+9446 3A 5A B0           ld    a,(_X)
 8202+9449 6F                 ld    l,a
 8203+944A 26 00              ld    h,0
 8204+944C 2B                 dec   hl
 8205+944D 54                 ld    d,h
 8206+944E 5D                 ld    e,l
 8207+944F 29                 add   hl,hl
 8208+9450 19                 add   hl,de
 8209+9451 2B                 dec   hl
 8210+9452 3A 60 B0           ld    a,(_Z)
 8211+9455 5F                 ld    e,a
 8212+9456 16 00              ld    d,0
 8213+9458 19                 add   hl,de
 8214+9459 E5                 push  hl
 8215+945A 3A 5B B0           ld    a,(_Y)
 8216+945D 6F                 ld    l,a
 8217+945E 26 00              ld    h,0
 8218+9460 54                 ld    d,h
 8219+9461 5D                 ld    e,l
 8220+9462 29                 add   hl,hl
 8221+9463 19                 add   hl,de
 8222+9464 2B                 dec   hl
 8223+9465 55                 ld    d,l
 8224+9466 E1                 pop   hl
 8225+9467 5D                 ld    e,l
 8226+9468 E1                 pop   hl
 8227+9469 CD DA A4           call  put_spr_put
 8228+946C 3A 5F B5           ld    a,(Lim_Z)
 8229+946F 21 60 B0           ld    hl,_Z
 8230+9472 BE                 cp    (hl)
 8231+9473 CA 7D 94           jp    z,L562
 8232+9476 21 60 B0           ld    hl,_Z
 8233+9479 34                 inc   (hl)
 8234+947A C3 11 94           jp    L561
 8235+947D              L562
 8236+947D 3A 5A B0           ld    a,(_X)
 8237+9480 6F                 ld    l,a
 8238+9481 26 00              ld    h,0
 8239+9483 2B                 dec   hl
 8240+9484 29                 add   hl,hl
 8241+9485 54                 ld    d,h
 8242+9486 5D                 ld    e,l
 8243+9487 29                 add   hl,hl
 8244+9488 19                 add   hl,de
 8245+9489 11 BD B4           ld    de,_MAPBLOCK
 8246+948C 19                 add   hl,de
 8247+948D E5                 push  hl
 8248+948E 3A 5B B0           ld    a,(_Y)
 8249+9491 6F                 ld    l,a
 8250+9492 26 00              ld    h,0
 8251+9494 2B                 dec   hl
 8252+9495 D1                 pop   de
 8253+9496 19                 add   hl,de
 8254+9497 E5                 push  hl
 8255+9498 3A 5A B0           ld    a,(_X)
 8256+949B 6F                 ld    l,a
 8257+949C 26 00              ld    h,0
 8258+949E 2B                 dec   hl
 8259+949F 2B                 dec   hl
 8260+94A0 29                 add   hl,hl
 8261+94A1 54                 ld    d,h
 8262+94A2 5D                 ld    e,l
 8263+94A3 29                 add   hl,hl
 8264+94A4 19                 add   hl,de
 8265+94A5 11 BD B4           ld    de,_MAPBLOCK
 8266+94A8 19                 add   hl,de
 8267+94A9 E5                 push  hl
 8268+94AA 3A 5B B0           ld    a,(_Y)
 8269+94AD 6F                 ld    l,a
 8270+94AE 26 00              ld    h,0
 8271+94B0 2B                 dec   hl
 8272+94B1 D1                 pop   de
 8273+94B2 19                 add   hl,de
 8274+94B3 22 EA AF           ld    (addr_arraybyte_index),hl
 8275+94B6 6E                 ld    l,(hl)
 8276+94B7 26 00              ld    h,0
 8277+94B9 D1                 pop   de
 8278+94BA 7D                 ld    a,l
 8279+94BB 12                 ld    (de),a
 8280+94BC 2A EA AF           ld    hl,(addr_arraybyte_index)
 8281+94BF 36 00              ld    (hl),0
 8282+94C1 C3 8C 95           jp    L537
 8283+94C4              L560
 8284+94C4 3A 60 B5           ld    a,(_L536)
 8285+94C7 FE 07              cp    7
 8286+94C9 CA CF 94           jp    z,L563
 8287+94CC C3 8C 95           jp    L564
 8288+94CF              L563
 8289+94CF 3E 01              ld    a,1
 8290+94D1 32 60 B0           ld    (_Z),a
 8291+94D4 3E 03              ld    a,3
 8292+94D6 32 5F B5           ld    (Lim_Z),a
 8293+94D9              L565
 8294+94D9 21 8F C8           ld    hl,SPRCLR
 8295+94DC E5                 push  hl
 8296+94DD 21 00 00           ld    hl,0
 8297+94E0 7D                 ld    a,l
 8298+94E1 32 F8 AF           ld    (attr_sprite),a
 8299+94E4 3A 5A B0           ld    a,(_X)
 8300+94E7 6F                 ld    l,a
 8301+94E8 26 00              ld    h,0
 8302+94EA 2B                 dec   hl
 8303+94EB 54                 ld    d,h
 8304+94EC 5D                 ld    e,l
 8305+94ED 29                 add   hl,hl
 8306+94EE 19                 add   hl,de
 8307+94EF 2B                 dec   hl
 8308+94F0 E5                 push  hl
 8309+94F1 3A 5B B0           ld    a,(_Y)
 8310+94F4 6F                 ld    l,a
 8311+94F5 26 00              ld    h,0
 8312+94F7 54                 ld    d,h
 8313+94F8 5D                 ld    e,l
 8314+94F9 29                 add   hl,hl
 8315+94FA 19                 add   hl,de
 8316+94FB 2B                 dec   hl
 8317+94FC 55                 ld    d,l
 8318+94FD E1                 pop   hl
 8319+94FE 5D                 ld    e,l
 8320+94FF E1                 pop   hl
 8321+9500 CD DA A4           call  put_spr_put
 8322+9503 21 34 C8           ld    hl,SPRBLOCK7
 8323+9506 E5                 push  hl
 8324+9507 21 47 00           ld    hl,71
 8325+950A 7D                 ld    a,l
 8326+950B 32 F8 AF           ld    (attr_sprite),a
 8327+950E 3A 5A B0           ld    a,(_X)
 8328+9511 6F                 ld    l,a
 8329+9512 26 00              ld    h,0
 8330+9514 2B                 dec   hl
 8331+9515 54                 ld    d,h
 8332+9516 5D                 ld    e,l
 8333+9517 29                 add   hl,hl
 8334+9518 19                 add   hl,de
 8335+9519 2B                 dec   hl
 8336+951A 3A 60 B0           ld    a,(_Z)
 8337+951D 5F                 ld    e,a
 8338+951E 16 00              ld    d,0
 8339+9520 19                 add   hl,de
 8340+9521 E5                 push  hl
 8341+9522 3A 5B B0           ld    a,(_Y)
 8342+9525 6F                 ld    l,a
 8343+9526 26 00              ld    h,0
 8344+9528 54                 ld    d,h
 8345+9529 5D                 ld    e,l
 8346+952A 29                 add   hl,hl
 8347+952B 19                 add   hl,de
 8348+952C 2B                 dec   hl
 8349+952D 55                 ld    d,l
 8350+952E E1                 pop   hl
 8351+952F 5D                 ld    e,l
 8352+9530 E1                 pop   hl
 8353+9531 CD DA A4           call  put_spr_put
 8354+9534 3A 5F B5           ld    a,(Lim_Z)
 8355+9537 21 60 B0           ld    hl,_Z
 8356+953A BE                 cp    (hl)
 8357+953B CA 45 95           jp    z,L566
 8358+953E 21 60 B0           ld    hl,_Z
 8359+9541 34                 inc   (hl)
 8360+9542 C3 D9 94           jp    L565
 8361+9545              L566
 8362+9545 3A 5A B0           ld    a,(_X)
 8363+9548 6F                 ld    l,a
 8364+9549 26 00              ld    h,0
 8365+954B 2B                 dec   hl
 8366+954C 29                 add   hl,hl
 8367+954D 54                 ld    d,h
 8368+954E 5D                 ld    e,l
 8369+954F 29                 add   hl,hl
 8370+9550 19                 add   hl,de
 8371+9551 11 BD B4           ld    de,_MAPBLOCK
 8372+9554 19                 add   hl,de
 8373+9555 E5                 push  hl
 8374+9556 3A 5B B0           ld    a,(_Y)
 8375+9559 6F                 ld    l,a
 8376+955A 26 00              ld    h,0
 8377+955C 2B                 dec   hl
 8378+955D D1                 pop   de
 8379+955E 19                 add   hl,de
 8380+955F E5                 push  hl
 8381+9560 3A 5A B0           ld    a,(_X)
 8382+9563 6F                 ld    l,a
 8383+9564 26 00              ld    h,0
 8384+9566 2B                 dec   hl
 8385+9567 2B                 dec   hl
 8386+9568 29                 add   hl,hl
 8387+9569 54                 ld    d,h
 8388+956A 5D                 ld    e,l
 8389+956B 29                 add   hl,hl
 8390+956C 19                 add   hl,de
 8391+956D 11 BD B4           ld    de,_MAPBLOCK
 8392+9570 19                 add   hl,de
 8393+9571 E5                 push  hl
 8394+9572 3A 5B B0           ld    a,(_Y)
 8395+9575 6F                 ld    l,a
 8396+9576 26 00              ld    h,0
 8397+9578 2B                 dec   hl
 8398+9579 D1                 pop   de
 8399+957A 19                 add   hl,de
 8400+957B 22 EA AF           ld    (addr_arraybyte_index),hl
 8401+957E 6E                 ld    l,(hl)
 8402+957F 26 00              ld    h,0
 8403+9581 D1                 pop   de
 8404+9582 7D                 ld    a,l
 8405+9583 12                 ld    (de),a
 8406+9584 2A EA AF           ld    hl,(addr_arraybyte_index)
 8407+9587 36 00              ld    (hl),0
 8408+9589 C3 8C 95           jp    L537
 8409+958C              L564
 8410+958C              L537
 8411+958C              L533
 8412+958C              L535
 8413+958C 3A 5A B0           ld    a,(_X)
 8414+958F 21 53 B5           ld    hl,Lim_X
 8415+9592 BE                 cp    (hl)
 8416+9593 CA 9D 95           jp    z,L532
 8417+9596 21 5A B0           ld    hl,_X
 8418+9599 35                 dec   (hl)
 8419+959A C3 B6 8F           jp    L531
 8420+959D              L532
 8421+959D 3A 5D B5           ld    a,(Lim_I)
 8422+95A0 21 5C B0           ld    hl,_I
 8423+95A3 BE                 cp    (hl)
 8424+95A4 CA AE 95           jp    z,L530
 8425+95A7 21 5C B0           ld    hl,_I
 8426+95AA 34                 inc   (hl)
 8427+95AB C3 AC 8F           jp    L529
 8428+95AE              L530
 8429+95AE 3A 54 B5           ld    a,(Lim_Y)
 8430+95B1 21 5B B0           ld    hl,_Y
 8431+95B4 BE                 cp    (hl)
 8432+95B5 CA BF 95           jp    z,L528
 8433+95B8 21 5B B0           ld    hl,_Y
 8434+95BB 34                 inc   (hl)
 8435+95BC C3 A2 8F           jp    L527
 8436+95BF              L528
 8437+95BF 3E 01              ld    a,1
 8438+95C1 32 4F B0           ld    (sound_loop),a
 8439+95C4 3E 03              ld    a,3
 8440+95C6 32 51 B0           ld    (sound_time),a
 8441+95C9 AF                 xor   a
 8442+95CA 32 50 B0           ld    (sound_freq),a
 8443+95CD CD 62 A3           call  sound_effect
 8444+95D0 3E 02              ld    a,2
 8445+95D2 32 63 B0           ld    (_SEVENFLAG),a
 8446+95D5 CD EF 6F           call  _DELET
 8447+95D8 AF                 xor   a
 8448+95D9 21 62 B0           ld    hl,_S
 8449+95DC BE                 cp    (hl)
 8450+95DD C2 F5 95           jp    nz,L567
 8451+95E0              L568
 8452+95E0 3E 1C              ld    a,28
 8453+95E2 21 5D B0           ld    hl,_OVER
 8454+95E5 BE                 cp    (hl)
 8455+95E6 CA F2 95           jp    z,L570
 8456+95E9 DA F2 95           jp    c,L570
 8457+95EC              L571
 8458+95EC CD EA 64           call  _BLOCKGEN
 8459+95EF C3 F5 95           jp    L572
 8460+95F2              L570
 8461+95F2 CD E7 68           call  _BLOCKGEN2
 8462+95F5              L572
 8463+95F5              L567
 8464+95F5              L569
 8465+95F5 AF                 xor   a
 8466+95F6 32 63 B0           ld    (_SEVENFLAG),a
 8467+95F9 CD EF 6F           call  _DELET
 8468+95FC CD 5E 88           call  _GAMEOVER
 8469+95FF AF                 xor   a
 8470+9600 21 5D B0           ld    hl,_OVER
 8471+9603 BE                 cp    (hl)
 8472+9604 C2 0A 96           jp    nz,L573
 8473+9607              L574
 8474+9607 CD EA 64           call  _BLOCKGEN
 8475+960A              L573
 8476+960A              L575
 8477+960A C9                 ret
 8478+960B              _UPMOVE
 8479+960B 3E 01              ld    a,1
 8480+960D 32 5A B0           ld    (_X),a
 8481+9610 3E 06              ld    a,6
 8482+9612 32 53 B5           ld    (Lim_X),a
 8483+9615              L576
 8484+9615 3E 01              ld    a,1
 8485+9617 32 5C B0           ld    (_I),a
 8486+961A 3E 05              ld    a,5
 8487+961C 32 5D B5           ld    (Lim_I),a
 8488+961F              L578
 8489+961F 3E 01              ld    a,1
 8490+9621 32 5B B0           ld    (_Y),a
 8491+9624 3E 05              ld    a,5
 8492+9626 32 54 B5           ld    (Lim_Y),a
 8493+9629              L580
 8494+9629 3A 5A B0           ld    a,(_X)
 8495+962C 6F                 ld    l,a
 8496+962D 26 00              ld    h,0
 8497+962F 2B                 dec   hl
 8498+9630 29                 add   hl,hl
 8499+9631 54                 ld    d,h
 8500+9632 5D                 ld    e,l
 8501+9633 29                 add   hl,hl
 8502+9634 19                 add   hl,de
 8503+9635 11 BD B4           ld    de,_MAPBLOCK
 8504+9638 19                 add   hl,de
 8505+9639 22 F0 AF           ld    (addr_arraybyte_index111),hl
 8506+963C E5                 push  hl
 8507+963D 3A 5B B0           ld    a,(_Y)
 8508+9640 6F                 ld    l,a
 8509+9641 26 00              ld    h,0
 8510+9643 2B                 dec   hl
 8511+9644 D1                 pop   de
 8512+9645 19                 add   hl,de
 8513+9646 AF                 xor   a
 8514+9647 BE                 cp    (hl)
 8515+9648 C2 A8 9B           jp    nz,L582
 8516+964B 2A F0 AF           ld    hl,(addr_arraybyte_index111)
 8517+964E 3A 5B B0           ld    a,(_Y)
 8518+9651 5F                 ld    e,a
 8519+9652 16 00              ld    d,0
 8520+9654 19                 add   hl,de
 8521+9655 AF                 xor   a
 8522+9656 BE                 cp    (hl)
 8523+9657 CA A8 9B           jp    z,L582
 8524+965A              L583
 8525+965A 2A F0 AF           ld    hl,(addr_arraybyte_index111)
 8526+965D 3A 5B B0           ld    a,(_Y)
 8527+9660 5F                 ld    e,a
 8528+9661 16 00              ld    d,0
 8529+9663 19                 add   hl,de
 8530+9664 6E                 ld    l,(hl)
 8531+9665 26 00              ld    h,0
 8532+9667 7D                 ld    a,l
 8533+9668 32 61 B5           ld    (_L585),a
 8534+966B FE 01              cp    1
 8535+966D CA 73 96           jp    z,L588
 8536+9670 C3 28 97           jp    L589
 8537+9673              L588
 8538+9673 3E 01              ld    a,1
 8539+9675 32 60 B0           ld    (_Z),a
 8540+9678 3E 03              ld    a,3
 8541+967A 32 5F B5           ld    (Lim_Z),a
 8542+967D              L590
 8543+967D 21 8F C8           ld    hl,SPRCLR
 8544+9680 E5                 push  hl
 8545+9681 21 00 00           ld    hl,0
 8546+9684 7D                 ld    a,l
 8547+9685 32 F8 AF           ld    (attr_sprite),a
 8548+9688 3A 5A B0           ld    a,(_X)
 8549+968B 6F                 ld    l,a
 8550+968C 26 00              ld    h,0
 8551+968E 54                 ld    d,h
 8552+968F 5D                 ld    e,l
 8553+9690 29                 add   hl,hl
 8554+9691 19                 add   hl,de
 8555+9692 2B                 dec   hl
 8556+9693 E5                 push  hl
 8557+9694 3A 5B B0           ld    a,(_Y)
 8558+9697 6F                 ld    l,a
 8559+9698 26 00              ld    h,0
 8560+969A 23                 inc   hl
 8561+969B 54                 ld    d,h
 8562+969C 5D                 ld    e,l
 8563+969D 29                 add   hl,hl
 8564+969E 19                 add   hl,de
 8565+969F 2B                 dec   hl
 8566+96A0 55                 ld    d,l
 8567+96A1 E1                 pop   hl
 8568+96A2 5D                 ld    e,l
 8569+96A3 E1                 pop   hl
 8570+96A4 CD DA A4           call  put_spr_put
 8571+96A7 21 12 C6           ld    hl,SPRBLOCK1
 8572+96AA E5                 push  hl
 8573+96AB 21 01 00           ld    hl,1
 8574+96AE 7D                 ld    a,l
 8575+96AF 32 F8 AF           ld    (attr_sprite),a
 8576+96B2 3A 5A B0           ld    a,(_X)
 8577+96B5 6F                 ld    l,a
 8578+96B6 26 00              ld    h,0
 8579+96B8 54                 ld    d,h
 8580+96B9 5D                 ld    e,l
 8581+96BA 29                 add   hl,hl
 8582+96BB 19                 add   hl,de
 8583+96BC 2B                 dec   hl
 8584+96BD E5                 push  hl
 8585+96BE 3A 5B B0           ld    a,(_Y)
 8586+96C1 6F                 ld    l,a
 8587+96C2 26 00              ld    h,0
 8588+96C4 23                 inc   hl
 8589+96C5 54                 ld    d,h
 8590+96C6 5D                 ld    e,l
 8591+96C7 29                 add   hl,hl
 8592+96C8 19                 add   hl,de
 8593+96C9 2B                 dec   hl
 8594+96CA 3A 60 B0           ld    a,(_Z)
 8595+96CD 5F                 ld    e,a
 8596+96CE 16 00              ld    d,0
 8597+96D0 A7                 and   a
 8598+96D1 ED 52              sbc   hl,de
 8599+96D3 55                 ld    d,l
 8600+96D4 E1                 pop   hl
 8601+96D5 5D                 ld    e,l
 8602+96D6 E1                 pop   hl
 8603+96D7 CD DA A4           call  put_spr_put
 8604+96DA 3A 5F B5           ld    a,(Lim_Z)
 8605+96DD 21 60 B0           ld    hl,_Z
 8606+96E0 BE                 cp    (hl)
 8607+96E1 CA EB 96           jp    z,L591
 8608+96E4 21 60 B0           ld    hl,_Z
 8609+96E7 34                 inc   (hl)
 8610+96E8 C3 7D 96           jp    L590
 8611+96EB              L591
 8612+96EB 3A 5A B0           ld    a,(_X)
 8613+96EE 6F                 ld    l,a
 8614+96EF 26 00              ld    h,0
 8615+96F1 2B                 dec   hl
 8616+96F2 29                 add   hl,hl
 8617+96F3 54                 ld    d,h
 8618+96F4 5D                 ld    e,l
 8619+96F5 29                 add   hl,hl
 8620+96F6 19                 add   hl,de
 8621+96F7 11 BD B4           ld    de,_MAPBLOCK
 8622+96FA 19                 add   hl,de
 8623+96FB 22 F0 AF           ld    (addr_arraybyte_index111),hl
 8624+96FE E5                 push  hl
 8625+96FF 3A 5B B0           ld    a,(_Y)
 8626+9702 6F                 ld    l,a
 8627+9703 26 00              ld    h,0
 8628+9705 2B                 dec   hl
 8629+9706 D1                 pop   de
 8630+9707 19                 add   hl,de
 8631+9708 E5                 push  hl
 8632+9709 2A F0 AF           ld    hl,(addr_arraybyte_index111)
 8633+970C 3A 5B B0           ld    a,(_Y)
 8634+970F 5F                 ld    e,a
 8635+9710 16 00              ld    d,0
 8636+9712 19                 add   hl,de
 8637+9713 6E                 ld    l,(hl)
 8638+9714 26 00              ld    h,0
 8639+9716 D1                 pop   de
 8640+9717 7D                 ld    a,l
 8641+9718 12                 ld    (de),a
 8642+9719 2A F0 AF           ld    hl,(addr_arraybyte_index111)
 8643+971C 3A 5B B0           ld    a,(_Y)
 8644+971F 5F                 ld    e,a
 8645+9720 16 00              ld    d,0
 8646+9722 19                 add   hl,de
 8647+9723 36 00              ld    (hl),0
 8648+9725 C3 A8 9B           jp    L586
 8649+9728              L589
 8650+9728 3A 61 B5           ld    a,(_L585)
 8651+972B FE 02              cp    2
 8652+972D CA 33 97           jp    z,L592
 8653+9730 C3 E8 97           jp    L593
 8654+9733              L592
 8655+9733 3E 01              ld    a,1
 8656+9735 32 60 B0           ld    (_Z),a
 8657+9738 3E 03              ld    a,3
 8658+973A 32 5F B5           ld    (Lim_Z),a
 8659+973D              L594
 8660+973D 21 8F C8           ld    hl,SPRCLR
 8661+9740 E5                 push  hl
 8662+9741 21 00 00           ld    hl,0
 8663+9744 7D                 ld    a,l
 8664+9745 32 F8 AF           ld    (attr_sprite),a
 8665+9748 3A 5A B0           ld    a,(_X)
 8666+974B 6F                 ld    l,a
 8667+974C 26 00              ld    h,0
 8668+974E 54                 ld    d,h
 8669+974F 5D                 ld    e,l
 8670+9750 29                 add   hl,hl
 8671+9751 19                 add   hl,de
 8672+9752 2B                 dec   hl
 8673+9753 E5                 push  hl
 8674+9754 3A 5B B0           ld    a,(_Y)
 8675+9757 6F                 ld    l,a
 8676+9758 26 00              ld    h,0
 8677+975A 23                 inc   hl
 8678+975B 54                 ld    d,h
 8679+975C 5D                 ld    e,l
 8680+975D 29                 add   hl,hl
 8681+975E 19                 add   hl,de
 8682+975F 2B                 dec   hl
 8683+9760 55                 ld    d,l
 8684+9761 E1                 pop   hl
 8685+9762 5D                 ld    e,l
 8686+9763 E1                 pop   hl
 8687+9764 CD DA A4           call  put_spr_put
 8688+9767 21 6D C6           ld    hl,SPRBLOCK2
 8689+976A E5                 push  hl
 8690+976B 21 02 00           ld    hl,2
 8691+976E 7D                 ld    a,l
 8692+976F 32 F8 AF           ld    (attr_sprite),a
 8693+9772 3A 5A B0           ld    a,(_X)
 8694+9775 6F                 ld    l,a
 8695+9776 26 00              ld    h,0
 8696+9778 54                 ld    d,h
 8697+9779 5D                 ld    e,l
 8698+977A 29                 add   hl,hl
 8699+977B 19                 add   hl,de
 8700+977C 2B                 dec   hl
 8701+977D E5                 push  hl
 8702+977E 3A 5B B0           ld    a,(_Y)
 8703+9781 6F                 ld    l,a
 8704+9782 26 00              ld    h,0
 8705+9784 23                 inc   hl
 8706+9785 54                 ld    d,h
 8707+9786 5D                 ld    e,l
 8708+9787 29                 add   hl,hl
 8709+9788 19                 add   hl,de
 8710+9789 2B                 dec   hl
 8711+978A 3A 60 B0           ld    a,(_Z)
 8712+978D 5F                 ld    e,a
 8713+978E 16 00              ld    d,0
 8714+9790 A7                 and   a
 8715+9791 ED 52              sbc   hl,de
 8716+9793 55                 ld    d,l
 8717+9794 E1                 pop   hl
 8718+9795 5D                 ld    e,l
 8719+9796 E1                 pop   hl
 8720+9797 CD DA A4           call  put_spr_put
 8721+979A 3A 5F B5           ld    a,(Lim_Z)
 8722+979D 21 60 B0           ld    hl,_Z
 8723+97A0 BE                 cp    (hl)
 8724+97A1 CA AB 97           jp    z,L595
 8725+97A4 21 60 B0           ld    hl,_Z
 8726+97A7 34                 inc   (hl)
 8727+97A8 C3 3D 97           jp    L594
 8728+97AB              L595
 8729+97AB 3A 5A B0           ld    a,(_X)
 8730+97AE 6F                 ld    l,a
 8731+97AF 26 00              ld    h,0
 8732+97B1 2B                 dec   hl
 8733+97B2 29                 add   hl,hl
 8734+97B3 54                 ld    d,h
 8735+97B4 5D                 ld    e,l
 8736+97B5 29                 add   hl,hl
 8737+97B6 19                 add   hl,de
 8738+97B7 11 BD B4           ld    de,_MAPBLOCK
 8739+97BA 19                 add   hl,de
 8740+97BB 22 F0 AF           ld    (addr_arraybyte_index111),hl
 8741+97BE E5                 push  hl
 8742+97BF 3A 5B B0           ld    a,(_Y)
 8743+97C2 6F                 ld    l,a
 8744+97C3 26 00              ld    h,0
 8745+97C5 2B                 dec   hl
 8746+97C6 D1                 pop   de
 8747+97C7 19                 add   hl,de
 8748+97C8 E5                 push  hl
 8749+97C9 2A F0 AF           ld    hl,(addr_arraybyte_index111)
 8750+97CC 3A 5B B0           ld    a,(_Y)
 8751+97CF 5F                 ld    e,a
 8752+97D0 16 00              ld    d,0
 8753+97D2 19                 add   hl,de
 8754+97D3 6E                 ld    l,(hl)
 8755+97D4 26 00              ld    h,0
 8756+97D6 D1                 pop   de
 8757+97D7 7D                 ld    a,l
 8758+97D8 12                 ld    (de),a
 8759+97D9 2A F0 AF           ld    hl,(addr_arraybyte_index111)
 8760+97DC 3A 5B B0           ld    a,(_Y)
 8761+97DF 5F                 ld    e,a
 8762+97E0 16 00              ld    d,0
 8763+97E2 19                 add   hl,de
 8764+97E3 36 00              ld    (hl),0
 8765+97E5 C3 A8 9B           jp    L586
 8766+97E8              L593
 8767+97E8 3A 61 B5           ld    a,(_L585)
 8768+97EB FE 03              cp    3
 8769+97ED CA F3 97           jp    z,L596
 8770+97F0 C3 A8 98           jp    L597
 8771+97F3              L596
 8772+97F3 3E 01              ld    a,1
 8773+97F5 32 60 B0           ld    (_Z),a
 8774+97F8 3E 03              ld    a,3
 8775+97FA 32 5F B5           ld    (Lim_Z),a
 8776+97FD              L598
 8777+97FD 21 8F C8           ld    hl,SPRCLR
 8778+9800 E5                 push  hl
 8779+9801 21 00 00           ld    hl,0
 8780+9804 7D                 ld    a,l
 8781+9805 32 F8 AF           ld    (attr_sprite),a
 8782+9808 3A 5A B0           ld    a,(_X)
 8783+980B 6F                 ld    l,a
 8784+980C 26 00              ld    h,0
 8785+980E 54                 ld    d,h
 8786+980F 5D                 ld    e,l
 8787+9810 29                 add   hl,hl
 8788+9811 19                 add   hl,de
 8789+9812 2B                 dec   hl
 8790+9813 E5                 push  hl
 8791+9814 3A 5B B0           ld    a,(_Y)
 8792+9817 6F                 ld    l,a
 8793+9818 26 00              ld    h,0
 8794+981A 23                 inc   hl
 8795+981B 54                 ld    d,h
 8796+981C 5D                 ld    e,l
 8797+981D 29                 add   hl,hl
 8798+981E 19                 add   hl,de
 8799+981F 2B                 dec   hl
 8800+9820 55                 ld    d,l
 8801+9821 E1                 pop   hl
 8802+9822 5D                 ld    e,l
 8803+9823 E1                 pop   hl
 8804+9824 CD DA A4           call  put_spr_put
 8805+9827 21 C8 C6           ld    hl,SPRBLOCK3
 8806+982A E5                 push  hl
 8807+982B 21 03 00           ld    hl,3
 8808+982E 7D                 ld    a,l
 8809+982F 32 F8 AF           ld    (attr_sprite),a
 8810+9832 3A 5A B0           ld    a,(_X)
 8811+9835 6F                 ld    l,a
 8812+9836 26 00              ld    h,0
 8813+9838 54                 ld    d,h
 8814+9839 5D                 ld    e,l
 8815+983A 29                 add   hl,hl
 8816+983B 19                 add   hl,de
 8817+983C 2B                 dec   hl
 8818+983D E5                 push  hl
 8819+983E 3A 5B B0           ld    a,(_Y)
 8820+9841 6F                 ld    l,a
 8821+9842 26 00              ld    h,0
 8822+9844 23                 inc   hl
 8823+9845 54                 ld    d,h
 8824+9846 5D                 ld    e,l
 8825+9847 29                 add   hl,hl
 8826+9848 19                 add   hl,de
 8827+9849 2B                 dec   hl
 8828+984A 3A 60 B0           ld    a,(_Z)
 8829+984D 5F                 ld    e,a
 8830+984E 16 00              ld    d,0
 8831+9850 A7                 and   a
 8832+9851 ED 52              sbc   hl,de
 8833+9853 55                 ld    d,l
 8834+9854 E1                 pop   hl
 8835+9855 5D                 ld    e,l
 8836+9856 E1                 pop   hl
 8837+9857 CD DA A4           call  put_spr_put
 8838+985A 3A 5F B5           ld    a,(Lim_Z)
 8839+985D 21 60 B0           ld    hl,_Z
 8840+9860 BE                 cp    (hl)
 8841+9861 CA 6B 98           jp    z,L599
 8842+9864 21 60 B0           ld    hl,_Z
 8843+9867 34                 inc   (hl)
 8844+9868 C3 FD 97           jp    L598
 8845+986B              L599
 8846+986B 3A 5A B0           ld    a,(_X)
 8847+986E 6F                 ld    l,a
 8848+986F 26 00              ld    h,0
 8849+9871 2B                 dec   hl
 8850+9872 29                 add   hl,hl
 8851+9873 54                 ld    d,h
 8852+9874 5D                 ld    e,l
 8853+9875 29                 add   hl,hl
 8854+9876 19                 add   hl,de
 8855+9877 11 BD B4           ld    de,_MAPBLOCK
 8856+987A 19                 add   hl,de
 8857+987B 22 F0 AF           ld    (addr_arraybyte_index111),hl
 8858+987E E5                 push  hl
 8859+987F 3A 5B B0           ld    a,(_Y)
 8860+9882 6F                 ld    l,a
 8861+9883 26 00              ld    h,0
 8862+9885 2B                 dec   hl
 8863+9886 D1                 pop   de
 8864+9887 19                 add   hl,de
 8865+9888 E5                 push  hl
 8866+9889 2A F0 AF           ld    hl,(addr_arraybyte_index111)
 8867+988C 3A 5B B0           ld    a,(_Y)
 8868+988F 5F                 ld    e,a
 8869+9890 16 00              ld    d,0
 8870+9892 19                 add   hl,de
 8871+9893 6E                 ld    l,(hl)
 8872+9894 26 00              ld    h,0
 8873+9896 D1                 pop   de
 8874+9897 7D                 ld    a,l
 8875+9898 12                 ld    (de),a
 8876+9899 2A F0 AF           ld    hl,(addr_arraybyte_index111)
 8877+989C 3A 5B B0           ld    a,(_Y)
 8878+989F 5F                 ld    e,a
 8879+98A0 16 00              ld    d,0
 8880+98A2 19                 add   hl,de
 8881+98A3 36 00              ld    (hl),0
 8882+98A5 C3 A8 9B           jp    L586
 8883+98A8              L597
 8884+98A8 3A 61 B5           ld    a,(_L585)
 8885+98AB FE 04              cp    4
 8886+98AD CA B3 98           jp    z,L600
 8887+98B0 C3 68 99           jp    L601
 8888+98B3              L600
 8889+98B3 3E 01              ld    a,1
 8890+98B5 32 60 B0           ld    (_Z),a
 8891+98B8 3E 03              ld    a,3
 8892+98BA 32 5F B5           ld    (Lim_Z),a
 8893+98BD              L602
 8894+98BD 21 8F C8           ld    hl,SPRCLR
 8895+98C0 E5                 push  hl
 8896+98C1 21 00 00           ld    hl,0
 8897+98C4 7D                 ld    a,l
 8898+98C5 32 F8 AF           ld    (attr_sprite),a
 8899+98C8 3A 5A B0           ld    a,(_X)
 8900+98CB 6F                 ld    l,a
 8901+98CC 26 00              ld    h,0
 8902+98CE 54                 ld    d,h
 8903+98CF 5D                 ld    e,l
 8904+98D0 29                 add   hl,hl
 8905+98D1 19                 add   hl,de
 8906+98D2 2B                 dec   hl
 8907+98D3 E5                 push  hl
 8908+98D4 3A 5B B0           ld    a,(_Y)
 8909+98D7 6F                 ld    l,a
 8910+98D8 26 00              ld    h,0
 8911+98DA 23                 inc   hl
 8912+98DB 54                 ld    d,h
 8913+98DC 5D                 ld    e,l
 8914+98DD 29                 add   hl,hl
 8915+98DE 19                 add   hl,de
 8916+98DF 2B                 dec   hl
 8917+98E0 55                 ld    d,l
 8918+98E1 E1                 pop   hl
 8919+98E2 5D                 ld    e,l
 8920+98E3 E1                 pop   hl
 8921+98E4 CD DA A4           call  put_spr_put
 8922+98E7 21 23 C7           ld    hl,SPRBLOCK4
 8923+98EA E5                 push  hl
 8924+98EB 21 04 00           ld    hl,4
 8925+98EE 7D                 ld    a,l
 8926+98EF 32 F8 AF           ld    (attr_sprite),a
 8927+98F2 3A 5A B0           ld    a,(_X)
 8928+98F5 6F                 ld    l,a
 8929+98F6 26 00              ld    h,0
 8930+98F8 54                 ld    d,h
 8931+98F9 5D                 ld    e,l
 8932+98FA 29                 add   hl,hl
 8933+98FB 19                 add   hl,de
 8934+98FC 2B                 dec   hl
 8935+98FD E5                 push  hl
 8936+98FE 3A 5B B0           ld    a,(_Y)
 8937+9901 6F                 ld    l,a
 8938+9902 26 00              ld    h,0
 8939+9904 23                 inc   hl
 8940+9905 54                 ld    d,h
 8941+9906 5D                 ld    e,l
 8942+9907 29                 add   hl,hl
 8943+9908 19                 add   hl,de
 8944+9909 2B                 dec   hl
 8945+990A 3A 60 B0           ld    a,(_Z)
 8946+990D 5F                 ld    e,a
 8947+990E 16 00              ld    d,0
 8948+9910 A7                 and   a
 8949+9911 ED 52              sbc   hl,de
 8950+9913 55                 ld    d,l
 8951+9914 E1                 pop   hl
 8952+9915 5D                 ld    e,l
 8953+9916 E1                 pop   hl
 8954+9917 CD DA A4           call  put_spr_put
 8955+991A 3A 5F B5           ld    a,(Lim_Z)
 8956+991D 21 60 B0           ld    hl,_Z
 8957+9920 BE                 cp    (hl)
 8958+9921 CA 2B 99           jp    z,L603
 8959+9924 21 60 B0           ld    hl,_Z
 8960+9927 34                 inc   (hl)
 8961+9928 C3 BD 98           jp    L602
 8962+992B              L603
 8963+992B 3A 5A B0           ld    a,(_X)
 8964+992E 6F                 ld    l,a
 8965+992F 26 00              ld    h,0
 8966+9931 2B                 dec   hl
 8967+9932 29                 add   hl,hl
 8968+9933 54                 ld    d,h
 8969+9934 5D                 ld    e,l
 8970+9935 29                 add   hl,hl
 8971+9936 19                 add   hl,de
 8972+9937 11 BD B4           ld    de,_MAPBLOCK
 8973+993A 19                 add   hl,de
 8974+993B 22 F0 AF           ld    (addr_arraybyte_index111),hl
 8975+993E E5                 push  hl
 8976+993F 3A 5B B0           ld    a,(_Y)
 8977+9942 6F                 ld    l,a
 8978+9943 26 00              ld    h,0
 8979+9945 2B                 dec   hl
 8980+9946 D1                 pop   de
 8981+9947 19                 add   hl,de
 8982+9948 E5                 push  hl
 8983+9949 2A F0 AF           ld    hl,(addr_arraybyte_index111)
 8984+994C 3A 5B B0           ld    a,(_Y)
 8985+994F 5F                 ld    e,a
 8986+9950 16 00              ld    d,0
 8987+9952 19                 add   hl,de
 8988+9953 6E                 ld    l,(hl)
 8989+9954 26 00              ld    h,0
 8990+9956 D1                 pop   de
 8991+9957 7D                 ld    a,l
 8992+9958 12                 ld    (de),a
 8993+9959 2A F0 AF           ld    hl,(addr_arraybyte_index111)
 8994+995C 3A 5B B0           ld    a,(_Y)
 8995+995F 5F                 ld    e,a
 8996+9960 16 00              ld    d,0
 8997+9962 19                 add   hl,de
 8998+9963 36 00              ld    (hl),0
 8999+9965 C3 A8 9B           jp    L586
 9000+9968              L601
 9001+9968 3A 61 B5           ld    a,(_L585)
 9002+996B FE 05              cp    5
 9003+996D CA 73 99           jp    z,L604
 9004+9970 C3 28 9A           jp    L605
 9005+9973              L604
 9006+9973 3E 01              ld    a,1
 9007+9975 32 60 B0           ld    (_Z),a
 9008+9978 3E 03              ld    a,3
 9009+997A 32 5F B5           ld    (Lim_Z),a
 9010+997D              L606
 9011+997D 21 8F C8           ld    hl,SPRCLR
 9012+9980 E5                 push  hl
 9013+9981 21 00 00           ld    hl,0
 9014+9984 7D                 ld    a,l
 9015+9985 32 F8 AF           ld    (attr_sprite),a
 9016+9988 3A 5A B0           ld    a,(_X)
 9017+998B 6F                 ld    l,a
 9018+998C 26 00              ld    h,0
 9019+998E 54                 ld    d,h
 9020+998F 5D                 ld    e,l
 9021+9990 29                 add   hl,hl
 9022+9991 19                 add   hl,de
 9023+9992 2B                 dec   hl
 9024+9993 E5                 push  hl
 9025+9994 3A 5B B0           ld    a,(_Y)
 9026+9997 6F                 ld    l,a
 9027+9998 26 00              ld    h,0
 9028+999A 23                 inc   hl
 9029+999B 54                 ld    d,h
 9030+999C 5D                 ld    e,l
 9031+999D 29                 add   hl,hl
 9032+999E 19                 add   hl,de
 9033+999F 2B                 dec   hl
 9034+99A0 55                 ld    d,l
 9035+99A1 E1                 pop   hl
 9036+99A2 5D                 ld    e,l
 9037+99A3 E1                 pop   hl
 9038+99A4 CD DA A4           call  put_spr_put
 9039+99A7 21 7E C7           ld    hl,SPRBLOCK5
 9040+99AA E5                 push  hl
 9041+99AB 21 05 00           ld    hl,5
 9042+99AE 7D                 ld    a,l
 9043+99AF 32 F8 AF           ld    (attr_sprite),a
 9044+99B2 3A 5A B0           ld    a,(_X)
 9045+99B5 6F                 ld    l,a
 9046+99B6 26 00              ld    h,0
 9047+99B8 54                 ld    d,h
 9048+99B9 5D                 ld    e,l
 9049+99BA 29                 add   hl,hl
 9050+99BB 19                 add   hl,de
 9051+99BC 2B                 dec   hl
 9052+99BD E5                 push  hl
 9053+99BE 3A 5B B0           ld    a,(_Y)
 9054+99C1 6F                 ld    l,a
 9055+99C2 26 00              ld    h,0
 9056+99C4 23                 inc   hl
 9057+99C5 54                 ld    d,h
 9058+99C6 5D                 ld    e,l
 9059+99C7 29                 add   hl,hl
 9060+99C8 19                 add   hl,de
 9061+99C9 2B                 dec   hl
 9062+99CA 3A 60 B0           ld    a,(_Z)
 9063+99CD 5F                 ld    e,a
 9064+99CE 16 00              ld    d,0
 9065+99D0 A7                 and   a
 9066+99D1 ED 52              sbc   hl,de
 9067+99D3 55                 ld    d,l
 9068+99D4 E1                 pop   hl
 9069+99D5 5D                 ld    e,l
 9070+99D6 E1                 pop   hl
 9071+99D7 CD DA A4           call  put_spr_put
 9072+99DA 3A 5F B5           ld    a,(Lim_Z)
 9073+99DD 21 60 B0           ld    hl,_Z
 9074+99E0 BE                 cp    (hl)
 9075+99E1 CA EB 99           jp    z,L607
 9076+99E4 21 60 B0           ld    hl,_Z
 9077+99E7 34                 inc   (hl)
 9078+99E8 C3 7D 99           jp    L606
 9079+99EB              L607
 9080+99EB 3A 5A B0           ld    a,(_X)
 9081+99EE 6F                 ld    l,a
 9082+99EF 26 00              ld    h,0
 9083+99F1 2B                 dec   hl
 9084+99F2 29                 add   hl,hl
 9085+99F3 54                 ld    d,h
 9086+99F4 5D                 ld    e,l
 9087+99F5 29                 add   hl,hl
 9088+99F6 19                 add   hl,de
 9089+99F7 11 BD B4           ld    de,_MAPBLOCK
 9090+99FA 19                 add   hl,de
 9091+99FB 22 F0 AF           ld    (addr_arraybyte_index111),hl
 9092+99FE E5                 push  hl
 9093+99FF 3A 5B B0           ld    a,(_Y)
 9094+9A02 6F                 ld    l,a
 9095+9A03 26 00              ld    h,0
 9096+9A05 2B                 dec   hl
 9097+9A06 D1                 pop   de
 9098+9A07 19                 add   hl,de
 9099+9A08 E5                 push  hl
 9100+9A09 2A F0 AF           ld    hl,(addr_arraybyte_index111)
 9101+9A0C 3A 5B B0           ld    a,(_Y)
 9102+9A0F 5F                 ld    e,a
 9103+9A10 16 00              ld    d,0
 9104+9A12 19                 add   hl,de
 9105+9A13 6E                 ld    l,(hl)
 9106+9A14 26 00              ld    h,0
 9107+9A16 D1                 pop   de
 9108+9A17 7D                 ld    a,l
 9109+9A18 12                 ld    (de),a
 9110+9A19 2A F0 AF           ld    hl,(addr_arraybyte_index111)
 9111+9A1C 3A 5B B0           ld    a,(_Y)
 9112+9A1F 5F                 ld    e,a
 9113+9A20 16 00              ld    d,0
 9114+9A22 19                 add   hl,de
 9115+9A23 36 00              ld    (hl),0
 9116+9A25 C3 A8 9B           jp    L586
 9117+9A28              L605
 9118+9A28 3A 61 B5           ld    a,(_L585)
 9119+9A2B FE 06              cp    6
 9120+9A2D CA 33 9A           jp    z,L608
 9121+9A30 C3 E8 9A           jp    L609
 9122+9A33              L608
 9123+9A33 3E 01              ld    a,1
 9124+9A35 32 60 B0           ld    (_Z),a
 9125+9A38 3E 03              ld    a,3
 9126+9A3A 32 5F B5           ld    (Lim_Z),a
 9127+9A3D              L610
 9128+9A3D 21 8F C8           ld    hl,SPRCLR
 9129+9A40 E5                 push  hl
 9130+9A41 21 00 00           ld    hl,0
 9131+9A44 7D                 ld    a,l
 9132+9A45 32 F8 AF           ld    (attr_sprite),a
 9133+9A48 3A 5A B0           ld    a,(_X)
 9134+9A4B 6F                 ld    l,a
 9135+9A4C 26 00              ld    h,0
 9136+9A4E 54                 ld    d,h
 9137+9A4F 5D                 ld    e,l
 9138+9A50 29                 add   hl,hl
 9139+9A51 19                 add   hl,de
 9140+9A52 2B                 dec   hl
 9141+9A53 E5                 push  hl
 9142+9A54 3A 5B B0           ld    a,(_Y)
 9143+9A57 6F                 ld    l,a
 9144+9A58 26 00              ld    h,0
 9145+9A5A 23                 inc   hl
 9146+9A5B 54                 ld    d,h
 9147+9A5C 5D                 ld    e,l
 9148+9A5D 29                 add   hl,hl
 9149+9A5E 19                 add   hl,de
 9150+9A5F 2B                 dec   hl
 9151+9A60 55                 ld    d,l
 9152+9A61 E1                 pop   hl
 9153+9A62 5D                 ld    e,l
 9154+9A63 E1                 pop   hl
 9155+9A64 CD DA A4           call  put_spr_put
 9156+9A67 21 D9 C7           ld    hl,SPRBLOCK6
 9157+9A6A E5                 push  hl
 9158+9A6B 21 06 00           ld    hl,6
 9159+9A6E 7D                 ld    a,l
 9160+9A6F 32 F8 AF           ld    (attr_sprite),a
 9161+9A72 3A 5A B0           ld    a,(_X)
 9162+9A75 6F                 ld    l,a
 9163+9A76 26 00              ld    h,0
 9164+9A78 54                 ld    d,h
 9165+9A79 5D                 ld    e,l
 9166+9A7A 29                 add   hl,hl
 9167+9A7B 19                 add   hl,de
 9168+9A7C 2B                 dec   hl
 9169+9A7D E5                 push  hl
 9170+9A7E 3A 5B B0           ld    a,(_Y)
 9171+9A81 6F                 ld    l,a
 9172+9A82 26 00              ld    h,0
 9173+9A84 23                 inc   hl
 9174+9A85 54                 ld    d,h
 9175+9A86 5D                 ld    e,l
 9176+9A87 29                 add   hl,hl
 9177+9A88 19                 add   hl,de
 9178+9A89 2B                 dec   hl
 9179+9A8A 3A 60 B0           ld    a,(_Z)
 9180+9A8D 5F                 ld    e,a
 9181+9A8E 16 00              ld    d,0
 9182+9A90 A7                 and   a
 9183+9A91 ED 52              sbc   hl,de
 9184+9A93 55                 ld    d,l
 9185+9A94 E1                 pop   hl
 9186+9A95 5D                 ld    e,l
 9187+9A96 E1                 pop   hl
 9188+9A97 CD DA A4           call  put_spr_put
 9189+9A9A 3A 5F B5           ld    a,(Lim_Z)
 9190+9A9D 21 60 B0           ld    hl,_Z
 9191+9AA0 BE                 cp    (hl)
 9192+9AA1 CA AB 9A           jp    z,L611
 9193+9AA4 21 60 B0           ld    hl,_Z
 9194+9AA7 34                 inc   (hl)
 9195+9AA8 C3 3D 9A           jp    L610
 9196+9AAB              L611
 9197+9AAB 3A 5A B0           ld    a,(_X)
 9198+9AAE 6F                 ld    l,a
 9199+9AAF 26 00              ld    h,0
 9200+9AB1 2B                 dec   hl
 9201+9AB2 29                 add   hl,hl
 9202+9AB3 54                 ld    d,h
 9203+9AB4 5D                 ld    e,l
 9204+9AB5 29                 add   hl,hl
 9205+9AB6 19                 add   hl,de
 9206+9AB7 11 BD B4           ld    de,_MAPBLOCK
 9207+9ABA 19                 add   hl,de
 9208+9ABB 22 F0 AF           ld    (addr_arraybyte_index111),hl
 9209+9ABE E5                 push  hl
 9210+9ABF 3A 5B B0           ld    a,(_Y)
 9211+9AC2 6F                 ld    l,a
 9212+9AC3 26 00              ld    h,0
 9213+9AC5 2B                 dec   hl
 9214+9AC6 D1                 pop   de
 9215+9AC7 19                 add   hl,de
 9216+9AC8 E5                 push  hl
 9217+9AC9 2A F0 AF           ld    hl,(addr_arraybyte_index111)
 9218+9ACC 3A 5B B0           ld    a,(_Y)
 9219+9ACF 5F                 ld    e,a
 9220+9AD0 16 00              ld    d,0
 9221+9AD2 19                 add   hl,de
 9222+9AD3 6E                 ld    l,(hl)
 9223+9AD4 26 00              ld    h,0
 9224+9AD6 D1                 pop   de
 9225+9AD7 7D                 ld    a,l
 9226+9AD8 12                 ld    (de),a
 9227+9AD9 2A F0 AF           ld    hl,(addr_arraybyte_index111)
 9228+9ADC 3A 5B B0           ld    a,(_Y)
 9229+9ADF 5F                 ld    e,a
 9230+9AE0 16 00              ld    d,0
 9231+9AE2 19                 add   hl,de
 9232+9AE3 36 00              ld    (hl),0
 9233+9AE5 C3 A8 9B           jp    L586
 9234+9AE8              L609
 9235+9AE8 3A 61 B5           ld    a,(_L585)
 9236+9AEB FE 07              cp    7
 9237+9AED CA F3 9A           jp    z,L612
 9238+9AF0 C3 A8 9B           jp    L613
 9239+9AF3              L612
 9240+9AF3 3E 01              ld    a,1
 9241+9AF5 32 60 B0           ld    (_Z),a
 9242+9AF8 3E 03              ld    a,3
 9243+9AFA 32 5F B5           ld    (Lim_Z),a
 9244+9AFD              L614
 9245+9AFD 21 8F C8           ld    hl,SPRCLR
 9246+9B00 E5                 push  hl
 9247+9B01 21 00 00           ld    hl,0
 9248+9B04 7D                 ld    a,l
 9249+9B05 32 F8 AF           ld    (attr_sprite),a
 9250+9B08 3A 5A B0           ld    a,(_X)
 9251+9B0B 6F                 ld    l,a
 9252+9B0C 26 00              ld    h,0
 9253+9B0E 54                 ld    d,h
 9254+9B0F 5D                 ld    e,l
 9255+9B10 29                 add   hl,hl
 9256+9B11 19                 add   hl,de
 9257+9B12 2B                 dec   hl
 9258+9B13 E5                 push  hl
 9259+9B14 3A 5B B0           ld    a,(_Y)
 9260+9B17 6F                 ld    l,a
 9261+9B18 26 00              ld    h,0
 9262+9B1A 23                 inc   hl
 9263+9B1B 54                 ld    d,h
 9264+9B1C 5D                 ld    e,l
 9265+9B1D 29                 add   hl,hl
 9266+9B1E 19                 add   hl,de
 9267+9B1F 2B                 dec   hl
 9268+9B20 55                 ld    d,l
 9269+9B21 E1                 pop   hl
 9270+9B22 5D                 ld    e,l
 9271+9B23 E1                 pop   hl
 9272+9B24 CD DA A4           call  put_spr_put
 9273+9B27 21 34 C8           ld    hl,SPRBLOCK7
 9274+9B2A E5                 push  hl
 9275+9B2B 21 47 00           ld    hl,71
 9276+9B2E 7D                 ld    a,l
 9277+9B2F 32 F8 AF           ld    (attr_sprite),a
 9278+9B32 3A 5A B0           ld    a,(_X)
 9279+9B35 6F                 ld    l,a
 9280+9B36 26 00              ld    h,0
 9281+9B38 54                 ld    d,h
 9282+9B39 5D                 ld    e,l
 9283+9B3A 29                 add   hl,hl
 9284+9B3B 19                 add   hl,de
 9285+9B3C 2B                 dec   hl
 9286+9B3D E5                 push  hl
 9287+9B3E 3A 5B B0           ld    a,(_Y)
 9288+9B41 6F                 ld    l,a
 9289+9B42 26 00              ld    h,0
 9290+9B44 23                 inc   hl
 9291+9B45 54                 ld    d,h
 9292+9B46 5D                 ld    e,l
 9293+9B47 29                 add   hl,hl
 9294+9B48 19                 add   hl,de
 9295+9B49 2B                 dec   hl
 9296+9B4A 3A 60 B0           ld    a,(_Z)
 9297+9B4D 5F                 ld    e,a
 9298+9B4E 16 00              ld    d,0
 9299+9B50 A7                 and   a
 9300+9B51 ED 52              sbc   hl,de
 9301+9B53 55                 ld    d,l
 9302+9B54 E1                 pop   hl
 9303+9B55 5D                 ld    e,l
 9304+9B56 E1                 pop   hl
 9305+9B57 CD DA A4           call  put_spr_put
 9306+9B5A 3A 5F B5           ld    a,(Lim_Z)
 9307+9B5D 21 60 B0           ld    hl,_Z
 9308+9B60 BE                 cp    (hl)
 9309+9B61 CA 6B 9B           jp    z,L615
 9310+9B64 21 60 B0           ld    hl,_Z
 9311+9B67 34                 inc   (hl)
 9312+9B68 C3 FD 9A           jp    L614
 9313+9B6B              L615
 9314+9B6B 3A 5A B0           ld    a,(_X)
 9315+9B6E 6F                 ld    l,a
 9316+9B6F 26 00              ld    h,0
 9317+9B71 2B                 dec   hl
 9318+9B72 29                 add   hl,hl
 9319+9B73 54                 ld    d,h
 9320+9B74 5D                 ld    e,l
 9321+9B75 29                 add   hl,hl
 9322+9B76 19                 add   hl,de
 9323+9B77 11 BD B4           ld    de,_MAPBLOCK
 9324+9B7A 19                 add   hl,de
 9325+9B7B 22 F0 AF           ld    (addr_arraybyte_index111),hl
 9326+9B7E E5                 push  hl
 9327+9B7F 3A 5B B0           ld    a,(_Y)
 9328+9B82 6F                 ld    l,a
 9329+9B83 26 00              ld    h,0
 9330+9B85 2B                 dec   hl
 9331+9B86 D1                 pop   de
 9332+9B87 19                 add   hl,de
 9333+9B88 E5                 push  hl
 9334+9B89 2A F0 AF           ld    hl,(addr_arraybyte_index111)
 9335+9B8C 3A 5B B0           ld    a,(_Y)
 9336+9B8F 5F                 ld    e,a
 9337+9B90 16 00              ld    d,0
 9338+9B92 19                 add   hl,de
 9339+9B93 6E                 ld    l,(hl)
 9340+9B94 26 00              ld    h,0
 9341+9B96 D1                 pop   de
 9342+9B97 7D                 ld    a,l
 9343+9B98 12                 ld    (de),a
 9344+9B99 2A F0 AF           ld    hl,(addr_arraybyte_index111)
 9345+9B9C 3A 5B B0           ld    a,(_Y)
 9346+9B9F 5F                 ld    e,a
 9347+9BA0 16 00              ld    d,0
 9348+9BA2 19                 add   hl,de
 9349+9BA3 36 00              ld    (hl),0
 9350+9BA5 C3 A8 9B           jp    L586
 9351+9BA8              L613
 9352+9BA8              L586
 9353+9BA8              L582
 9354+9BA8              L584
 9355+9BA8 3A 54 B5           ld    a,(Lim_Y)
 9356+9BAB 21 5B B0           ld    hl,_Y
 9357+9BAE BE                 cp    (hl)
 9358+9BAF CA B9 9B           jp    z,L581
 9359+9BB2 21 5B B0           ld    hl,_Y
 9360+9BB5 34                 inc   (hl)
 9361+9BB6 C3 29 96           jp    L580
 9362+9BB9              L581
 9363+9BB9 3A 5D B5           ld    a,(Lim_I)
 9364+9BBC 21 5C B0           ld    hl,_I
 9365+9BBF BE                 cp    (hl)
 9366+9BC0 CA CA 9B           jp    z,L579
 9367+9BC3 21 5C B0           ld    hl,_I
 9368+9BC6 34                 inc   (hl)
 9369+9BC7 C3 1F 96           jp    L578
 9370+9BCA              L579
 9371+9BCA 3A 53 B5           ld    a,(Lim_X)
 9372+9BCD 21 5A B0           ld    hl,_X
 9373+9BD0 BE                 cp    (hl)
 9374+9BD1 CA DB 9B           jp    z,L577
 9375+9BD4 21 5A B0           ld    hl,_X
 9376+9BD7 34                 inc   (hl)
 9377+9BD8 C3 15 96           jp    L576
 9378+9BDB              L577
 9379+9BDB 3E 01              ld    a,1
 9380+9BDD 32 4F B0           ld    (sound_loop),a
 9381+9BE0 3E 03              ld    a,3
 9382+9BE2 32 51 B0           ld    (sound_time),a
 9383+9BE5 AF                 xor   a
 9384+9BE6 32 50 B0           ld    (sound_freq),a
 9385+9BE9 CD 62 A3           call  sound_effect
 9386+9BEC 3E 03              ld    a,3
 9387+9BEE 32 63 B0           ld    (_SEVENFLAG),a
 9388+9BF1 CD EF 6F           call  _DELET
 9389+9BF4 AF                 xor   a
 9390+9BF5 21 62 B0           ld    hl,_S
 9391+9BF8 BE                 cp    (hl)
 9392+9BF9 C2 11 9C           jp    nz,L616
 9393+9BFC              L617
 9394+9BFC 3E 1C              ld    a,28
 9395+9BFE 21 5D B0           ld    hl,_OVER
 9396+9C01 BE                 cp    (hl)
 9397+9C02 CA 0E 9C           jp    z,L619
 9398+9C05 DA 0E 9C           jp    c,L619
 9399+9C08              L620
 9400+9C08 CD EA 64           call  _BLOCKGEN
 9401+9C0B C3 11 9C           jp    L621
 9402+9C0E              L619
 9403+9C0E CD E7 68           call  _BLOCKGEN2
 9404+9C11              L621
 9405+9C11              L616
 9406+9C11              L618
 9407+9C11 AF                 xor   a
 9408+9C12 32 63 B0           ld    (_SEVENFLAG),a
 9409+9C15 CD EF 6F           call  _DELET
 9410+9C18 CD 5E 88           call  _GAMEOVER
 9411+9C1B AF                 xor   a
 9412+9C1C 21 5D B0           ld    hl,_OVER
 9413+9C1F BE                 cp    (hl)
 9414+9C20 C2 26 9C           jp    nz,L622
 9415+9C23              L623
 9416+9C23 CD EA 64           call  _BLOCKGEN
 9417+9C26              L622
 9418+9C26              L624
 9419+9C26 C9                 ret
 9420+9C27              _DOWNMOVE
 9421+9C27 3E 01              ld    a,1
 9422+9C29 32 5A B0           ld    (_X),a
 9423+9C2C 3E 06              ld    a,6
 9424+9C2E 32 53 B5           ld    (Lim_X),a
 9425+9C31              L625
 9426+9C31 3E 01              ld    a,1
 9427+9C33 32 5C B0           ld    (_I),a
 9428+9C36 3E 05              ld    a,5
 9429+9C38 32 5D B5           ld    (Lim_I),a
 9430+9C3B              L627
 9431+9C3B 3E 06              ld    a,6
 9432+9C3D 32 5B B0           ld    (_Y),a
 9433+9C40 3E 02              ld    a,2
 9434+9C42 32 54 B5           ld    (Lim_Y),a
 9435+9C45              L629
 9436+9C45 3A 5A B0           ld    a,(_X)
 9437+9C48 6F                 ld    l,a
 9438+9C49 26 00              ld    h,0
 9439+9C4B 2B                 dec   hl
 9440+9C4C 29                 add   hl,hl
 9441+9C4D 54                 ld    d,h
 9442+9C4E 5D                 ld    e,l
 9443+9C4F 29                 add   hl,hl
 9444+9C50 19                 add   hl,de
 9445+9C51 11 BD B4           ld    de,_MAPBLOCK
 9446+9C54 19                 add   hl,de
 9447+9C55 22 F0 AF           ld    (addr_arraybyte_index111),hl
 9448+9C58 E5                 push  hl
 9449+9C59 3A 5B B0           ld    a,(_Y)
 9450+9C5C 6F                 ld    l,a
 9451+9C5D 26 00              ld    h,0
 9452+9C5F 2B                 dec   hl
 9453+9C60 D1                 pop   de
 9454+9C61 19                 add   hl,de
 9455+9C62 AF                 xor   a
 9456+9C63 BE                 cp    (hl)
 9457+9C64 C2 F6 A1           jp    nz,L631
 9458+9C67 2A F0 AF           ld    hl,(addr_arraybyte_index111)
 9459+9C6A E5                 push  hl
 9460+9C6B 3A 5B B0           ld    a,(_Y)
 9461+9C6E 6F                 ld    l,a
 9462+9C6F 26 00              ld    h,0
 9463+9C71 2B                 dec   hl
 9464+9C72 2B                 dec   hl
 9465+9C73 D1                 pop   de
 9466+9C74 19                 add   hl,de
 9467+9C75 AF                 xor   a
 9468+9C76 BE                 cp    (hl)
 9469+9C77 CA F6 A1           jp    z,L631
 9470+9C7A              L632
 9471+9C7A 2A F0 AF           ld    hl,(addr_arraybyte_index111)
 9472+9C7D E5                 push  hl
 9473+9C7E 3A 5B B0           ld    a,(_Y)
 9474+9C81 6F                 ld    l,a
 9475+9C82 26 00              ld    h,0
 9476+9C84 2B                 dec   hl
 9477+9C85 2B                 dec   hl
 9478+9C86 D1                 pop   de
 9479+9C87 19                 add   hl,de
 9480+9C88 6E                 ld    l,(hl)
 9481+9C89 26 00              ld    h,0
 9482+9C8B 7D                 ld    a,l
 9483+9C8C 32 62 B5           ld    (_L634),a
 9484+9C8F FE 01              cp    1
 9485+9C91 CA 97 9C           jp    z,L637
 9486+9C94 C3 52 9D           jp    L638
 9487+9C97              L637
 9488+9C97 3E 01              ld    a,1
 9489+9C99 32 60 B0           ld    (_Z),a
 9490+9C9C 3E 03              ld    a,3
 9491+9C9E 32 5F B5           ld    (Lim_Z),a
 9492+9CA1              L639
 9493+9CA1 21 8F C8           ld    hl,SPRCLR
 9494+9CA4 E5                 push  hl
 9495+9CA5 21 00 00           ld    hl,0
 9496+9CA8 7D                 ld    a,l
 9497+9CA9 32 F8 AF           ld    (attr_sprite),a
 9498+9CAC 3A 5A B0           ld    a,(_X)
 9499+9CAF 6F                 ld    l,a
 9500+9CB0 26 00              ld    h,0
 9501+9CB2 54                 ld    d,h
 9502+9CB3 5D                 ld    e,l
 9503+9CB4 29                 add   hl,hl
 9504+9CB5 19                 add   hl,de
 9505+9CB6 2B                 dec   hl
 9506+9CB7 E5                 push  hl
 9507+9CB8 3A 5B B0           ld    a,(_Y)
 9508+9CBB 6F                 ld    l,a
 9509+9CBC 26 00              ld    h,0
 9510+9CBE 2B                 dec   hl
 9511+9CBF 54                 ld    d,h
 9512+9CC0 5D                 ld    e,l
 9513+9CC1 29                 add   hl,hl
 9514+9CC2 19                 add   hl,de
 9515+9CC3 2B                 dec   hl
 9516+9CC4 55                 ld    d,l
 9517+9CC5 E1                 pop   hl
 9518+9CC6 5D                 ld    e,l
 9519+9CC7 E1                 pop   hl
 9520+9CC8 CD DA A4           call  put_spr_put
 9521+9CCB 21 12 C6           ld    hl,SPRBLOCK1
 9522+9CCE E5                 push  hl
 9523+9CCF 21 01 00           ld    hl,1
 9524+9CD2 7D                 ld    a,l
 9525+9CD3 32 F8 AF           ld    (attr_sprite),a
 9526+9CD6 3A 5A B0           ld    a,(_X)
 9527+9CD9 6F                 ld    l,a
 9528+9CDA 26 00              ld    h,0
 9529+9CDC 54                 ld    d,h
 9530+9CDD 5D                 ld    e,l
 9531+9CDE 29                 add   hl,hl
 9532+9CDF 19                 add   hl,de
 9533+9CE0 2B                 dec   hl
 9534+9CE1 E5                 push  hl
 9535+9CE2 3A 5B B0           ld    a,(_Y)
 9536+9CE5 6F                 ld    l,a
 9537+9CE6 26 00              ld    h,0
 9538+9CE8 2B                 dec   hl
 9539+9CE9 54                 ld    d,h
 9540+9CEA 5D                 ld    e,l
 9541+9CEB 29                 add   hl,hl
 9542+9CEC 19                 add   hl,de
 9543+9CED 2B                 dec   hl
 9544+9CEE 3A 60 B0           ld    a,(_Z)
 9545+9CF1 5F                 ld    e,a
 9546+9CF2 16 00              ld    d,0
 9547+9CF4 19                 add   hl,de
 9548+9CF5 55                 ld    d,l
 9549+9CF6 E1                 pop   hl
 9550+9CF7 5D                 ld    e,l
 9551+9CF8 E1                 pop   hl
 9552+9CF9 CD DA A4           call  put_spr_put
 9553+9CFC 3A 5F B5           ld    a,(Lim_Z)
 9554+9CFF 21 60 B0           ld    hl,_Z
 9555+9D02 BE                 cp    (hl)
 9556+9D03 CA 0D 9D           jp    z,L640
 9557+9D06 21 60 B0           ld    hl,_Z
 9558+9D09 34                 inc   (hl)
 9559+9D0A C3 A1 9C           jp    L639
 9560+9D0D              L640
 9561+9D0D 3A 5A B0           ld    a,(_X)
 9562+9D10 6F                 ld    l,a
 9563+9D11 26 00              ld    h,0
 9564+9D13 2B                 dec   hl
 9565+9D14 29                 add   hl,hl
 9566+9D15 54                 ld    d,h
 9567+9D16 5D                 ld    e,l
 9568+9D17 29                 add   hl,hl
 9569+9D18 19                 add   hl,de
 9570+9D19 11 BD B4           ld    de,_MAPBLOCK
 9571+9D1C 19                 add   hl,de
 9572+9D1D 22 F0 AF           ld    (addr_arraybyte_index111),hl
 9573+9D20 E5                 push  hl
 9574+9D21 3A 5B B0           ld    a,(_Y)
 9575+9D24 6F                 ld    l,a
 9576+9D25 26 00              ld    h,0
 9577+9D27 2B                 dec   hl
 9578+9D28 D1                 pop   de
 9579+9D29 19                 add   hl,de
 9580+9D2A E5                 push  hl
 9581+9D2B 2A F0 AF           ld    hl,(addr_arraybyte_index111)
 9582+9D2E E5                 push  hl
 9583+9D2F 3A 5B B0           ld    a,(_Y)
 9584+9D32 6F                 ld    l,a
 9585+9D33 26 00              ld    h,0
 9586+9D35 2B                 dec   hl
 9587+9D36 2B                 dec   hl
 9588+9D37 D1                 pop   de
 9589+9D38 19                 add   hl,de
 9590+9D39 6E                 ld    l,(hl)
 9591+9D3A 26 00              ld    h,0
 9592+9D3C D1                 pop   de
 9593+9D3D 7D                 ld    a,l
 9594+9D3E 12                 ld    (de),a
 9595+9D3F 2A F0 AF           ld    hl,(addr_arraybyte_index111)
 9596+9D42 E5                 push  hl
 9597+9D43 3A 5B B0           ld    a,(_Y)
 9598+9D46 6F                 ld    l,a
 9599+9D47 26 00              ld    h,0
 9600+9D49 2B                 dec   hl
 9601+9D4A 2B                 dec   hl
 9602+9D4B D1                 pop   de
 9603+9D4C 19                 add   hl,de
 9604+9D4D 36 00              ld    (hl),0
 9605+9D4F C3 F6 A1           jp    L635
 9606+9D52              L638
 9607+9D52 3A 62 B5           ld    a,(_L634)
 9608+9D55 FE 02              cp    2
 9609+9D57 CA 5D 9D           jp    z,L641
 9610+9D5A C3 18 9E           jp    L642
 9611+9D5D              L641
 9612+9D5D 3E 01              ld    a,1
 9613+9D5F 32 60 B0           ld    (_Z),a
 9614+9D62 3E 03              ld    a,3
 9615+9D64 32 5F B5           ld    (Lim_Z),a
 9616+9D67              L643
 9617+9D67 21 8F C8           ld    hl,SPRCLR
 9618+9D6A E5                 push  hl
 9619+9D6B 21 00 00           ld    hl,0
 9620+9D6E 7D                 ld    a,l
 9621+9D6F 32 F8 AF           ld    (attr_sprite),a
 9622+9D72 3A 5A B0           ld    a,(_X)
 9623+9D75 6F                 ld    l,a
 9624+9D76 26 00              ld    h,0
 9625+9D78 54                 ld    d,h
 9626+9D79 5D                 ld    e,l
 9627+9D7A 29                 add   hl,hl
 9628+9D7B 19                 add   hl,de
 9629+9D7C 2B                 dec   hl
 9630+9D7D E5                 push  hl
 9631+9D7E 3A 5B B0           ld    a,(_Y)
 9632+9D81 6F                 ld    l,a
 9633+9D82 26 00              ld    h,0
 9634+9D84 2B                 dec   hl
 9635+9D85 54                 ld    d,h
 9636+9D86 5D                 ld    e,l
 9637+9D87 29                 add   hl,hl
 9638+9D88 19                 add   hl,de
 9639+9D89 2B                 dec   hl
 9640+9D8A 55                 ld    d,l
 9641+9D8B E1                 pop   hl
 9642+9D8C 5D                 ld    e,l
 9643+9D8D E1                 pop   hl
 9644+9D8E CD DA A4           call  put_spr_put
 9645+9D91 21 6D C6           ld    hl,SPRBLOCK2
 9646+9D94 E5                 push  hl
 9647+9D95 21 02 00           ld    hl,2
 9648+9D98 7D                 ld    a,l
 9649+9D99 32 F8 AF           ld    (attr_sprite),a
 9650+9D9C 3A 5A B0           ld    a,(_X)
 9651+9D9F 6F                 ld    l,a
 9652+9DA0 26 00              ld    h,0
 9653+9DA2 54                 ld    d,h
 9654+9DA3 5D                 ld    e,l
 9655+9DA4 29                 add   hl,hl
 9656+9DA5 19                 add   hl,de
 9657+9DA6 2B                 dec   hl
 9658+9DA7 E5                 push  hl
 9659+9DA8 3A 5B B0           ld    a,(_Y)
 9660+9DAB 6F                 ld    l,a
 9661+9DAC 26 00              ld    h,0
 9662+9DAE 2B                 dec   hl
 9663+9DAF 54                 ld    d,h
 9664+9DB0 5D                 ld    e,l
 9665+9DB1 29                 add   hl,hl
 9666+9DB2 19                 add   hl,de
 9667+9DB3 2B                 dec   hl
 9668+9DB4 3A 60 B0           ld    a,(_Z)
 9669+9DB7 5F                 ld    e,a
 9670+9DB8 16 00              ld    d,0
 9671+9DBA 19                 add   hl,de
 9672+9DBB 55                 ld    d,l
 9673+9DBC E1                 pop   hl
 9674+9DBD 5D                 ld    e,l
 9675+9DBE E1                 pop   hl
 9676+9DBF CD DA A4           call  put_spr_put
 9677+9DC2 3A 5F B5           ld    a,(Lim_Z)
 9678+9DC5 21 60 B0           ld    hl,_Z
 9679+9DC8 BE                 cp    (hl)
 9680+9DC9 CA D3 9D           jp    z,L644
 9681+9DCC 21 60 B0           ld    hl,_Z
 9682+9DCF 34                 inc   (hl)
 9683+9DD0 C3 67 9D           jp    L643
 9684+9DD3              L644
 9685+9DD3 3A 5A B0           ld    a,(_X)
 9686+9DD6 6F                 ld    l,a
 9687+9DD7 26 00              ld    h,0
 9688+9DD9 2B                 dec   hl
 9689+9DDA 29                 add   hl,hl
 9690+9DDB 54                 ld    d,h
 9691+9DDC 5D                 ld    e,l
 9692+9DDD 29                 add   hl,hl
 9693+9DDE 19                 add   hl,de
 9694+9DDF 11 BD B4           ld    de,_MAPBLOCK
 9695+9DE2 19                 add   hl,de
 9696+9DE3 22 F0 AF           ld    (addr_arraybyte_index111),hl
 9697+9DE6 E5                 push  hl
 9698+9DE7 3A 5B B0           ld    a,(_Y)
 9699+9DEA 6F                 ld    l,a
 9700+9DEB 26 00              ld    h,0
 9701+9DED 2B                 dec   hl
 9702+9DEE D1                 pop   de
 9703+9DEF 19                 add   hl,de
 9704+9DF0 E5                 push  hl
 9705+9DF1 2A F0 AF           ld    hl,(addr_arraybyte_index111)
 9706+9DF4 E5                 push  hl
 9707+9DF5 3A 5B B0           ld    a,(_Y)
 9708+9DF8 6F                 ld    l,a
 9709+9DF9 26 00              ld    h,0
 9710+9DFB 2B                 dec   hl
 9711+9DFC 2B                 dec   hl
 9712+9DFD D1                 pop   de
 9713+9DFE 19                 add   hl,de
 9714+9DFF 6E                 ld    l,(hl)
 9715+9E00 26 00              ld    h,0
 9716+9E02 D1                 pop   de
 9717+9E03 7D                 ld    a,l
 9718+9E04 12                 ld    (de),a
 9719+9E05 2A F0 AF           ld    hl,(addr_arraybyte_index111)
 9720+9E08 E5                 push  hl
 9721+9E09 3A 5B B0           ld    a,(_Y)
 9722+9E0C 6F                 ld    l,a
 9723+9E0D 26 00              ld    h,0
 9724+9E0F 2B                 dec   hl
 9725+9E10 2B                 dec   hl
 9726+9E11 D1                 pop   de
 9727+9E12 19                 add   hl,de
 9728+9E13 36 00              ld    (hl),0
 9729+9E15 C3 F6 A1           jp    L635
 9730+9E18              L642
 9731+9E18 3A 62 B5           ld    a,(_L634)
 9732+9E1B FE 03              cp    3
 9733+9E1D CA 23 9E           jp    z,L645
 9734+9E20 C3 DE 9E           jp    L646
 9735+9E23              L645
 9736+9E23 3E 01              ld    a,1
 9737+9E25 32 60 B0           ld    (_Z),a
 9738+9E28 3E 03              ld    a,3
 9739+9E2A 32 5F B5           ld    (Lim_Z),a
 9740+9E2D              L647
 9741+9E2D 21 8F C8           ld    hl,SPRCLR
 9742+9E30 E5                 push  hl
 9743+9E31 21 00 00           ld    hl,0
 9744+9E34 7D                 ld    a,l
 9745+9E35 32 F8 AF           ld    (attr_sprite),a
 9746+9E38 3A 5A B0           ld    a,(_X)
 9747+9E3B 6F                 ld    l,a
 9748+9E3C 26 00              ld    h,0
 9749+9E3E 54                 ld    d,h
 9750+9E3F 5D                 ld    e,l
 9751+9E40 29                 add   hl,hl
 9752+9E41 19                 add   hl,de
 9753+9E42 2B                 dec   hl
 9754+9E43 E5                 push  hl
 9755+9E44 3A 5B B0           ld    a,(_Y)
 9756+9E47 6F                 ld    l,a
 9757+9E48 26 00              ld    h,0
 9758+9E4A 2B                 dec   hl
 9759+9E4B 54                 ld    d,h
 9760+9E4C 5D                 ld    e,l
 9761+9E4D 29                 add   hl,hl
 9762+9E4E 19                 add   hl,de
 9763+9E4F 2B                 dec   hl
 9764+9E50 55                 ld    d,l
 9765+9E51 E1                 pop   hl
 9766+9E52 5D                 ld    e,l
 9767+9E53 E1                 pop   hl
 9768+9E54 CD DA A4           call  put_spr_put
 9769+9E57 21 C8 C6           ld    hl,SPRBLOCK3
 9770+9E5A E5                 push  hl
 9771+9E5B 21 03 00           ld    hl,3
 9772+9E5E 7D                 ld    a,l
 9773+9E5F 32 F8 AF           ld    (attr_sprite),a
 9774+9E62 3A 5A B0           ld    a,(_X)
 9775+9E65 6F                 ld    l,a
 9776+9E66 26 00              ld    h,0
 9777+9E68 54                 ld    d,h
 9778+9E69 5D                 ld    e,l
 9779+9E6A 29                 add   hl,hl
 9780+9E6B 19                 add   hl,de
 9781+9E6C 2B                 dec   hl
 9782+9E6D E5                 push  hl
 9783+9E6E 3A 5B B0           ld    a,(_Y)
 9784+9E71 6F                 ld    l,a
 9785+9E72 26 00              ld    h,0
 9786+9E74 2B                 dec   hl
 9787+9E75 54                 ld    d,h
 9788+9E76 5D                 ld    e,l
 9789+9E77 29                 add   hl,hl
 9790+9E78 19                 add   hl,de
 9791+9E79 2B                 dec   hl
 9792+9E7A 3A 60 B0           ld    a,(_Z)
 9793+9E7D 5F                 ld    e,a
 9794+9E7E 16 00              ld    d,0
 9795+9E80 19                 add   hl,de
 9796+9E81 55                 ld    d,l
 9797+9E82 E1                 pop   hl
 9798+9E83 5D                 ld    e,l
 9799+9E84 E1                 pop   hl
 9800+9E85 CD DA A4           call  put_spr_put
 9801+9E88 3A 5F B5           ld    a,(Lim_Z)
 9802+9E8B 21 60 B0           ld    hl,_Z
 9803+9E8E BE                 cp    (hl)
 9804+9E8F CA 99 9E           jp    z,L648
 9805+9E92 21 60 B0           ld    hl,_Z
 9806+9E95 34                 inc   (hl)
 9807+9E96 C3 2D 9E           jp    L647
 9808+9E99              L648
 9809+9E99 3A 5A B0           ld    a,(_X)
 9810+9E9C 6F                 ld    l,a
 9811+9E9D 26 00              ld    h,0
 9812+9E9F 2B                 dec   hl
 9813+9EA0 29                 add   hl,hl
 9814+9EA1 54                 ld    d,h
 9815+9EA2 5D                 ld    e,l
 9816+9EA3 29                 add   hl,hl
 9817+9EA4 19                 add   hl,de
 9818+9EA5 11 BD B4           ld    de,_MAPBLOCK
 9819+9EA8 19                 add   hl,de
 9820+9EA9 22 F0 AF           ld    (addr_arraybyte_index111),hl
 9821+9EAC E5                 push  hl
 9822+9EAD 3A 5B B0           ld    a,(_Y)
 9823+9EB0 6F                 ld    l,a
 9824+9EB1 26 00              ld    h,0
 9825+9EB3 2B                 dec   hl
 9826+9EB4 D1                 pop   de
 9827+9EB5 19                 add   hl,de
 9828+9EB6 E5                 push  hl
 9829+9EB7 2A F0 AF           ld    hl,(addr_arraybyte_index111)
 9830+9EBA E5                 push  hl
 9831+9EBB 3A 5B B0           ld    a,(_Y)
 9832+9EBE 6F                 ld    l,a
 9833+9EBF 26 00              ld    h,0
 9834+9EC1 2B                 dec   hl
 9835+9EC2 2B                 dec   hl
 9836+9EC3 D1                 pop   de
 9837+9EC4 19                 add   hl,de
 9838+9EC5 6E                 ld    l,(hl)
 9839+9EC6 26 00              ld    h,0
 9840+9EC8 D1                 pop   de
 9841+9EC9 7D                 ld    a,l
 9842+9ECA 12                 ld    (de),a
 9843+9ECB 2A F0 AF           ld    hl,(addr_arraybyte_index111)
 9844+9ECE E5                 push  hl
 9845+9ECF 3A 5B B0           ld    a,(_Y)
 9846+9ED2 6F                 ld    l,a
 9847+9ED3 26 00              ld    h,0
 9848+9ED5 2B                 dec   hl
 9849+9ED6 2B                 dec   hl
 9850+9ED7 D1                 pop   de
 9851+9ED8 19                 add   hl,de
 9852+9ED9 36 00              ld    (hl),0
 9853+9EDB C3 F6 A1           jp    L635
 9854+9EDE              L646
 9855+9EDE 3A 62 B5           ld    a,(_L634)
 9856+9EE1 FE 04              cp    4
 9857+9EE3 CA E9 9E           jp    z,L649
 9858+9EE6 C3 A4 9F           jp    L650
 9859+9EE9              L649
 9860+9EE9 3E 01              ld    a,1
 9861+9EEB 32 60 B0           ld    (_Z),a
 9862+9EEE 3E 03              ld    a,3
 9863+9EF0 32 5F B5           ld    (Lim_Z),a
 9864+9EF3              L651
 9865+9EF3 21 8F C8           ld    hl,SPRCLR
 9866+9EF6 E5                 push  hl
 9867+9EF7 21 00 00           ld    hl,0
 9868+9EFA 7D                 ld    a,l
 9869+9EFB 32 F8 AF           ld    (attr_sprite),a
 9870+9EFE 3A 5A B0           ld    a,(_X)
 9871+9F01 6F                 ld    l,a
 9872+9F02 26 00              ld    h,0
 9873+9F04 54                 ld    d,h
 9874+9F05 5D                 ld    e,l
 9875+9F06 29                 add   hl,hl
 9876+9F07 19                 add   hl,de
 9877+9F08 2B                 dec   hl
 9878+9F09 E5                 push  hl
 9879+9F0A 3A 5B B0           ld    a,(_Y)
 9880+9F0D 6F                 ld    l,a
 9881+9F0E 26 00              ld    h,0
 9882+9F10 2B                 dec   hl
 9883+9F11 54                 ld    d,h
 9884+9F12 5D                 ld    e,l
 9885+9F13 29                 add   hl,hl
 9886+9F14 19                 add   hl,de
 9887+9F15 2B                 dec   hl
 9888+9F16 55                 ld    d,l
 9889+9F17 E1                 pop   hl
 9890+9F18 5D                 ld    e,l
 9891+9F19 E1                 pop   hl
 9892+9F1A CD DA A4           call  put_spr_put
 9893+9F1D 21 23 C7           ld    hl,SPRBLOCK4
 9894+9F20 E5                 push  hl
 9895+9F21 21 04 00           ld    hl,4
 9896+9F24 7D                 ld    a,l
 9897+9F25 32 F8 AF           ld    (attr_sprite),a
 9898+9F28 3A 5A B0           ld    a,(_X)
 9899+9F2B 6F                 ld    l,a
 9900+9F2C 26 00              ld    h,0
 9901+9F2E 54                 ld    d,h
 9902+9F2F 5D                 ld    e,l
 9903+9F30 29                 add   hl,hl
 9904+9F31 19                 add   hl,de
 9905+9F32 2B                 dec   hl
 9906+9F33 E5                 push  hl
 9907+9F34 3A 5B B0           ld    a,(_Y)
 9908+9F37 6F                 ld    l,a
 9909+9F38 26 00              ld    h,0
 9910+9F3A 2B                 dec   hl
 9911+9F3B 54                 ld    d,h
 9912+9F3C 5D                 ld    e,l
 9913+9F3D 29                 add   hl,hl
 9914+9F3E 19                 add   hl,de
 9915+9F3F 2B                 dec   hl
 9916+9F40 3A 60 B0           ld    a,(_Z)
 9917+9F43 5F                 ld    e,a
 9918+9F44 16 00              ld    d,0
 9919+9F46 19                 add   hl,de
 9920+9F47 55                 ld    d,l
 9921+9F48 E1                 pop   hl
 9922+9F49 5D                 ld    e,l
 9923+9F4A E1                 pop   hl
 9924+9F4B CD DA A4           call  put_spr_put
 9925+9F4E 3A 5F B5           ld    a,(Lim_Z)
 9926+9F51 21 60 B0           ld    hl,_Z
 9927+9F54 BE                 cp    (hl)
 9928+9F55 CA 5F 9F           jp    z,L652
 9929+9F58 21 60 B0           ld    hl,_Z
 9930+9F5B 34                 inc   (hl)
 9931+9F5C C3 F3 9E           jp    L651
 9932+9F5F              L652
 9933+9F5F 3A 5A B0           ld    a,(_X)
 9934+9F62 6F                 ld    l,a
 9935+9F63 26 00              ld    h,0
 9936+9F65 2B                 dec   hl
 9937+9F66 29                 add   hl,hl
 9938+9F67 54                 ld    d,h
 9939+9F68 5D                 ld    e,l
 9940+9F69 29                 add   hl,hl
 9941+9F6A 19                 add   hl,de
 9942+9F6B 11 BD B4           ld    de,_MAPBLOCK
 9943+9F6E 19                 add   hl,de
 9944+9F6F 22 F0 AF           ld    (addr_arraybyte_index111),hl
 9945+9F72 E5                 push  hl
 9946+9F73 3A 5B B0           ld    a,(_Y)
 9947+9F76 6F                 ld    l,a
 9948+9F77 26 00              ld    h,0
 9949+9F79 2B                 dec   hl
 9950+9F7A D1                 pop   de
 9951+9F7B 19                 add   hl,de
 9952+9F7C E5                 push  hl
 9953+9F7D 2A F0 AF           ld    hl,(addr_arraybyte_index111)
 9954+9F80 E5                 push  hl
 9955+9F81 3A 5B B0           ld    a,(_Y)
 9956+9F84 6F                 ld    l,a
 9957+9F85 26 00              ld    h,0
 9958+9F87 2B                 dec   hl
 9959+9F88 2B                 dec   hl
 9960+9F89 D1                 pop   de
 9961+9F8A 19                 add   hl,de
 9962+9F8B 6E                 ld    l,(hl)
 9963+9F8C 26 00              ld    h,0
 9964+9F8E D1                 pop   de
 9965+9F8F 7D                 ld    a,l
 9966+9F90 12                 ld    (de),a
 9967+9F91 2A F0 AF           ld    hl,(addr_arraybyte_index111)
 9968+9F94 E5                 push  hl
 9969+9F95 3A 5B B0           ld    a,(_Y)
 9970+9F98 6F                 ld    l,a
 9971+9F99 26 00              ld    h,0
 9972+9F9B 2B                 dec   hl
 9973+9F9C 2B                 dec   hl
 9974+9F9D D1                 pop   de
 9975+9F9E 19                 add   hl,de
 9976+9F9F 36 00              ld    (hl),0
 9977+9FA1 C3 F6 A1           jp    L635
 9978+9FA4              L650
 9979+9FA4 3A 62 B5           ld    a,(_L634)
 9980+9FA7 FE 05              cp    5
 9981+9FA9 CA AF 9F           jp    z,L653
 9982+9FAC C3 6A A0           jp    L654
 9983+9FAF              L653
 9984+9FAF 3E 01              ld    a,1
 9985+9FB1 32 60 B0           ld    (_Z),a
 9986+9FB4 3E 03              ld    a,3
 9987+9FB6 32 5F B5           ld    (Lim_Z),a
 9988+9FB9              L655
 9989+9FB9 21 8F C8           ld    hl,SPRCLR
 9990+9FBC E5                 push  hl
 9991+9FBD 21 00 00           ld    hl,0
 9992+9FC0 7D                 ld    a,l
 9993+9FC1 32 F8 AF           ld    (attr_sprite),a
 9994+9FC4 3A 5A B0           ld    a,(_X)
 9995+9FC7 6F                 ld    l,a
 9996+9FC8 26 00              ld    h,0
 9997+9FCA 54                 ld    d,h
 9998+9FCB 5D                 ld    e,l
 9999+9FCC 29                 add   hl,hl
10000+9FCD 19                 add   hl,de
10001+9FCE 2B                 dec   hl
10002+9FCF E5                 push  hl
10003+9FD0 3A 5B B0           ld    a,(_Y)
10004+9FD3 6F                 ld    l,a
10005+9FD4 26 00              ld    h,0
10006+9FD6 2B                 dec   hl
10007+9FD7 54                 ld    d,h
10008+9FD8 5D                 ld    e,l
10009+9FD9 29                 add   hl,hl
10010+9FDA 19                 add   hl,de
10011+9FDB 2B                 dec   hl
10012+9FDC 55                 ld    d,l
10013+9FDD E1                 pop   hl
10014+9FDE 5D                 ld    e,l
10015+9FDF E1                 pop   hl
10016+9FE0 CD DA A4           call  put_spr_put
10017+9FE3 21 7E C7           ld    hl,SPRBLOCK5
10018+9FE6 E5                 push  hl
10019+9FE7 21 05 00           ld    hl,5
10020+9FEA 7D                 ld    a,l
10021+9FEB 32 F8 AF           ld    (attr_sprite),a
10022+9FEE 3A 5A B0           ld    a,(_X)
10023+9FF1 6F                 ld    l,a
10024+9FF2 26 00              ld    h,0
10025+9FF4 54                 ld    d,h
10026+9FF5 5D                 ld    e,l
10027+9FF6 29                 add   hl,hl
10028+9FF7 19                 add   hl,de
10029+9FF8 2B                 dec   hl
10030+9FF9 E5                 push  hl
10031+9FFA 3A 5B B0           ld    a,(_Y)
10032+9FFD 6F                 ld    l,a
10033+9FFE 26 00              ld    h,0
10034+A000 2B                 dec   hl
10035+A001 54                 ld    d,h
10036+A002 5D                 ld    e,l
10037+A003 29                 add   hl,hl
10038+A004 19                 add   hl,de
10039+A005 2B                 dec   hl
10040+A006 3A 60 B0           ld    a,(_Z)
10041+A009 5F                 ld    e,a
10042+A00A 16 00              ld    d,0
10043+A00C 19                 add   hl,de
10044+A00D 55                 ld    d,l
10045+A00E E1                 pop   hl
10046+A00F 5D                 ld    e,l
10047+A010 E1                 pop   hl
10048+A011 CD DA A4           call  put_spr_put
10049+A014 3A 5F B5           ld    a,(Lim_Z)
10050+A017 21 60 B0           ld    hl,_Z
10051+A01A BE                 cp    (hl)
10052+A01B CA 25 A0           jp    z,L656
10053+A01E 21 60 B0           ld    hl,_Z
10054+A021 34                 inc   (hl)
10055+A022 C3 B9 9F           jp    L655
10056+A025              L656
10057+A025 3A 5A B0           ld    a,(_X)
10058+A028 6F                 ld    l,a
10059+A029 26 00              ld    h,0
10060+A02B 2B                 dec   hl
10061+A02C 29                 add   hl,hl
10062+A02D 54                 ld    d,h
10063+A02E 5D                 ld    e,l
10064+A02F 29                 add   hl,hl
10065+A030 19                 add   hl,de
10066+A031 11 BD B4           ld    de,_MAPBLOCK
10067+A034 19                 add   hl,de
10068+A035 22 F0 AF           ld    (addr_arraybyte_index111),hl
10069+A038 E5                 push  hl
10070+A039 3A 5B B0           ld    a,(_Y)
10071+A03C 6F                 ld    l,a
10072+A03D 26 00              ld    h,0
10073+A03F 2B                 dec   hl
10074+A040 D1                 pop   de
10075+A041 19                 add   hl,de
10076+A042 E5                 push  hl
10077+A043 2A F0 AF           ld    hl,(addr_arraybyte_index111)
10078+A046 E5                 push  hl
10079+A047 3A 5B B0           ld    a,(_Y)
10080+A04A 6F                 ld    l,a
10081+A04B 26 00              ld    h,0
10082+A04D 2B                 dec   hl
10083+A04E 2B                 dec   hl
10084+A04F D1                 pop   de
10085+A050 19                 add   hl,de
10086+A051 6E                 ld    l,(hl)
10087+A052 26 00              ld    h,0
10088+A054 D1                 pop   de
10089+A055 7D                 ld    a,l
10090+A056 12                 ld    (de),a
10091+A057 2A F0 AF           ld    hl,(addr_arraybyte_index111)
10092+A05A E5                 push  hl
10093+A05B 3A 5B B0           ld    a,(_Y)
10094+A05E 6F                 ld    l,a
10095+A05F 26 00              ld    h,0
10096+A061 2B                 dec   hl
10097+A062 2B                 dec   hl
10098+A063 D1                 pop   de
10099+A064 19                 add   hl,de
10100+A065 36 00              ld    (hl),0
10101+A067 C3 F6 A1           jp    L635
10102+A06A              L654
10103+A06A 3A 62 B5           ld    a,(_L634)
10104+A06D FE 06              cp    6
10105+A06F CA 75 A0           jp    z,L657
10106+A072 C3 30 A1           jp    L658
10107+A075              L657
10108+A075 3E 01              ld    a,1
10109+A077 32 60 B0           ld    (_Z),a
10110+A07A 3E 03              ld    a,3
10111+A07C 32 5F B5           ld    (Lim_Z),a
10112+A07F              L659
10113+A07F 21 8F C8           ld    hl,SPRCLR
10114+A082 E5                 push  hl
10115+A083 21 00 00           ld    hl,0
10116+A086 7D                 ld    a,l
10117+A087 32 F8 AF           ld    (attr_sprite),a
10118+A08A 3A 5A B0           ld    a,(_X)
10119+A08D 6F                 ld    l,a
10120+A08E 26 00              ld    h,0
10121+A090 54                 ld    d,h
10122+A091 5D                 ld    e,l
10123+A092 29                 add   hl,hl
10124+A093 19                 add   hl,de
10125+A094 2B                 dec   hl
10126+A095 E5                 push  hl
10127+A096 3A 5B B0           ld    a,(_Y)
10128+A099 6F                 ld    l,a
10129+A09A 26 00              ld    h,0
10130+A09C 2B                 dec   hl
10131+A09D 54                 ld    d,h
10132+A09E 5D                 ld    e,l
10133+A09F 29                 add   hl,hl
10134+A0A0 19                 add   hl,de
10135+A0A1 2B                 dec   hl
10136+A0A2 55                 ld    d,l
10137+A0A3 E1                 pop   hl
10138+A0A4 5D                 ld    e,l
10139+A0A5 E1                 pop   hl
10140+A0A6 CD DA A4           call  put_spr_put
10141+A0A9 21 D9 C7           ld    hl,SPRBLOCK6
10142+A0AC E5                 push  hl
10143+A0AD 21 06 00           ld    hl,6
10144+A0B0 7D                 ld    a,l
10145+A0B1 32 F8 AF           ld    (attr_sprite),a
10146+A0B4 3A 5A B0           ld    a,(_X)
10147+A0B7 6F                 ld    l,a
10148+A0B8 26 00              ld    h,0
10149+A0BA 54                 ld    d,h
10150+A0BB 5D                 ld    e,l
10151+A0BC 29                 add   hl,hl
10152+A0BD 19                 add   hl,de
10153+A0BE 2B                 dec   hl
10154+A0BF E5                 push  hl
10155+A0C0 3A 5B B0           ld    a,(_Y)
10156+A0C3 6F                 ld    l,a
10157+A0C4 26 00              ld    h,0
10158+A0C6 2B                 dec   hl
10159+A0C7 54                 ld    d,h
10160+A0C8 5D                 ld    e,l
10161+A0C9 29                 add   hl,hl
10162+A0CA 19                 add   hl,de
10163+A0CB 2B                 dec   hl
10164+A0CC 3A 60 B0           ld    a,(_Z)
10165+A0CF 5F                 ld    e,a
10166+A0D0 16 00              ld    d,0
10167+A0D2 19                 add   hl,de
10168+A0D3 55                 ld    d,l
10169+A0D4 E1                 pop   hl
10170+A0D5 5D                 ld    e,l
10171+A0D6 E1                 pop   hl
10172+A0D7 CD DA A4           call  put_spr_put
10173+A0DA 3A 5F B5           ld    a,(Lim_Z)
10174+A0DD 21 60 B0           ld    hl,_Z
10175+A0E0 BE                 cp    (hl)
10176+A0E1 CA EB A0           jp    z,L660
10177+A0E4 21 60 B0           ld    hl,_Z
10178+A0E7 34                 inc   (hl)
10179+A0E8 C3 7F A0           jp    L659
10180+A0EB              L660
10181+A0EB 3A 5A B0           ld    a,(_X)
10182+A0EE 6F                 ld    l,a
10183+A0EF 26 00              ld    h,0
10184+A0F1 2B                 dec   hl
10185+A0F2 29                 add   hl,hl
10186+A0F3 54                 ld    d,h
10187+A0F4 5D                 ld    e,l
10188+A0F5 29                 add   hl,hl
10189+A0F6 19                 add   hl,de
10190+A0F7 11 BD B4           ld    de,_MAPBLOCK
10191+A0FA 19                 add   hl,de
10192+A0FB 22 F0 AF           ld    (addr_arraybyte_index111),hl
10193+A0FE E5                 push  hl
10194+A0FF 3A 5B B0           ld    a,(_Y)
10195+A102 6F                 ld    l,a
10196+A103 26 00              ld    h,0
10197+A105 2B                 dec   hl
10198+A106 D1                 pop   de
10199+A107 19                 add   hl,de
10200+A108 E5                 push  hl
10201+A109 2A F0 AF           ld    hl,(addr_arraybyte_index111)
10202+A10C E5                 push  hl
10203+A10D 3A 5B B0           ld    a,(_Y)
10204+A110 6F                 ld    l,a
10205+A111 26 00              ld    h,0
10206+A113 2B                 dec   hl
10207+A114 2B                 dec   hl
10208+A115 D1                 pop   de
10209+A116 19                 add   hl,de
10210+A117 6E                 ld    l,(hl)
10211+A118 26 00              ld    h,0
10212+A11A D1                 pop   de
10213+A11B 7D                 ld    a,l
10214+A11C 12                 ld    (de),a
10215+A11D 2A F0 AF           ld    hl,(addr_arraybyte_index111)
10216+A120 E5                 push  hl
10217+A121 3A 5B B0           ld    a,(_Y)
10218+A124 6F                 ld    l,a
10219+A125 26 00              ld    h,0
10220+A127 2B                 dec   hl
10221+A128 2B                 dec   hl
10222+A129 D1                 pop   de
10223+A12A 19                 add   hl,de
10224+A12B 36 00              ld    (hl),0
10225+A12D C3 F6 A1           jp    L635
10226+A130              L658
10227+A130 3A 62 B5           ld    a,(_L634)
10228+A133 FE 07              cp    7
10229+A135 CA 3B A1           jp    z,L661
10230+A138 C3 F6 A1           jp    L662
10231+A13B              L661
10232+A13B 3E 01              ld    a,1
10233+A13D 32 60 B0           ld    (_Z),a
10234+A140 3E 03              ld    a,3
10235+A142 32 5F B5           ld    (Lim_Z),a
10236+A145              L663
10237+A145 21 8F C8           ld    hl,SPRCLR
10238+A148 E5                 push  hl
10239+A149 21 00 00           ld    hl,0
10240+A14C 7D                 ld    a,l
10241+A14D 32 F8 AF           ld    (attr_sprite),a
10242+A150 3A 5A B0           ld    a,(_X)
10243+A153 6F                 ld    l,a
10244+A154 26 00              ld    h,0
10245+A156 54                 ld    d,h
10246+A157 5D                 ld    e,l
10247+A158 29                 add   hl,hl
10248+A159 19                 add   hl,de
10249+A15A 2B                 dec   hl
10250+A15B E5                 push  hl
10251+A15C 3A 5B B0           ld    a,(_Y)
10252+A15F 6F                 ld    l,a
10253+A160 26 00              ld    h,0
10254+A162 2B                 dec   hl
10255+A163 54                 ld    d,h
10256+A164 5D                 ld    e,l
10257+A165 29                 add   hl,hl
10258+A166 19                 add   hl,de
10259+A167 2B                 dec   hl
10260+A168 55                 ld    d,l
10261+A169 E1                 pop   hl
10262+A16A 5D                 ld    e,l
10263+A16B E1                 pop   hl
10264+A16C CD DA A4           call  put_spr_put
10265+A16F 21 34 C8           ld    hl,SPRBLOCK7
10266+A172 E5                 push  hl
10267+A173 21 47 00           ld    hl,71
10268+A176 7D                 ld    a,l
10269+A177 32 F8 AF           ld    (attr_sprite),a
10270+A17A 3A 5A B0           ld    a,(_X)
10271+A17D 6F                 ld    l,a
10272+A17E 26 00              ld    h,0
10273+A180 54                 ld    d,h
10274+A181 5D                 ld    e,l
10275+A182 29                 add   hl,hl
10276+A183 19                 add   hl,de
10277+A184 2B                 dec   hl
10278+A185 E5                 push  hl
10279+A186 3A 5B B0           ld    a,(_Y)
10280+A189 6F                 ld    l,a
10281+A18A 26 00              ld    h,0
10282+A18C 2B                 dec   hl
10283+A18D 54                 ld    d,h
10284+A18E 5D                 ld    e,l
10285+A18F 29                 add   hl,hl
10286+A190 19                 add   hl,de
10287+A191 2B                 dec   hl
10288+A192 3A 60 B0           ld    a,(_Z)
10289+A195 5F                 ld    e,a
10290+A196 16 00              ld    d,0
10291+A198 19                 add   hl,de
10292+A199 55                 ld    d,l
10293+A19A E1                 pop   hl
10294+A19B 5D                 ld    e,l
10295+A19C E1                 pop   hl
10296+A19D CD DA A4           call  put_spr_put
10297+A1A0 3A 5F B5           ld    a,(Lim_Z)
10298+A1A3 21 60 B0           ld    hl,_Z
10299+A1A6 BE                 cp    (hl)
10300+A1A7 CA B1 A1           jp    z,L664
10301+A1AA 21 60 B0           ld    hl,_Z
10302+A1AD 34                 inc   (hl)
10303+A1AE C3 45 A1           jp    L663
10304+A1B1              L664
10305+A1B1 3A 5A B0           ld    a,(_X)
10306+A1B4 6F                 ld    l,a
10307+A1B5 26 00              ld    h,0
10308+A1B7 2B                 dec   hl
10309+A1B8 29                 add   hl,hl
10310+A1B9 54                 ld    d,h
10311+A1BA 5D                 ld    e,l
10312+A1BB 29                 add   hl,hl
10313+A1BC 19                 add   hl,de
10314+A1BD 11 BD B4           ld    de,_MAPBLOCK
10315+A1C0 19                 add   hl,de
10316+A1C1 22 F0 AF           ld    (addr_arraybyte_index111),hl
10317+A1C4 E5                 push  hl
10318+A1C5 3A 5B B0           ld    a,(_Y)
10319+A1C8 6F                 ld    l,a
10320+A1C9 26 00              ld    h,0
10321+A1CB 2B                 dec   hl
10322+A1CC D1                 pop   de
10323+A1CD 19                 add   hl,de
10324+A1CE E5                 push  hl
10325+A1CF 2A F0 AF           ld    hl,(addr_arraybyte_index111)
10326+A1D2 E5                 push  hl
10327+A1D3 3A 5B B0           ld    a,(_Y)
10328+A1D6 6F                 ld    l,a
10329+A1D7 26 00              ld    h,0
10330+A1D9 2B                 dec   hl
10331+A1DA 2B                 dec   hl
10332+A1DB D1                 pop   de
10333+A1DC 19                 add   hl,de
10334+A1DD 6E                 ld    l,(hl)
10335+A1DE 26 00              ld    h,0
10336+A1E0 D1                 pop   de
10337+A1E1 7D                 ld    a,l
10338+A1E2 12                 ld    (de),a
10339+A1E3 2A F0 AF           ld    hl,(addr_arraybyte_index111)
10340+A1E6 E5                 push  hl
10341+A1E7 3A 5B B0           ld    a,(_Y)
10342+A1EA 6F                 ld    l,a
10343+A1EB 26 00              ld    h,0
10344+A1ED 2B                 dec   hl
10345+A1EE 2B                 dec   hl
10346+A1EF D1                 pop   de
10347+A1F0 19                 add   hl,de
10348+A1F1 36 00              ld    (hl),0
10349+A1F3 C3 F6 A1           jp    L635
10350+A1F6              L662
10351+A1F6              L635
10352+A1F6              L631
10353+A1F6              L633
10354+A1F6 3A 5B B0           ld    a,(_Y)
10355+A1F9 21 54 B5           ld    hl,Lim_Y
10356+A1FC BE                 cp    (hl)
10357+A1FD CA 07 A2           jp    z,L630
10358+A200 21 5B B0           ld    hl,_Y
10359+A203 35                 dec   (hl)
10360+A204 C3 45 9C           jp    L629
10361+A207              L630
10362+A207 3A 5D B5           ld    a,(Lim_I)
10363+A20A 21 5C B0           ld    hl,_I
10364+A20D BE                 cp    (hl)
10365+A20E CA 18 A2           jp    z,L628
10366+A211 21 5C B0           ld    hl,_I
10367+A214 34                 inc   (hl)
10368+A215 C3 3B 9C           jp    L627
10369+A218              L628
10370+A218 3A 53 B5           ld    a,(Lim_X)
10371+A21B 21 5A B0           ld    hl,_X
10372+A21E BE                 cp    (hl)
10373+A21F CA 29 A2           jp    z,L626
10374+A222 21 5A B0           ld    hl,_X
10375+A225 34                 inc   (hl)
10376+A226 C3 31 9C           jp    L625
10377+A229              L626
10378+A229 3E 01              ld    a,1
10379+A22B 32 4F B0           ld    (sound_loop),a
10380+A22E 3E 03              ld    a,3
10381+A230 32 51 B0           ld    (sound_time),a
10382+A233 AF                 xor   a
10383+A234 32 50 B0           ld    (sound_freq),a
10384+A237 CD 62 A3           call  sound_effect
10385+A23A 3E 04              ld    a,4
10386+A23C 32 63 B0           ld    (_SEVENFLAG),a
10387+A23F CD EF 6F           call  _DELET
10388+A242 AF                 xor   a
10389+A243 21 62 B0           ld    hl,_S
10390+A246 BE                 cp    (hl)
10391+A247 C2 5F A2           jp    nz,L665
10392+A24A              L666
10393+A24A 3E 1C              ld    a,28
10394+A24C 21 5D B0           ld    hl,_OVER
10395+A24F BE                 cp    (hl)
10396+A250 CA 5C A2           jp    z,L668
10397+A253 DA 5C A2           jp    c,L668
10398+A256              L669
10399+A256 CD EA 64           call  _BLOCKGEN
10400+A259 C3 5F A2           jp    L670
10401+A25C              L668
10402+A25C CD E7 68           call  _BLOCKGEN2
10403+A25F              L670
10404+A25F              L665
10405+A25F              L667
10406+A25F AF                 xor   a
10407+A260 32 63 B0           ld    (_SEVENFLAG),a
10408+A263 CD EF 6F           call  _DELET
10409+A266 CD 5E 88           call  _GAMEOVER
10410+A269 AF                 xor   a
10411+A26A 21 5D B0           ld    hl,_OVER
10412+A26D BE                 cp    (hl)
10413+A26E C2 74 A2           jp    nz,L671
10414+A271              L672
10415+A271 CD EA 64           call  _BLOCKGEN
10416+A274              L671
10417+A274              L673
10418+A274 C9                 ret
10419+A275              MAIN
10420+A275 CD 56 B6           call  MUSLOAD
10421+A278 21 00 00           ld    hl,0
10422+A27B 7D                 ld    a,l
10423+A27C CD 9B 22           call  8859
10424+A27F 21 07 00           ld    hl,7
10425+A282 7D                 ld    a,l
10426+A283 32 F7 AF           ld    (attr_screen),a
10427+A286 21 00 40           ld    hl,16384
10428+A289 CD AD A6           call  clrscr
10429+A28C CD 44 5E           call  _TITLE
10430+A28F CD BC 61           call  _SCRTWO
10431+A292 AF                 xor   a
10432+A293 32 5D B0           ld    (_OVER),a
10433+A296 21 00 00           ld    hl,0
10434+A299 22 6B B0           ld    (_BESTSCORE),hl
10435+A29C CD 70 6E           call  _STARTSCR
10436+A29F              L674
10437+A29F CD 50 A4           call  readkey
10438+A2A2 3A 00 B0           ld    a,(code_key_1)
10439+A2A5 32 67 B0           ld    (_KEY1),a
10440+A2A8 3A 01 B0           ld    a,(code_key_2)
10441+A2AB 32 68 B0           ld    (_KEY2),a
10442+A2AE 3A 67 B0           ld    a,(_KEY1)
10443+A2B1 32 63 B5           ld    (_L677),a
10444+A2B4 FE 35              cp    53
10445+A2B6 CA BC A2           jp    z,L680
10446+A2B9 C3 C2 A2           jp    L681
10447+A2BC              L680
10448+A2BC CD 29 89           call  _LEFTMOVE
10449+A2BF C3 39 A3           jp    L678
10450+A2C2              L681
10451+A2C2 3A 63 B5           ld    a,(_L677)
10452+A2C5 FE 38              cp    56
10453+A2C7 CA CD A2           jp    z,L682
10454+A2CA C3 D3 A2           jp    L683
10455+A2CD              L682
10456+A2CD CD 98 8F           call  _RIGHTMOVE
10457+A2D0 C3 39 A3           jp    L678
10458+A2D3              L683
10459+A2D3 3A 63 B5           ld    a,(_L677)
10460+A2D6 FE 37              cp    55
10461+A2D8 CA DE A2           jp    z,L684
10462+A2DB C3 E4 A2           jp    L685
10463+A2DE              L684
10464+A2DE CD 0B 96           call  _UPMOVE
10465+A2E1 C3 39 A3           jp    L678
10466+A2E4              L685
10467+A2E4 3A 63 B5           ld    a,(_L677)
10468+A2E7 FE 36              cp    54
10469+A2E9 CA EF A2           jp    z,L686
10470+A2EC C3 F5 A2           jp    L687
10471+A2EF              L686
10472+A2EF CD 27 9C           call  _DOWNMOVE
10473+A2F2 C3 39 A3           jp    L678
10474+A2F5              L687
10475+A2F5 3A 63 B5           ld    a,(_L677)
10476+A2F8 FE 4F              cp    79
10477+A2FA CA 00 A3           jp    z,L688
10478+A2FD C3 06 A3           jp    L689
10479+A300              L688
10480+A300 CD 29 89           call  _LEFTMOVE
10481+A303 C3 39 A3           jp    L678
10482+A306              L689
10483+A306 3A 63 B5           ld    a,(_L677)
10484+A309 FE 50              cp    80
10485+A30B CA 11 A3           jp    z,L690
10486+A30E C3 17 A3           jp    L691
10487+A311              L690
10488+A311 CD 98 8F           call  _RIGHTMOVE
10489+A314 C3 39 A3           jp    L678
10490+A317              L691
10491+A317 3A 63 B5           ld    a,(_L677)
10492+A31A FE 51              cp    81
10493+A31C CA 22 A3           jp    z,L692
10494+A31F C3 28 A3           jp    L693
10495+A322              L692
10496+A322 CD 0B 96           call  _UPMOVE
10497+A325 C3 39 A3           jp    L678
10498+A328              L693
10499+A328 3A 63 B5           ld    a,(_L677)
10500+A32B FE 41              cp    65
10501+A32D CA 33 A3           jp    z,L694
10502+A330 C3 39 A3           jp    L695
10503+A333              L694
10504+A333 CD 27 9C           call  _DOWNMOVE
10505+A336 C3 39 A3           jp    L678
10506+A339              L695
10507+A339              L678
10508+A339 3A 64 B0           ld    a,(_LEVELOLD)
10509+A33C 21 65 B0           ld    hl,_LEVEL
10510+A33F BE                 cp    (hl)
10511+A340 D2 4C A3           jp    nc,L696
10512+A343              L697
10513+A343 CD 3A 6D           call  _PRINTLEVEL
10514+A346 3A 65 B0           ld    a,(_LEVEL)
10515+A349 32 64 B0           ld    (_LEVELOLD),a
10516+A34C              L696
10517+A34C              L698
10518+A34C 21 01 00           ld    hl,1
10519+A34F 11 02 00           ld    de,2
10520+A352 EB                 ex    de,hl
10521+A353 A7                 and   a
10522+A354 ED 52              sbc   hl,de
10523+A356 D2 5C A3           jp    nc,L676
10524+A359 C3 5F A3           jp    L675
10525+A35C              L676
10526+A35C C3 9F A2           jp    L674
10527+A35F              L675
10528+A35F C3 5F A3           jp    $
10529+A362
10530+A362
10531+A362              ; ***** Library Code *****
10532+A362
10533+A362              ; 
10534+A362
10535+A362              virt_screen_high	equ	160				;    .
10536+A362              addr_virt_screen	equ	57344				;  .
10537+A362              table_mirror_high	equ	251				;      
10538+A362
10539+A362
10540+A362
10541+A362              ;  
10542+A362              ; : (sound_loop),(sound_freq),(sound_time)
10543+A362              ; : 
10544+A362
10545+A362              sound_effect
10546+A362
10547+A362 3A 4F B0     	ld	a,(sound_loop)
10548+A365 47           	ld	b,a
10549+A366 ED 5B 50 B0  	ld	de,(sound_freq)
10550+A36A
10551+A36A 3A 48 5C            LD    A,(23624)
10552+A36D E6 38               AND   #38
10553+A36F 1F                  RRA
10554+A370 1F                  RRA
10555+A371 1F                  RRA
10556+A372 6F                  LD    L,A
10557+A373 F3                  DI
10558+A374 C5           EXPL1  PUSH  BC
10559+A375 D5                  PUSH  DE
10560+A376 D5           EXPL2  PUSH  DE
10561+A377 43           EXPL3  LD    B,E
10562+A378 10 FE               DJNZ  $           ;
10563+A37A 0A                  LD    A,(BC)      ;  BC    256  
10564+A37B E6 10               AND   16
10565+A37D B5                  OR    L
10566+A37E D3 FE               OUT   (254),A
10567+A380 0C                  INC   C
10568+A381 15                  DEC   D
10569+A382 20 F3               JR    NZ,EXPL3
10570+A384 D1                  POP   DE
10571+A385              ;    (  ;
10572+A385              ;     DEC E,    )
10573+A385 1C                  INC   E
10574+A386 15                  DEC   D
10575+A387 20 ED               JR    NZ,EXPL2
10576+A389 D1                  POP   DE
10577+A38A C1                  POP   BC
10578+A38B 10 E7               DJNZ  EXPL1       ;  
10579+A38D FB                  EI
10580+A38E C9                  RET
10581+A38F
10582+A38F
10583+A38F
10584+A38F              ;       1x1 
10585+A38F              ; :  
10586+A38F              ; : 
10587+A38F
10588+A38F 3A 2D B0     map_put_1x1		ld	a,(map_ymax_array)
10589+A392 4F           			ld	c,a
10590+A393 06 00        			ld	b,0
10591+A395 3A 34 B0     			ld	a,(map_x)
10592+A398 3D           			dec	a
10593+A399 5F           			ld	e,a
10594+A39A 16 00        			ld	d,0
10595+A39C CD 63 AA     			call	mul
10596+A39F
10597+A39F 3A 35 B0     			ld	a,(map_y)
10598+A3A2 3D           			dec	a
10599+A3A3 5F           			ld	e,a
10600+A3A4 16 00        			ld	d,0
10601+A3A6 19           			add	hl,de
10602+A3A7
10603+A3A7 ED 5B 2A B0  			ld	de,(map_addr_array)
10604+A3AB 19           			add	hl,de
10605+A3AC
10606+A3AC 22 3C B0     			ld	(map_addr_curr),hl
10607+A3AF
10608+A3AF 2A 30 B0     			ld	hl,(map_xscr)
10609+A3B2 22 3E B0     			ld	(map_xscr_curr),hl
10610+A3B5
10611+A3B5 3A 33 B0     			ld	a,(map_height_scr)
10612+A3B8 47           			ld	b,a
10613+A3B9
10614+A3B9 C5           map_put_1x1_01		push	bc
10615+A3BA
10616+A3BA 3A 32 B0     			ld	a,(map_width_scr)
10617+A3BD 47           			ld	b,a
10618+A3BE
10619+A3BE C5           map_put_1x1_02		push	bc
10620+A3BF
10621+A3BF 2A 3C B0     			ld	hl,(map_addr_curr)
10622+A3C2
10623+A3C2 7E           			ld	a,(hl)
10624+A3C3 A7           			and	a
10625+A3C4 2A 2E B0     			ld	hl,(map_addr_sprites)
10626+A3C7 CA D4 A3     			jp	z,map_put_1x1_04
10627+A3CA 47           			ld	b,a
10628+A3CB
10629+A3CB 11 08 00     			ld	de,8
10630+A3CE 11 09 00     			ld	de,9
10631+A3D1
10632+A3D1
10633+A3D1 19           map_put_1x1_03		add	hl,de
10634+A3D2 10 FD        			djnz	map_put_1x1_03
10635+A3D4
10636+A3D4 CD 07 A4     map_put_1x1_04		call	map_put_1x1_10
10637+A3D7
10638+A3D7 2A 3C B0     			ld	hl,(map_addr_curr)
10639+A3DA 23           			inc	hl
10640+A3DB 22 3C B0     			ld	(map_addr_curr),hl
10641+A3DE
10642+A3DE 21 3E B0     			ld	hl,map_xscr_curr
10643+A3E1 34           			inc	(hl)
10644+A3E2              			;inc	(hl)
10645+A3E2
10646+A3E2 C1           			pop	bc
10647+A3E3 10 D9        			djnz	map_put_1x1_02
10648+A3E5
10649+A3E5 2A 3C B0     			ld	hl,(map_addr_curr)
10650+A3E8 3A 2D B0     			ld	a,(map_ymax_array)
10651+A3EB 5F           			ld	e,a
10652+A3EC 16 00        			ld	d,0
10653+A3EE 19           			add	hl,de
10654+A3EF
10655+A3EF 3A 32 B0     			ld	a,(map_width_scr)
10656+A3F2 5F           			ld	e,a
10657+A3F3 A7           			and	a
10658+A3F4 ED 52        			sbc	hl,de
10659+A3F6
10660+A3F6 22 3C B0     			ld	(map_addr_curr),hl
10661+A3F9
10662+A3F9 21 3F B0     			ld	hl,map_yscr_curr
10663+A3FC 34           			inc	(hl)
10664+A3FD              			;inc	(hl)
10665+A3FD
10666+A3FD 3A 30 B0     			ld	a,(map_xscr)
10667+A400 32 3E B0     			ld	(map_xscr_curr),a
10668+A403
10669+A403 C1           			pop	bc
10670+A404 10 B3        			djnz	map_put_1x1_01
10671+A406
10672+A406 C9           			ret
10673+A407
10674+A407
10675+A407 EB           map_put_1x1_10		ex	de,hl
10676+A408
10677+A408
10678+A408 ED 4B 3E B0  			ld	bc,(map_xscr_curr)
10679+A40C
10680+A40C 78           			LD	A,B
10681+A40D 0F           			RRCA
10682+A40E 0F           			RRCA
10683+A40F 0F           			RRCA
10684+A410 6F           			LD	L,A
10685+A411 E6 1F        			AND	31
10686+A413 F6 58        			OR	88
10687+A415 67           			LD	H,A
10688+A416 7D           			LD	A,L
10689+A417 E6 FC        			AND	252
10690+A419 B1           			OR	C
10691+A41A 6F           			LD	L,A
10692+A41B
10693+A41B
10694+A41B 1A           			ld	a,(de)
10695+A41C 77           			ld	(hl),a
10696+A41D 13           			inc	de
10697+A41E
10698+A41E
10699+A41E ED 4B 3E B0  			ld	bc,(map_xscr_curr)
10700+A422
10701+A422 78           			LD      A,B
10702+A423 67           			LD      H,A
10703+A424 0F           			RRCA
10704+A425 0F           			RRCA
10705+A426 0F           			RRCA
10706+A427 E6 E0        			AND	A,224
10707+A429 81           			ADD	A,C
10708+A42A 6F           			LD	L,A
10709+A42B 7C           			LD	A,H
10710+A42C E6 18        			AND	24
10711+A42E F6 40        			OR	64
10712+A430 67           			LD	H,A
10713+A431
10714+A431
10715+A431              			dup	7
10716+A431 1A          >			ld	a,(de)
10717+A432 77          >			ld	(hl),a
10718+A433 13          >			inc	de
10719+A434 24          >			inc	h
10716+A435 1A          >			ld	a,(de)
10717+A436 77          >			ld	(hl),a
10718+A437 13          >			inc	de
10719+A438 24          >			inc	h
10716+A439 1A          >			ld	a,(de)
10717+A43A 77          >			ld	(hl),a
10718+A43B 13          >			inc	de
10719+A43C 24          >			inc	h
10716+A43D 1A          >			ld	a,(de)
10717+A43E 77          >			ld	(hl),a
10718+A43F 13          >			inc	de
10719+A440 24          >			inc	h
10716+A441 1A          >			ld	a,(de)
10717+A442 77          >			ld	(hl),a
10718+A443 13          >			inc	de
10719+A444 24          >			inc	h
10716+A445 1A          >			ld	a,(de)
10717+A446 77          >			ld	(hl),a
10718+A447 13          >			inc	de
10719+A448 24          >			inc	h
10716+A449 1A          >			ld	a,(de)
10717+A44A 77          >			ld	(hl),a
10718+A44B 13          >			inc	de
10719+A44C 24          >			inc	h
10720+A44D              			edup
10721+A44D
10722+A44D 1A           			ld	a,(de)
10723+A44E 77           			ld	(hl),a
10724+A44F
10725+A44F C9           			ret
10726+A450
10727+A450
10728+A450
10729+A450              ;      
10730+A450              ; : 
10731+A450              ; : (code_key_1),(code_key_2) =    (  ,  0)
10732+A450
10733+A450 11 00 00     readkey		ld	de,0
10734+A453 ED 53 00 B0  		ld	(code_key_1),de
10735+A457
10736+A457
10737+A457 01 FE 7F     		ld	bc,32766
10738+A45A CD 88 A4     		call	readkey_10
10739+A45D 01 FE BF     		ld	bc,49150
10740+A460 CD 88 A4     		call	readkey_10
10741+A463 01 FE DF     		ld	bc,57342
10742+A466 CD 88 A4     		call	readkey_10
10743+A469 01 FE EF     		ld	bc,61438
10744+A46C CD 88 A4     		call	readkey_10
10745+A46F 01 FE F7     		ld	bc,63486
10746+A472 CD 88 A4     		call	readkey_10
10747+A475 01 FE FB     		ld	bc,64510
10748+A478 CD 88 A4     		call	readkey_10
10749+A47B 01 FE FD     		ld	bc,65022
10750+A47E CD 88 A4     		call	readkey_10
10751+A481 01 FE FE     		ld	bc,65278
10752+A484 CD 88 A4     		call	readkey_10
10753+A487 C9           		ret
10754+A488
10755+A488 ED 78        readkey_10	in	a,(c)
10756+A48A
10757+A48A 0F           		rrca
10758+A48B D4 A4 A4     		call	nc,readkey_20
10759+A48E 1C           		inc	e
10760+A48F
10761+A48F 0F           		rrca
10762+A490 D4 A4 A4     		call	nc,readkey_20
10763+A493 1C           		inc	e
10764+A494
10765+A494 0F           		rrca
10766+A495 D4 A4 A4     		call	nc,readkey_20
10767+A498 1C           		inc	e
10768+A499
10769+A499 0F           		rrca
10770+A49A D4 A4 A4     		call	nc,readkey_20
10771+A49D 1C           		inc	e
10772+A49E
10773+A49E 0F           		rrca
10774+A49F D4 A4 A4     		call	nc,readkey_20
10775+A4A2 1C           		inc	e
10776+A4A3
10777+A4A3 C9           		ret
10778+A4A4
10779+A4A4 F5           readkey_20	push	af
10780+A4A5
10781+A4A5 01 00 B0     		ld	bc,code_key_1
10782+A4A8 0A           		ld	a,(bc)
10783+A4A9 A7           		and	a
10784+A4AA CA AE A4     		jp	z,readkey_21
10785+A4AD 03           		inc	bc
10786+A4AE
10787+A4AE 21 02 B0     readkey_21	ld	hl,table_code_key
10788+A4B1 19           		add	hl,de
10789+A4B2 7E           		ld	a,(hl)
10790+A4B3 02           		ld	(bc),a
10791+A4B4
10792+A4B4 F1           		pop	af
10793+A4B5
10794+A4B5 C9           		ret
10795+A4B6
10796+A4B6
10797+A4B6
10798+A4B6
10799+A4B6              ;   
10800+A4B6              ; : hl= 
10801+A4B6              ; : hl= 
10802+A4B6
10803+A4B6 23           random			inc	hl
10804+A4B7 E5           			push	hl
10805+A4B8
10806+A4B8 16 00        			ld	d,0
10807+A4BA ED 4B E8 AF  			ld	bc,(rnd)
10808+A4BE 61           			ld	h,c
10809+A4BF 2E FD        			ld	l,#fd
10810+A4C1 78           			ld	a,b
10811+A4C2 B7           			or	a
10812+A4C3 ED 42        			sbc	hl,bc
10813+A4C5 9A           			sbc	a,d
10814+A4C6 ED 42        			sbc	hl,bc
10815+A4C8 9A           			sbc	a,d
10816+A4C9 5F           			ld	e,a
10817+A4CA ED 52        			sbc	hl,de
10818+A4CC D2 D0 A4     			jp	nc,random_01
10819+A4CF 23           			inc	hl
10820+A4D0 22 E8 AF     random_01		ld	(rnd),hl
10821+A4D3
10822+A4D3 EB           			ex	de,hl
10823+A4D4 C1           			pop	bc
10824+A4D5 CD 81 AA     			call	mul_01
10825+A4D8
10826+A4D8 EB           			ex	de,hl
10827+A4D9
10828+A4D9 C9           			ret
10829+A4DA
10830+A4DA
10831+A4DA
10832+A4DA
10833+A4DA              ;          
10834+A4DA              ; : HL= , DE=   
10835+A4DA              ; : 
10836+A4DA
10837+A4DA 46           put_spr_put	LD	B,(HL)
10838+A4DB
10839+A4DB C5           put_spr_put_01	PUSH	BC				; B =    
10840+A4DC
10841+A4DC 23           		INC	HL
10842+A4DD 7E           		LD	A,(HL)
10843+A4DE 82           		ADD	A,D
10844+A4DF
10845+A4DF
10846+A4DF 47           		LD	B,A
10847+A4E0
10848+A4E0 23           		INC	HL
10849+A4E1 7E           		LD	A,(HL)
10850+A4E2 83           		ADD	A,E
10851+A4E3
10852+A4E3
10853+A4E3 4F           		LD	C,A
10854+A4E4
10855+A4E4 23           		INC	HL
10856+A4E5 D5           		PUSH	DE				; DE =    
10857+A4E6              							; HL =    , DE = 
10858+A4E6
10859+A4E6
10860+A4E6 C5           		PUSH	BC				; BC =     
10861+A4E7
10862+A4E7 78                           LD	A,B				;      DE
10863+A4E8 0F                           RRCA
10864+A4E9 0F                           RRCA
10865+A4EA 0F                           RRCA
10866+A4EB 5F                           LD	E,A
10867+A4EC E6 1F                        AND	31
10868+A4EE F6 58                        OR	88
10869+A4F0 57                           LD	D,A
10870+A4F1 7B                           LD	A,E
10871+A4F2 E6 FC                        AND	252
10872+A4F4 B1                           OR	C
10873+A4F5 5F                           LD	E,A
10874+A4F6
10875+A4F6
10876+A4F6 C1                           POP     BC                              ; BC =     
10877+A4F7
10878+A4F7 3A F8 AF     		ld	a,(attr_sprite)
10879+A4FA 12           		ld	(de),a				;     
10880+A4FB
10881+A4FB
10882+A4FB 78                           LD      A,B				;       DE
10883+A4FC 57                           LD      D,A
10884+A4FD 0F                           RRCA
10885+A4FE 0F                           RRCA
10886+A4FF 0F                           RRCA
10887+A500 E6 E0                        AND	A,224
10888+A502 81           		ADD	A,C
10889+A503 5F                           LD	E,A
10890+A504 7A                           LD	A,D
10891+A505 E6 18                        AND	24
10892+A507 F6 40                        OR	64
10893+A509 57                           LD	D,A				; DE =     , HL =    
10894+A50A
10895+A50A
10896+A50A              		;   (8 )
10897+A50A
10898+A50A              		dup	7
10899+A50A 7E          >		LD	A,(HL)
10900+A50B 12          >		LD	(DE),A				;   
10901+A50C 23          >		INC     HL
10902+A50D 14          >                INC     D
10899+A50E 7E          >		LD	A,(HL)
10900+A50F 12          >		LD	(DE),A				;   
10901+A510 23          >		INC     HL
10902+A511 14          >                INC     D
10899+A512 7E          >		LD	A,(HL)
10900+A513 12          >		LD	(DE),A				;   
10901+A514 23          >		INC     HL
10902+A515 14          >                INC     D
10899+A516 7E          >		LD	A,(HL)
10900+A517 12          >		LD	(DE),A				;   
10901+A518 23          >		INC     HL
10902+A519 14          >                INC     D
10899+A51A 7E          >		LD	A,(HL)
10900+A51B 12          >		LD	(DE),A				;   
10901+A51C 23          >		INC     HL
10902+A51D 14          >                INC     D
10899+A51E 7E          >		LD	A,(HL)
10900+A51F 12          >		LD	(DE),A				;   
10901+A520 23          >		INC     HL
10902+A521 14          >                INC     D
10899+A522 7E          >		LD	A,(HL)
10900+A523 12          >		LD	(DE),A				;   
10901+A524 23          >		INC     HL
10902+A525 14          >                INC     D
10903+A526              		edup
10904+A526
10905+A526 7E           		LD	A,(HL)
10906+A527 12           		LD	(DE),A				;   
10907+A528
10908+A528 D1           		POP	DE				; HL =    , DE =    
10909+A529 C1           put_spr_put_02	POP	BC				; B =      
10910+A52A 10 AF        		DJNZ	put_spr_put_01
10911+A52C C9           		RET
10912+A52D
10913+A52D
10914+A52D
10915+A52D
10916+A52D
10917+A52D
10918+A52D
10919+A52D              ;    
10920+A52D              ; : 
10921+A52D              ; : a =   
10922+A52D
10923+A52D AF           waiting_key			xor	a
10924+A52E 32 08 5C     				ld	(23560),a
10925+A531
10926+A531 76           waiting_key_01			halt
10927+A532 3A 08 5C     				ld	a,(23560)
10928+A535 A7           				and	a
10929+A536 CA 31 A5     				jp	z,waiting_key_01
10930+A539
10931+A539 C9           				ret
10932+A53A
10933+A53A
10934+A53A
10935+A53A              ;      
10936+A53A              ; : hl=
10937+A53A              ; : (string_number)=
10938+A53A
10939+A53A 11 E1 AF     convert_16bit_to_string		ld	de,string_number+1
10940+A53D
10941+A53D 01 10 27     				ld	bc,10000
10942+A540 CD 7F A5     				call	convert_16bit_to_string_01
10943+A543
10944+A543 01 E8 03     				ld	bc,1000
10945+A546 CD 7F A5     				call	convert_16bit_to_string_01
10946+A549
10947+A549 01 64 00     				ld	bc,100
10948+A54C CD 7F A5     				call	convert_16bit_to_string_01
10949+A54F
10950+A54F 01 0A 00     				ld	bc,10
10951+A552 CD 7F A5     				call	convert_16bit_to_string_01
10952+A555
10953+A555 01 01 00     				ld	bc,1
10954+A558 CD 7F A5     				call	convert_16bit_to_string_01
10955+A55B
10956+A55B 06 04        				ld	b,4
10957+A55D
10958+A55D C5           convert_16bit_to_string_03	push	bc
10959+A55E 21 E2 AF     				ld	hl,string_number+2
10960+A561 11 E1 AF     				ld	de,string_number+1
10961+A564 1A           				ld	a,(de)
10962+A565 FE 30        				cp	s__0
10963+A567 C2 78 A5     				jp	nz,convert_16bit_to_string_04
10964+A56A 48           				ld	c,b
10965+A56B 06 00        				ld	b,0
10966+A56D ED B0        				ldir
10967+A56F C1           				pop	bc
10968+A570 10 EB        				djnz	convert_16bit_to_string_03
10969+A572
10970+A572 3E 01        				ld	a,1
10971+A574 32 E0 AF     				ld	(string_number),a
10972+A577
10973+A577 C9           				ret
10974+A578
10975+A578 C1           convert_16bit_to_string_04	pop	bc
10976+A579
10977+A579 78           				ld	a,b
10978+A57A 3C           				inc	a
10979+A57B 32 E0 AF     				ld	(string_number),a
10980+A57E
10981+A57E C9           				ret
10982+A57F
10983+A57F 3E 30        convert_16bit_to_string_01	ld	a,s__0
10984+A581 A7           				and	a
10985+A582 ED 42        convert_16bit_to_string_02	sbc	hl,bc
10986+A584 3C           				inc	a
10987+A585 D2 82 A5     				jp	nc,convert_16bit_to_string_02
10988+A588 09           				add	hl,bc
10989+A589 3D           				dec	a
10990+A58A 12           				ld	(de),a
10991+A58B 13           				inc	de
10992+A58C C9           				ret
10993+A58D
10994+A58D
10995+A58D
10996+A58D              ;     48  
10997+A58D              ; : hl=       , b= , c= 
10998+A58D              ; : 
10999+A58D
11000+A58D 7E           print64		ld	a,(hl)
11001+A58E A7           		and	a
11002+A58F C8           		ret	z
11003+A590
11004+A590
11005+A590 E5           		push	hl
11006+A591 CD 4D A6     		call	calc_addr_attr
11007+A594 3A F7 AF     		ld	a,(attr_screen)
11008+A597 77           		ld	(hl),a
11009+A598 E1           		pop	hl
11010+A599
11011+A599
11012+A599 CD 39 A6     		call	calc_addr_scr
11013+A59C
11014+A59C 3A F6 AF     		ld	a,(half_tile_screen)
11015+A59F CB 47        		bit	0,a
11016+A5A1 7E           		ld	a,(hl)
11017+A5A2 C2 DF A5     		jp	nz,print64_4
11018+A5A5
11019+A5A5 F5           print64_3       push    af
11020+A5A6
11021+A5A6
11022+A5A6 E5           		push	hl
11023+A5A7 CD 4D A6     		call	calc_addr_attr
11024+A5AA 3A F7 AF     		ld	a,(attr_screen)
11025+A5AD 77           		ld	(hl),a
11026+A5AE E1           		pop	hl
11027+A5AF
11028+A5AF
11029+A5AF 23                           inc     hl
11030+A5B0 E5                           push    hl
11031+A5B1
11032+A5B1 7E                           ld      a,(hl)
11033+A5B2 D6 20        		sub	32
11034+A5B4 6F           		ld	l,a
11035+A5B5 26 00        		ld	h,0
11036+A5B7 29           		add	hl,hl
11037+A5B8 4D           		ld	c,l
11038+A5B9 44           		ld	b,h
11039+A5BA 29           		add	hl,hl
11040+A5BB 09           		add	hl,bc
11041+A5BC 01 AE AB                     ld      bc,font64
11042+A5BF 09                           add     hl,bc
11043+A5C0
11044+A5C0 D5                           push    de
11045+A5C1
11046+A5C1 06 06                        ld      b,6
11047+A5C3 AF           		xor	a
11048+A5C4 12           		ld	(de),a
11049+A5C5 14           print64_1       inc     d
11050+A5C6 7E                           ld      a,(hl)
11051+A5C7 E6 F0        		and	#f0
11052+A5C9 4F                           ld      c,a
11053+A5CA 1A                           ld      a,(de)
11054+A5CB E6 0F        		and	#0f
11055+A5CD B1                           or      c
11056+A5CE 12                           ld      (de),a
11057+A5CF 23                           inc     hl
11058+A5D0 10 F3                        djnz    print64_1
11059+A5D2
11060+A5D2 14           		inc	d
11061+A5D3 AF           		xor	a
11062+A5D4 12           		ld	(de),a
11063+A5D5
11064+A5D5 3E 01        		ld	a,1
11065+A5D7 32 F6 AF     		ld	(half_tile_screen),a
11066+A5DA
11067+A5DA D1                           pop     de
11068+A5DB E1                           pop     hl
11069+A5DC F1                           pop     af
11070+A5DD
11071+A5DD 3D                           dec     a
11072+A5DE C8                           ret     z
11073+A5DF
11074+A5DF F5           print64_4	push    af
11075+A5E0
11076+A5E0 23                           inc     hl
11077+A5E1 E5                           push    hl
11078+A5E2
11079+A5E2 7E                           ld      a,(hl)
11080+A5E3 D6 20        		sub	32
11081+A5E5 6F           		ld	l,a
11082+A5E6 26 00        		ld	h,0
11083+A5E8 29           		add	hl,hl
11084+A5E9 4D           		ld	c,l
11085+A5EA 44           		ld	b,h
11086+A5EB 29           		add	hl,hl
11087+A5EC 09           		add	hl,bc
11088+A5ED 01 AE AB                     ld      bc,font64
11089+A5F0 09                           add     hl,bc
11090+A5F1
11091+A5F1 D5                           push    de
11092+A5F2
11093+A5F2 06 06                        ld      b,6
11094+A5F4 AF           		xor	a
11095+A5F5 12           		ld	(de),a
11096+A5F6 14           print64_2       inc     d
11097+A5F7 7E                           ld      a,(hl)
11098+A5F8 E6 0F                        and     #0f
11099+A5FA 4F                           ld      c,a
11100+A5FB 1A                           ld      a,(de)
11101+A5FC E6 F0        		and	#f0
11102+A5FE B1                           or      c
11103+A5FF 12                           ld      (de),a
11104+A600 23                           inc     hl
11105+A601 10 F3                        djnz    print64_2
11106+A603
11107+A603 14           		inc	d
11108+A604 AF           		xor	a
11109+A605 12           		ld	(de),a
11110+A606
11111+A606 32 F6 AF     		ld	(half_tile_screen),a
11112+A609
11113+A609 D1                           pop     de
11114+A60A
11115+A60A CD 14 A6     		call	move_cr64
11116+A60D
11117+A60D E1                           pop     hl
11118+A60E F1                           pop     af
11119+A60F 3D                           dec     a
11120+A610
11121+A610 C2 A5 A5                     jp      nz,print64_3
11122+A613
11123+A613 C9                           ret
11124+A614
11125+A614
11126+A614
11127+A614              ;       48
11128+A614              ; : de=   
11129+A614              ; : de=    , b= , c= 
11130+A614
11131+A614 13           move_cr64	inc	de
11132+A615
11133+A615 21 F4 AF     		ld	hl,col_screen
11134+A618 34           		inc	(hl)
11135+A619 7E           		ld	a,(hl)
11136+A61A
11137+A61A FE 20        		cp	32
11138+A61C D8           		ret	c
11139+A61D
11140+A61D AF           		xor	a
11141+A61E 32 F6 AF     		ld	(half_tile_screen),a
11142+A621 77           		ld	(hl),a
11143+A622 4F           		ld	c,a
11144+A623
11145+A623 23           		inc	hl
11146+A624 34           		inc	(hl)
11147+A625 7E           		ld	a,(hl)
11148+A626 47           		ld	b,a
11149+A627
11150+A627 FE 18        		cp	24
11151+A629 DA 35 A6     		jp	c,move_cr64_01
11152+A62C
11153+A62C 3E 17        		ld	a,23
11154+A62E 77           		ld	(hl),a
11155+A62F 47           		ld	b,a
11156+A630
11157+A630 C5           		push	bc
11158+A631 CD 61 A6     		call	scroll_up8
11159+A634 C1           		pop	bc
11160+A635
11161+A635 CD 39 A6     move_cr64_01	call	calc_addr_scr
11162+A638
11163+A638 C9           		ret
11164+A639
11165+A639
11166+A639
11167+A639
11168+A639              ;     
11169+A639              ; : 
11170+A639              ; : de=   
11171+A639
11172+A639 ED 4B F4 AF  calc_addr_scr		ld	bc,(col_screen)
11173+A63D 78           			ld      a,b
11174+A63E 57                           	ld      d,a
11175+A63F 0F                           	rrca
11176+A640 0F                           	rrca
11177+A641 0F                           	rrca
11178+A642 E6 E0                        	and     a,224
11179+A644 81                           	add     a,c
11180+A645 5F                           	ld      e,a
11181+A646 7A                           	ld      a,d
11182+A647 E6 18                        	and     24
11183+A649 F6 40                        	or      64
11184+A64B 57                           	ld      d,a
11185+A64C
11186+A64C
11187+A64C C9           			ret
11188+A64D
11189+A64D
11190+A64D
11191+A64D              ;      
11192+A64D              ; : 
11193+A64D              ; : hl=    
11194+A64D
11195+A64D ED 4B F4 AF  calc_addr_attr		ld	bc,(col_screen)
11196+A651 78           			ld	a,b
11197+A652 0F           			rrca
11198+A653 0F           			rrca
11199+A654 0F           			rrca
11200+A655 6F           			ld	l,a
11201+A656 E6 1F        			and	31
11202+A658 F6 58        			or	88
11203+A65A 67           			ld	h,a
11204+A65B 7D           			ld	a,l
11205+A65C E6 FC        			and	252
11206+A65E B1           			or	c
11207+A65F 6F           			ld	l,a
11208+A660
11209+A660
11210+A660 C9           			ret
11211+A661
11212+A661
11213+A661
11214+A661
11215+A661              ;     8  (1 )  
11216+A661              ; : 
11217+A661              ; : 
11218+A661
11219+A661 21 60 AE     scroll_up8		ld	hl,table_addr_scr
11220+A664 06 B8        			ld	b,184
11221+A666
11222+A666 C5           scroll_up8_01		push	bc
11223+A667
11224+A667 5E           			ld	e,(hl)
11225+A668 23           			inc	hl
11226+A669 56           			ld	d,(hl)
11227+A66A 23           			inc	hl
11228+A66B
11229+A66B E5           			push	hl
11230+A66C
11231+A66C 01 0E 00     			ld	bc,14
11232+A66F 09           			add	hl,bc
11233+A670 4E           			ld	c,(hl)
11234+A671 23           			inc	hl
11235+A672 46           			ld	b,(hl)
11236+A673
11237+A673 60           			ld	h,b
11238+A674 69           			ld	l,c
11239+A675
11240+A675 01 20 00     			ld	bc,32
11241+A678 ED B0        			ldir
11242+A67A
11243+A67A E1           			pop	hl
11244+A67B C1           			pop	bc
11245+A67C 10 E8        			djnz	scroll_up8_01
11246+A67E
11247+A67E 06 08        			ld	b,8
11248+A680
11249+A680 C5           scroll_up8_02		push	bc
11250+A681
11251+A681 5E           			ld	e,(hl)
11252+A682 23           			inc	hl
11253+A683 56           			ld	d,(hl)
11254+A684 23           			inc	hl
11255+A685
11256+A685 E5           			push	hl
11257+A686
11258+A686 62           			ld	h,d
11259+A687 6B           			ld	l,e
11260+A688 13           			inc	de
11261+A689 36 00        			ld	(hl),0
11262+A68B 01 1F 00     			ld	bc,31
11263+A68E ED B0        			ldir
11264+A690
11265+A690 E1           			pop	hl
11266+A691 C1           			pop	bc
11267+A692 10 EC        			djnz	scroll_up8_02
11268+A694
11269+A694 11 00 58     			ld	de,#5800
11270+A697 21 20 58     			ld	hl,#5820
11271+A69A 01 E0 02     			ld	bc,736
11272+A69D ED B0        			ldir
11273+A69F
11274+A69F 1A           			ld	a,(de)
11275+A6A0
11276+A6A0 21 E0 5A     			ld	hl,#5ae0
11277+A6A3 11 E1 5A     			ld	de,#5ae1
11278+A6A6 77           			ld	(hl),a
11279+A6A7 01 1F 00     			ld	bc,31
11280+A6AA ED B0        			ldir
11281+A6AC
11282+A6AC C9           			ret
11283+A6AD
11284+A6AD
11285+A6AD
11286+A6AD              ;     
11287+A6AD              ; : hl =  
11288+A6AD              ; : 
11289+A6AD
11290+A6AD 54           clrscr			ld	d,h
11291+A6AE 5D           			ld	e,l
11292+A6AF 13           			inc	de
11293+A6B0 36 00        			ld	(hl),0
11294+A6B2
11295+A6B2 3E 30        			ld	a,48
11296+A6B4              clrscr_01		dup	128
11297+A6B4 ED A0       >			ldi
11297+A6B6 ED A0       >			ldi
11297+A6B8 ED A0       >			ldi
11297+A6BA ED A0       >			ldi
11297+A6BC ED A0       >			ldi
11297+A6BE ED A0       >			ldi
11297+A6C0 ED A0       >			ldi
11297+A6C2 ED A0       >			ldi
11297+A6C4 ED A0       >			ldi
11297+A6C6 ED A0       >			ldi
11297+A6C8 ED A0       >			ldi
11297+A6CA ED A0       >			ldi
11297+A6CC ED A0       >			ldi
11297+A6CE ED A0       >			ldi
11297+A6D0 ED A0       >			ldi
11297+A6D2 ED A0       >			ldi
11297+A6D4 ED A0       >			ldi
11297+A6D6 ED A0       >			ldi
11297+A6D8 ED A0       >			ldi
11297+A6DA ED A0       >			ldi
11297+A6DC ED A0       >			ldi
11297+A6DE ED A0       >			ldi
11297+A6E0 ED A0       >			ldi
11297+A6E2 ED A0       >			ldi
11297+A6E4 ED A0       >			ldi
11297+A6E6 ED A0       >			ldi
11297+A6E8 ED A0       >			ldi
11297+A6EA ED A0       >			ldi
11297+A6EC ED A0       >			ldi
11297+A6EE ED A0       >			ldi
11297+A6F0 ED A0       >			ldi
11297+A6F2 ED A0       >			ldi
11297+A6F4 ED A0       >			ldi
11297+A6F6 ED A0       >			ldi
11297+A6F8 ED A0       >			ldi
11297+A6FA ED A0       >			ldi
11297+A6FC ED A0       >			ldi
11297+A6FE ED A0       >			ldi
11297+A700 ED A0       >			ldi
11297+A702 ED A0       >			ldi
11297+A704 ED A0       >			ldi
11297+A706 ED A0       >			ldi
11297+A708 ED A0       >			ldi
11297+A70A ED A0       >			ldi
11297+A70C ED A0       >			ldi
11297+A70E ED A0       >			ldi
11297+A710 ED A0       >			ldi
11297+A712 ED A0       >			ldi
11297+A714 ED A0       >			ldi
11297+A716 ED A0       >			ldi
11297+A718 ED A0       >			ldi
11297+A71A ED A0       >			ldi
11297+A71C ED A0       >			ldi
11297+A71E ED A0       >			ldi
11297+A720 ED A0       >			ldi
11297+A722 ED A0       >			ldi
11297+A724 ED A0       >			ldi
11297+A726 ED A0       >			ldi
11297+A728 ED A0       >			ldi
11297+A72A ED A0       >			ldi
11297+A72C ED A0       >			ldi
11297+A72E ED A0       >			ldi
11297+A730 ED A0       >			ldi
11297+A732 ED A0       >			ldi
11297+A734 ED A0       >			ldi
11297+A736 ED A0       >			ldi
11297+A738 ED A0       >			ldi
11297+A73A ED A0       >			ldi
11297+A73C ED A0       >			ldi
11297+A73E ED A0       >			ldi
11297+A740 ED A0       >			ldi
11297+A742 ED A0       >			ldi
11297+A744 ED A0       >			ldi
11297+A746 ED A0       >			ldi
11297+A748 ED A0       >			ldi
11297+A74A ED A0       >			ldi
11297+A74C ED A0       >			ldi
11297+A74E ED A0       >			ldi
11297+A750 ED A0       >			ldi
11297+A752 ED A0       >			ldi
11297+A754 ED A0       >			ldi
11297+A756 ED A0       >			ldi
11297+A758 ED A0       >			ldi
11297+A75A ED A0       >			ldi
11297+A75C ED A0       >			ldi
11297+A75E ED A0       >			ldi
11297+A760 ED A0       >			ldi
11297+A762 ED A0       >			ldi
11297+A764 ED A0       >			ldi
11297+A766 ED A0       >			ldi
11297+A768 ED A0       >			ldi
11297+A76A ED A0       >			ldi
11297+A76C ED A0       >			ldi
11297+A76E ED A0       >			ldi
11297+A770 ED A0       >			ldi
11297+A772 ED A0       >			ldi
11297+A774 ED A0       >			ldi
11297+A776 ED A0       >			ldi
11297+A778 ED A0       >			ldi
11297+A77A ED A0       >			ldi
11297+A77C ED A0       >			ldi
11297+A77E ED A0       >			ldi
11297+A780 ED A0       >			ldi
11297+A782 ED A0       >			ldi
11297+A784 ED A0       >			ldi
11297+A786 ED A0       >			ldi
11297+A788 ED A0       >			ldi
11297+A78A ED A0       >			ldi
11297+A78C ED A0       >			ldi
11297+A78E ED A0       >			ldi
11297+A790 ED A0       >			ldi
11297+A792 ED A0       >			ldi
11297+A794 ED A0       >			ldi
11297+A796 ED A0       >			ldi
11297+A798 ED A0       >			ldi
11297+A79A ED A0       >			ldi
11297+A79C ED A0       >			ldi
11297+A79E ED A0       >			ldi
11297+A7A0 ED A0       >			ldi
11297+A7A2 ED A0       >			ldi
11297+A7A4 ED A0       >			ldi
11297+A7A6 ED A0       >			ldi
11297+A7A8 ED A0       >			ldi
11297+A7AA ED A0       >			ldi
11297+A7AC ED A0       >			ldi
11297+A7AE ED A0       >			ldi
11297+A7B0 ED A0       >			ldi
11297+A7B2 ED A0       >			ldi
11298+A7B4              			edup
11299+A7B4 3D           			dec	a
11300+A7B5 C2 B4 A6     			jp	nz,clrscr_01
11301+A7B8
11302+A7B8 3A F7 AF     			ld	a,(attr_screen)
11303+A7BB 77           			ld	(hl),a
11304+A7BC 01 FF 02     			ld	bc,767
11305+A7BF ED B0        			ldir
11306+A7C1
11307+A7C1 01 00 00     			ld	bc,0
11308+A7C4 ED 43 F4 AF  			ld	(col_screen),bc
11309+A7C8 AF           			xor	a
11310+A7C9 32 F6 AF     			ld	(half_tile_screen),a
11311+A7CC
11312+A7CC C9           			ret
11313+A7CD
11314+A7CD
11315+A7CD
11316+A7CD              ;  
11317+A7CD              ; : 
11318+A7CD              ; : 
11319+A7CD
11320+A7CD
11321+A7CD ED 4B FE AF  window LD    BC,(width_window)		;   :
11322+A7D1                                       		; C = LEN, B = HGT
11323+A7D1 3A FD AF            LD    A,(row_window)
11324+A7D4 F5           CLSV1  PUSH  AF
11325+A7D5 C5                  PUSH  BC
11326+A7D6 CD 9E 0E            call  3742        ;   
11327+A7D9 3A FC AF            LD    A,(col_window)     ; 
11328+A7DC 85                  ADD   A,L         ; COL  
11329+A7DD 6F                  LD    L,A
11330+A7DE 06 08               LD    B,8         ;   8  
11331+A7E0 E5           CLSV2  PUSH  HL
11332+A7E1 59                  LD    E,C         ;   E,   
11333+A7E2 AF                  XOR   A           ;  0
11334+A7E3 77           CLSV3  LD    (HL),A      ;   
11335+A7E4 23                  INC   HL          ;  
11336+A7E5 1D                  DEC   E           ;      
11337+A7E6 20 FB               JR    NZ,CLSV3
11338+A7E8 E1                  POP   HL
11339+A7E9 24                  INC   H           ;    
11340+A7EA 10 F4               DJNZ  CLSV2
11341+A7EC C1                  POP   BC
11342+A7ED F1                  POP   AF
11343+A7EE 3C                  INC   A           ;    
11344+A7EF 10 E3               DJNZ  CLSV1       ;,   
11345+A7F1                                       ;    
11346+A7F1
11347+A7F1
11348+A7F1 11 00 58     SETV   LD    DE,#5800    ;    
11349+A7F4 ED 4B FE AF         LD    BC,(width_window)    ;C = LEN, B = HGT
11350+A7F8 3A FD AF            LD    A,(row_window)
11351+A7FB 6F                  LD    L,A         ;     
11352+A7FC 26 00               LD    H,0         ;    
11353+A7FE 29                  ADD   HL,HL       ;  32 (2  5- )
11354+A7FF 29                  ADD   HL,HL
11355+A800 29                  ADD   HL,HL
11356+A801 29                  ADD   HL,HL
11357+A802 29                  ADD   HL,HL
11358+A803 19                  ADD   HL,DE       ;  
11359+A804                                       ;    
11360+A804 3A FC AF            LD    A,(col_window)     ;   
11361+A807 85                  ADD   A,L
11362+A808 6F                  LD    L,A
11363+A809 3A F7 AF            LD    A,(attr_screen)    ;   
11364+A80C C5           SETV1  PUSH  BC
11365+A80D E5                  PUSH  HL
11366+A80E 77           SETV2  LD    (HL),A      ;  
11367+A80F 23                  INC   HL
11368+A810 0D                  DEC   C           ;   
11369+A811 20 FB               JR    NZ,SETV2
11370+A813 E1                  POP   HL
11371+A814 C1                  POP   BC
11372+A815 11 20 00            LD    DE,32       ;   
11373+A818 19                  ADD   HL,DE       ; (  32 )
11374+A819 10 F1               DJNZ  SETV1       ;,     
11375+A81B                                       ;  
11376+A81B
11377+A81B
11378+A81B C9                  RET
11379+A81C
11380+A81C
11381+A81C
11382+A81C              ;    
11383+A81C              ; : 
11384+A81C              ; : 
11385+A81C
11386+A81C 11 00 E0     getimage	ld	de,addr_virt_screen
11387+A81F 21 FC AF     		ld	hl,col_window
11388+A822 ED A0        		ldi
11389+A824 ED A0        		ldi
11390+A826 ED A0        		ldi
11391+A828 ED A0        		ldi
11392+A82A
11393+A82A 2A FC AF     		ld	hl,(col_window)			; l=col_window, h=row_window
11394+A82D 3A FF AF     		ld	a,(height_window)
11395+A830 47           		ld	b,a
11396+A831
11397+A831 C5           getimage_01	push	bc
11398+A832 E5           		push	hl
11399+A833
11400+A833 7C                           LD      A,H				;       HL
11401+A834 0F                           RRCA
11402+A835 0F                           RRCA
11403+A836 0F                           RRCA
11404+A837 E6 E0                        AND	A,224
11405+A839 85           		ADD	A,L
11406+A83A 6F                           LD	L,A
11407+A83B 7C                           LD	A,H
11408+A83C E6 18                        AND	24
11409+A83E F6 40                        OR	64
11410+A840 67                           LD	H,A
11411+A841
11412+A841              		dup	8
11413+A841 E5          >		push	hl
11414+A842 ED 4B FE AF >		ld	bc,(width_window)
11415+A846 06 00       >		ld	b,0
11416+A848 ED B0       >		ldir
11417+A84A E1          >		pop	hl
11418+A84B 24          >		inc	h
11413+A84C E5          >		push	hl
11414+A84D ED 4B FE AF >		ld	bc,(width_window)
11415+A851 06 00       >		ld	b,0
11416+A853 ED B0       >		ldir
11417+A855 E1          >		pop	hl
11418+A856 24          >		inc	h
11413+A857 E5          >		push	hl
11414+A858 ED 4B FE AF >		ld	bc,(width_window)
11415+A85C 06 00       >		ld	b,0
11416+A85E ED B0       >		ldir
11417+A860 E1          >		pop	hl
11418+A861 24          >		inc	h
11413+A862 E5          >		push	hl
11414+A863 ED 4B FE AF >		ld	bc,(width_window)
11415+A867 06 00       >		ld	b,0
11416+A869 ED B0       >		ldir
11417+A86B E1          >		pop	hl
11418+A86C 24          >		inc	h
11413+A86D E5          >		push	hl
11414+A86E ED 4B FE AF >		ld	bc,(width_window)
11415+A872 06 00       >		ld	b,0
11416+A874 ED B0       >		ldir
11417+A876 E1          >		pop	hl
11418+A877 24          >		inc	h
11413+A878 E5          >		push	hl
11414+A879 ED 4B FE AF >		ld	bc,(width_window)
11415+A87D 06 00       >		ld	b,0
11416+A87F ED B0       >		ldir
11417+A881 E1          >		pop	hl
11418+A882 24          >		inc	h
11413+A883 E5          >		push	hl
11414+A884 ED 4B FE AF >		ld	bc,(width_window)
11415+A888 06 00       >		ld	b,0
11416+A88A ED B0       >		ldir
11417+A88C E1          >		pop	hl
11418+A88D 24          >		inc	h
11413+A88E E5          >		push	hl
11414+A88F ED 4B FE AF >		ld	bc,(width_window)
11415+A893 06 00       >		ld	b,0
11416+A895 ED B0       >		ldir
11417+A897 E1          >		pop	hl
11418+A898 24          >		inc	h
11419+A899              		edup
11420+A899
11421+A899 E1           		pop	hl
11422+A89A
11423+A89A 24           		inc	h
11424+A89B
11425+A89B C1           		pop	bc
11426+A89C 10 93        		djnz	getimage_01
11427+A89E
11428+A89E
11429+A89E 2A FC AF     		ld	hl,(col_window)			; l=col_window, h=row_window
11430+A8A1 3A FF AF     		ld	a,(height_window)
11431+A8A4 47           		ld	b,a
11432+A8A5
11433+A8A5 C5           getimage_02	push	bc
11434+A8A6 E5           		push	hl
11435+A8A7
11436+A8A7 7C                           LD	A,H				;      BC
11437+A8A8 0F                           RRCA
11438+A8A9 0F                           RRCA
11439+A8AA 0F                           RRCA
11440+A8AB 4F                           LD	C,A
11441+A8AC E6 1F                        AND	31
11442+A8AE F6 58                        OR	88
11443+A8B0 47                           LD	B,A
11444+A8B1 79                           LD	A,C
11445+A8B2 E6 FC                        AND	252
11446+A8B4 B5                           OR	L
11447+A8B5 4F                           LD	C,A
11448+A8B6
11449+A8B6 60           		ld	h,b
11450+A8B7 69           		ld	l,c
11451+A8B8 ED 4B FE AF  		ld	bc,(width_window)
11452+A8BC 06 00        		ld	b,0
11453+A8BE ED B0        		ldir
11454+A8C0
11455+A8C0 E1           		pop	hl
11456+A8C1
11457+A8C1 24           		inc	h
11458+A8C2
11459+A8C2 C1           		pop	bc
11460+A8C3 10 E0        		djnz	getimage_02
11461+A8C5
11462+A8C5
11463+A8C5 C9           		ret
11464+A8C6
11465+A8C6
11466+A8C6              ;    
11467+A8C6              ; : 
11468+A8C6              ; : 
11469+A8C6
11470+A8C6 21 02 E0     putimage	ld	hl,addr_virt_screen+2
11471+A8C9 11 FE AF     		ld	de,col_window+2
11472+A8CC ED A0        		ldi
11473+A8CE ED A0        		ldi
11474+A8D0
11475+A8D0 ED 5B FC AF  		ld	de,(col_window)			; e=col_window, d=row_window
11476+A8D4 3A FF AF     		ld	a,(height_window)
11477+A8D7 47           		ld	b,a
11478+A8D8
11479+A8D8 C5           putimage_01	push	bc
11480+A8D9 D5           		push	de
11481+A8DA
11482+A8DA 7A                           LD      A,D				;       DE
11483+A8DB 0F                           RRCA
11484+A8DC 0F                           RRCA
11485+A8DD 0F                           RRCA
11486+A8DE E6 E0                        AND	A,224
11487+A8E0 83           		ADD	A,E
11488+A8E1 5F                           LD	E,A
11489+A8E2 7A                           LD	A,D
11490+A8E3 E6 18                        AND	24
11491+A8E5 F6 40                        OR	64
11492+A8E7 57                           LD	D,A
11493+A8E8
11494+A8E8              		dup	8
11495+A8E8 D5          >		push	de
11496+A8E9 ED 4B FE AF >		ld	bc,(width_window)
11497+A8ED 06 00       >		ld	b,0
11498+A8EF ED B0       >		ldir
11499+A8F1 D1          >		pop	de
11500+A8F2 14          >		inc	d
11495+A8F3 D5          >		push	de
11496+A8F4 ED 4B FE AF >		ld	bc,(width_window)
11497+A8F8 06 00       >		ld	b,0
11498+A8FA ED B0       >		ldir
11499+A8FC D1          >		pop	de
11500+A8FD 14          >		inc	d
11495+A8FE D5          >		push	de
11496+A8FF ED 4B FE AF >		ld	bc,(width_window)
11497+A903 06 00       >		ld	b,0
11498+A905 ED B0       >		ldir
11499+A907 D1          >		pop	de
11500+A908 14          >		inc	d
11495+A909 D5          >		push	de
11496+A90A ED 4B FE AF >		ld	bc,(width_window)
11497+A90E 06 00       >		ld	b,0
11498+A910 ED B0       >		ldir
11499+A912 D1          >		pop	de
11500+A913 14          >		inc	d
11495+A914 D5          >		push	de
11496+A915 ED 4B FE AF >		ld	bc,(width_window)
11497+A919 06 00       >		ld	b,0
11498+A91B ED B0       >		ldir
11499+A91D D1          >		pop	de
11500+A91E 14          >		inc	d
11495+A91F D5          >		push	de
11496+A920 ED 4B FE AF >		ld	bc,(width_window)
11497+A924 06 00       >		ld	b,0
11498+A926 ED B0       >		ldir
11499+A928 D1          >		pop	de
11500+A929 14          >		inc	d
11495+A92A D5          >		push	de
11496+A92B ED 4B FE AF >		ld	bc,(width_window)
11497+A92F 06 00       >		ld	b,0
11498+A931 ED B0       >		ldir
11499+A933 D1          >		pop	de
11500+A934 14          >		inc	d
11495+A935 D5          >		push	de
11496+A936 ED 4B FE AF >		ld	bc,(width_window)
11497+A93A 06 00       >		ld	b,0
11498+A93C ED B0       >		ldir
11499+A93E D1          >		pop	de
11500+A93F 14          >		inc	d
11501+A940              		edup
11502+A940
11503+A940 D1           		pop	de
11504+A941
11505+A941 14           		inc	d
11506+A942
11507+A942 C1           		pop	bc
11508+A943 10 93        		djnz	putimage_01
11509+A945
11510+A945
11511+A945 ED 5B FC AF  		ld	de,(col_window)			; e=col_window, d=row_window
11512+A949 3A FF AF     		ld	a,(height_window)
11513+A94C 47           		ld	b,a
11514+A94D
11515+A94D C5           putimage_02	push	bc
11516+A94E D5           		push	de
11517+A94F
11518+A94F 7A                           LD	A,D				;      BC
11519+A950 0F                           RRCA
11520+A951 0F                           RRCA
11521+A952 0F                           RRCA
11522+A953 4F                           LD	C,A
11523+A954 E6 1F                        AND	31
11524+A956 F6 58                        OR	88
11525+A958 47                           LD	B,A
11526+A959 79                           LD	A,C
11527+A95A E6 FC                        AND	252
11528+A95C B3                           OR	E
11529+A95D 4F                           LD	C,A
11530+A95E
11531+A95E 50           		ld	d,b
11532+A95F 59           		ld	e,c
11533+A960 ED 4B FE AF  		ld	bc,(width_window)
11534+A964 06 00        		ld	b,0
11535+A966 ED B0        		ldir
11536+A968
11537+A968 D1           		pop	de
11538+A969
11539+A969 14           		inc	d
11540+A96A
11541+A96A C1           		pop	bc
11542+A96B 10 E0        		djnz	putimage_02
11543+A96D
11544+A96D
11545+A96D C9           		ret
11546+A96E
11547+A96E
11548+A96E
11549+A96E              ;    
11550+A96E              ; : 
11551+A96E              ; : 
11552+A96E
11553+A96E 3A FC AF     scr_up LD    A,(col_window)
11554+A971 4F                  LD    C,A
11555+A972 3A FF AF            LD    A,(height_window)
11556+A975 47                  LD    B,A
11557+A976 3A FD AF            LD    A,(row_window)
11558+A979              ;    ROW, COL  HGT   8,
11559+A979              ;       
11560+A979 CB 27               SLA   A
11561+A97B CB 27               SLA   A
11562+A97D CB 27               SLA   A
11563+A97F CB 20               SLA   B
11564+A981 CB 20               SLA   B
11565+A983 CB 20               SLA   B
11566+A985 05                  DEC   B           ;     
11567+A986                                       ;  
11568+A986 CB 21               SLA   C
11569+A988 CB 21               SLA   C
11570+A98A CB 21               SLA   C
11571+A98C F5                  PUSH  AF
11572+A98D C5                  PUSH  BC
11573+A98E CD B0 22            CALL  8880        ;     
11574+A991 C1                  POP   BC
11575+A992 F1                  POP   AF
11576+A993 3C           SCRUP1 INC   A           ;  
11577+A994 F5                  PUSH  AF
11578+A995 C5                  PUSH  BC
11579+A996 E5                  PUSH  HL
11580+A997 CD B0 22            CALL  8880        ; 
11581+A99A D1                  POP   DE
11582+A99B E5                  PUSH  HL
11583+A99C 3A FE AF            LD    A,(width_window)     ;  , 
11584+A99F                                       ;    
11585+A99F 4F                  LD    C,A
11586+A9A0 06 00               LD    B,0
11587+A9A2 ED B0               LDIR
11588+A9A4 E1                  POP   HL
11589+A9A5 C1                  POP   BC
11590+A9A6 F1                  POP   AF
11591+A9A7 10 EA               DJNZ  SCRUP1
11592+A9A9 36 00               LD    (HL),0      ;     
11593+A9AB 54                  LD    D,H
11594+A9AC 5D                  LD    E,L
11595+A9AD 13                  INC   DE
11596+A9AE 3A FE AF            LD    A,(width_window)     ;  ,
11597+A9B1 3D                  DEC   A           ;  1
11598+A9B2 C8                  RET   Z           ;,    
11599+A9B3 4F                  LD    C,A
11600+A9B4 06 00               LD    B,0
11601+A9B6 ED B0               LDIR              ;      
11602+A9B8 C9                  RET
11603+A9B9
11604+A9B9
11605+A9B9
11606+A9B9              ;    
11607+A9B9              ; : 
11608+A9B9              ; : 
11609+A9B9
11610+A9B9 3A FC AF     scr_dn LD    A,(col_window)
11611+A9BC 4F                  LD    C,A
11612+A9BD 3A FF AF            LD    A,(height_window)
11613+A9C0 47                  LD    B,A
11614+A9C1 3A FD AF            LD    A,(row_window)
11615+A9C4 80                  ADD   A,B         ;   
11616+A9C5                                       ; ,   SCR_UP,  
11617+A9C5 CB 27               SLA   A
11618+A9C7 CB 27               SLA   A
11619+A9C9 CB 27               SLA   A
11620+A9CB 3D                  DEC   A
11621+A9CC CB 20               SLA   B
11622+A9CE CB 20               SLA   B
11623+A9D0 CB 20               SLA   B
11624+A9D2 05                  DEC   B
11625+A9D3 CB 21               SLA   C
11626+A9D5 CB 21               SLA   C
11627+A9D7 CB 21               SLA   C
11628+A9D9 F5                  PUSH  AF
11629+A9DA C5                  PUSH  BC
11630+A9DB CD B0 22            CALL  8880
11631+A9DE C1                  POP   BC
11632+A9DF F1                  POP   AF
11633+A9E0 3D           SCRDN1 DEC   A           ;   ( )
11634+A9E1 F5                  PUSH  AF
11635+A9E2 C5                  PUSH  BC
11636+A9E3 E5                  PUSH  HL
11637+A9E4 CD B0 22            CALL  8880
11638+A9E7 D1                  POP   DE
11639+A9E8 E5                  PUSH  HL
11640+A9E9 3A FE AF            LD    A,(width_window)
11641+A9EC 4F                  LD    C,A
11642+A9ED 06 00               LD    B,0
11643+A9EF ED B0               LDIR
11644+A9F1 E1                  POP   HL
11645+A9F2 C1                  POP   BC
11646+A9F3 F1                  POP   AF
11647+A9F4 10 EA               DJNZ  SCRDN1
11648+A9F6 36 00               LD    (HL),0
11649+A9F8 54                  LD    D,H
11650+A9F9 5D                  LD    E,L
11651+A9FA 13                  INC   DE
11652+A9FB 3A FE AF            LD    A,(width_window)
11653+A9FE 3D                  DEC   A
11654+A9FF C8                  RET   Z
11655+AA00 4F                  LD    C,A
11656+AA01 06 00               LD    B,0
11657+AA03 ED B0               LDIR
11658+AA05 C9                  RET
11659+AA06
11660+AA06
11661+AA06
11662+AA06              ;    
11663+AA06              ; : 
11664+AA06              ; : 
11665+AA06
11666+AA06
11667+AA06 3A FF AF     scr_lf LD    A,(height_window)
11668+AA09 47                  LD    B,A
11669+AA0A 3A FD AF            LD    A,(row_window)
11670+AA0D F5           SCRLF1 PUSH  AF
11671+AA0E C5                  PUSH  BC
11672+AA0F CD 9E 0E            CALL  3742
11673+AA12 3A FC AF            LD    A,(col_window)
11674+AA15 47                  LD    B,A
11675+AA16 3A FE AF            LD    A,(width_window)
11676+AA19 3D                  DEC   A
11677+AA1A 80                  ADD   A,B
11678+AA1B 85                  ADD   A,L
11679+AA1C 6F                  LD    L,A
11680+AA1D 06 08               LD    B,8
11681+AA1F E5           SCRLF2 PUSH  HL
11682+AA20 3A FE AF            LD    A,(width_window)
11683+AA23 A7                  AND   A
11684+AA24 CB 16        SCRLF3 RL    (HL)
11685+AA26 2B                  DEC   HL
11686+AA27 3D                  DEC   A
11687+AA28 20 FA               JR    NZ,SCRLF3
11688+AA2A E1                  POP   HL
11689+AA2B 24                  INC   H
11690+AA2C 10 F1               DJNZ  SCRLF2
11691+AA2E C1                  POP   BC
11692+AA2F F1                  POP   AF
11693+AA30 3C                  INC   A
11694+AA31 10 DA               DJNZ  SCRLF1
11695+AA33 C9                  RET
11696+AA34
11697+AA34
11698+AA34
11699+AA34
11700+AA34              ;    
11701+AA34              ; : 
11702+AA34              ; : 
11703+AA34
11704+AA34 3A FF AF     scr_rt LD    A,(height_window)
11705+AA37 47                  LD    B,A
11706+AA38 3A FD AF            LD    A,(row_window)
11707+AA3B F5           SCRRT1 PUSH  AF
11708+AA3C C5                  PUSH  BC
11709+AA3D CD 9E 0E            CALL  3742
11710+AA40 3A FC AF            LD    A,(col_window)
11711+AA43 85                  ADD   A,L
11712+AA44 6F                  LD    L,A
11713+AA45 06 08               LD    B,8
11714+AA47 E5           SCRRT2 PUSH  HL
11715+AA48 3A FE AF            LD    A,(width_window)
11716+AA4B A7                  AND   A
11717+AA4C CB 1E        SCRRT3 RR    (HL)
11718+AA4E 23                  INC   HL
11719+AA4F 3D                  DEC   A
11720+AA50 20 FA               JR    NZ,SCRRT3
11721+AA52 E1                  POP   HL
11722+AA53 24                  INC   H
11723+AA54 10 F1               DJNZ  SCRRT2
11724+AA56 C1                  POP   BC
11725+AA57 F1                  POP   AF
11726+AA58 3C                  INC   A
11727+AA59 10 E0               DJNZ  SCRRT1
11728+AA5B C9                  RET
11729+AA5C
11730+AA5C
11731+AA5C
11732+AA5C
11733+AA5C              ; 
11734+AA5C              ; : hl=  1/50 
11735+AA5C              ; : 
11736+AA5C
11737+AA5C 76           pause			halt
11738+AA5D 2B           			dec	hl
11739+AA5E 7C           			ld	a,h
11740+AA5F B5           			or	l
11741+AA60 20 FA        			jr	nz,pause
11742+AA62
11743+AA62 C9           			ret
11744+AA63
11745+AA63
11746+AA63
11747+AA63              ;    16- 
11748+AA63              ; (C) Kirill Frolov
11749+AA63              ;     idea by Vasil Ivanov
11750+AA63              ; dehl=de*bc   ~730t.
11751+AA63
11752+AA63 7A           mul	ld	a,d
11753+AA64 A7           	and	a
11754+AA65 C2 72 AA     	jp	nz,mul_00
11755+AA68 DD 21 72 AA  	ld	ix,mul_00
11756+AA6C 60           	ld	h,b
11757+AA6D 69           	ld	l,c
11758+AA6E 7B           	ld	a,e
11759+AA6F C3 F8 AA     	jp	mul_02
11760+AA72
11761+AA72 78           mul_00	ld	a,b
11762+AA73 A7           	and	a
11763+AA74 C2 81 AA     	jp	nz,mul_01
11764+AA77 DD 21 81 AA  	ld	ix,mul_01
11765+AA7B 62           	ld	h,d
11766+AA7C 6B           	ld	l,e
11767+AA7D 79           	ld	a,c
11768+AA7E C3 F8 AA     	jp	mul_02
11769+AA81
11770+AA81              mul_01
11771+AA81 21 00 00             ld hl, 0
11772+AA84 79                   ld a, c
11773+AA85 4D                   ld c, l    ; 18
11774+AA86
11775+AA86 87                   add a, a
11776+AA87 30 02                jr nc, $+4
11777+AA89 19                   add hl, de
11778+AA8A 89                   adc a, c   ; 29
11779+AA8B                   ; REPEAT 7
11780+AA8B 29                     add hl, hl
11781+AA8C 17                     rla
11782+AA8D 30 02                  jr nc, $+4
11783+AA8F 19                     add hl, de
11784+AA90 89                     adc a, c   ; 40*7  309
11785+AA91 29                         add hl, hl
11786+AA92 17                         rla
11787+AA93 30 02                      jr nc, $+4
11788+AA95 19                         add hl, de
11789+AA96 89                         adc a, c
11790+AA97 29                       add hl, hl
11791+AA98 17                       rla
11792+AA99 30 02                    jr nc, $+4
11793+AA9B 19                       add hl, de
11794+AA9C 89                       adc a, c
11795+AA9D 29                         add hl, hl
11796+AA9E 17                         rla
11797+AA9F 30 02                      jr nc, $+4
11798+AAA1 19                         add hl, de
11799+AAA2 89                         adc a, c
11800+AAA3 29                       add hl, hl
11801+AAA4 17                       rla
11802+AAA5 30 02                    jr nc, $+4
11803+AAA7 19                       add hl, de
11804+AAA8 89                       adc a, c
11805+AAA9 29                         add hl, hl
11806+AAAA 17                         rla
11807+AAAB 30 02                      jr nc, $+4
11808+AAAD 19                         add hl, de
11809+AAAE 89                         adc a, c
11810+AAAF 29                       add hl, hl
11811+AAB0 17                       rla
11812+AAB1 30 02                    jr nc, $+4
11813+AAB3 19                       add hl, de
11814+AAB4 89                       adc a, c
11815+AAB5                   ; ENDR
11816+AAB5
11817+AAB5 4F                   ld c, a
11818+AAB6 E5                   push hl   ; 0chl
11819+AAB7 21 00 00             ld hl, 0
11820+AABA 78                   ld a, b
11821+AABB 45                   ld b, l   ; 33
11822+AABC
11823+AABC 87                   add a, a
11824+AABD 30 02                jr nc, $+4
11825+AABF 19                   add hl, de
11826+AAC0 80                   add a, b   ; 29
11827+AAC1                   ; REPEAT 7
11828+AAC1 29                     add hl, hl
11829+AAC2 17                     rla
11830+AAC3 30 02                  jr nc, $+4
11831+AAC5 19                     add hl, de
11832+AAC6 80                     add a, b   ; 40*7  309
11833+AAC7 29                         add hl, hl
11834+AAC8 17                         rla
11835+AAC9 30 02                      jr nc, $+4
11836+AACB 19                         add hl, de
11837+AACC 80                         add a, b
11838+AACD 29                       add hl, hl
11839+AACE 17                       rla
11840+AACF 30 02                    jr nc, $+4
11841+AAD1 19                       add hl, de
11842+AAD2 80                       add a, b
11843+AAD3 29                         add hl, hl
11844+AAD4 17                         rla
11845+AAD5 30 02                      jr nc, $+4
11846+AAD7 19                         add hl, de
11847+AAD8 80                         add a, b
11848+AAD9 29                       add hl, hl
11849+AADA 17                       rla
11850+AADB 30 02                    jr nc, $+4
11851+AADD 19                       add hl, de
11852+AADE 80                       add a, b
11853+AADF 29                         add hl, hl
11854+AAE0 17                         rla
11855+AAE1 30 02                      jr nc, $+4
11856+AAE3 19                         add hl, de
11857+AAE4 80                         add a, b
11858+AAE5 29                       add hl, hl
11859+AAE6 17                       rla
11860+AAE7 30 02                    jr nc, $+4
11861+AAE9 19                       add hl, de
11862+AAEA 80                       add a, b
11863+AAEB                   ; ENDR
11864+AAEB
11865+AAEB                 ; ahl0 + 0cde = hlde
11866+AAEB D1                   pop de
11867+AAEC 45                   ld b, l
11868+AAED 6C                   ld l, h
11869+AAEE 67                   ld h, a
11870+AAEF 7A                   ld a, d
11871+AAF0 80                   add a, b
11872+AAF1 57                   ld d, a
11873+AAF2 06 00                ld b, 0
11874+AAF4 ED 4A                adc hl, bc
11875+AAF6 EB                   ex de, hl   ; 60
11876+AAF7
11877+AAF7 C9                   ret         ; 729t.
11878+AAF8
11879+AAF8
11880+AAF8 A7           mul_02		and	a
11881+AAF9 CA 49 AB     		jp	z,mul_n0
11882+AAFC FE 01        		cp	1
11883+AAFE CA 4D AB     		jp	z,mul_n1
11884+AB01 FE 02        		cp	2
11885+AB03 CA 4E AB     		jp	z,mul_n2
11886+AB06 FE 03        		cp	3
11887+AB08 CA 50 AB     		jp	z,mul_n3
11888+AB0B FE 04        		cp	4
11889+AB0D CA 55 AB     		jp	z,mul_n4
11890+AB10 FE 05        		cp	5
11891+AB12 CA 58 AB     		jp	z,mul_n5
11892+AB15 FE 08        		cp	8
11893+AB17 CA 5E AB     		jp	z,mul_n8
11894+AB1A FE 0A        		cp	10
11895+AB1C CA 62 AB     		jp	z,mul_n10
11896+AB1F FE 0F        		cp	15
11897+AB21 CA 69 AB     		jp	z,mul_n15
11898+AB24 FE 10        		cp	16
11899+AB26 CA 73 AB     		jp	z,mul_n16
11900+AB29 FE 14        		cp	20
11901+AB2B CA 78 AB     		jp	z,mul_n20
11902+AB2E FE 20        		cp	32
11903+AB30 CA 80 AB     		jp	z,mul_n32
11904+AB33 FE 32        		cp	50
11905+AB35 CA 86 AB     		jp	z,mul_n50
11906+AB38 FE 40        		cp	64
11907+AB3A CA 92 AB     		jp	z,mul_n64
11908+AB3D FE 64        		cp	100
11909+AB3F CA 99 AB     		jp	z,mul_n100
11910+AB42 FE 80        		cp	128
11911+AB44 CA A6 AB     		jp	z,mul_n128
11912+AB47 DD E9        		jp	(ix)
11913+AB49
11914+AB49 21 00 00     mul_n0		ld	hl,0
11915+AB4C C9           		ret
11916+AB4D
11917+AB4D C9           mul_n1		ret
11918+AB4E
11919+AB4E 29           mul_n2		add	hl,hl
11920+AB4F C9           		ret
11921+AB50
11922+AB50 54           mul_n3		ld	d,h
11923+AB51 5D           		ld	e,l
11924+AB52 29           		add	hl,hl
11925+AB53 19           		add	hl,de
11926+AB54 C9           		ret
11927+AB55
11928+AB55 29           mul_n4		add	hl,hl
11929+AB56 29           		add	hl,hl
11930+AB57 C9           		ret
11931+AB58
11932+AB58 54           mul_n5		ld	d,h
11933+AB59 5D           		ld	e,l
11934+AB5A 29           		add	hl,hl
11935+AB5B 29           		add	hl,hl
11936+AB5C 19           		add	hl,de
11937+AB5D C9           		ret
11938+AB5E
11939+AB5E 29           mul_n8		add	hl,hl
11940+AB5F 29           		add	hl,hl
11941+AB60 29           		add	hl,hl
11942+AB61 C9           		ret
11943+AB62
11944+AB62 29           mul_n10		add	hl,hl
11945+AB63 54           		ld	d,h
11946+AB64 5D           		ld	e,l
11947+AB65 29           		add	hl,hl
11948+AB66 29           		add	hl,hl
11949+AB67 19           		add	hl,de
11950+AB68 C9           		ret
11951+AB69
11952+AB69 54           mul_n15		ld	d,h
11953+AB6A 5D           		ld	e,l
11954+AB6B 29           		add	hl,hl
11955+AB6C 29           		add	hl,hl
11956+AB6D 29           		add	hl,hl
11957+AB6E 29           		add	hl,hl
11958+AB6F A7           		and	a
11959+AB70 ED 52        		sbc	hl,de
11960+AB72 C9           		ret
11961+AB73
11962+AB73 29           mul_n16		add	hl,hl
11963+AB74 29           		add	hl,hl
11964+AB75 29           		add	hl,hl
11965+AB76 29           		add	hl,hl
11966+AB77 C9           		ret
11967+AB78
11968+AB78 29           mul_n20		add	hl,hl
11969+AB79 29           		add	hl,hl
11970+AB7A 54           		ld	d,h
11971+AB7B 5D           		ld	e,l
11972+AB7C 29           		add	hl,hl
11973+AB7D 29           		add	hl,hl
11974+AB7E 19           		add	hl,de
11975+AB7F C9           		ret
11976+AB80
11977+AB80 29           mul_n32		add	hl,hl
11978+AB81 29           		add	hl,hl
11979+AB82 29           		add	hl,hl
11980+AB83 29           		add	hl,hl
11981+AB84 29           		add	hl,hl
11982+AB85 C9           		ret
11983+AB86
11984+AB86 29           mul_n50		add	hl,hl
11985+AB87 54           		ld	d,h
11986+AB88 5D           		ld	e,l
11987+AB89 29           		add	hl,hl
11988+AB8A 29           		add	hl,hl
11989+AB8B 29           		add	hl,hl
11990+AB8C 44           		ld	b,h
11991+AB8D 4D           		ld	c,l
11992+AB8E 29           		add	hl,hl
11993+AB8F 09           		add	hl,bc
11994+AB90 19           		add	hl,de
11995+AB91 C9           		ret
11996+AB92
11997+AB92 29           mul_n64		add	hl,hl
11998+AB93 29           		add	hl,hl
11999+AB94 29           		add	hl,hl
12000+AB95 29           		add	hl,hl
12001+AB96 29           		add	hl,hl
12002+AB97 29           		add	hl,hl
12003+AB98 C9           		ret
12004+AB99
12005+AB99 29           mul_n100	add	hl,hl
12006+AB9A 29           		add	hl,hl
12007+AB9B 54           		ld	d,h
12008+AB9C 5D           		ld	e,l
12009+AB9D 29           		add	hl,hl
12010+AB9E 29           		add	hl,hl
12011+AB9F 29           		add	hl,hl
12012+ABA0 44           		ld	b,h
12013+ABA1 4D           		ld	c,l
12014+ABA2 29           		add	hl,hl
12015+ABA3 09           		add	hl,bc
12016+ABA4 19           		add	hl,de
12017+ABA5 C9           		ret
12018+ABA6
12019+ABA6 29           mul_n128	add	hl,hl
12020+ABA7 29           		add	hl,hl
12021+ABA8 29           		add	hl,hl
12022+ABA9 29           		add	hl,hl
12023+ABAA 29           		add	hl,hl
12024+ABAB 29           		add	hl,hl
12025+ABAC 29           		add	hl,hl
12026+ABAD C9           		ret
12027+ABAE
12028+ABAE
12029+ABAE
12030+ABAE              ;     48
12031+ABAE
12032+ABAE              s_sp             equ     32
12033+ABAE              s__0             equ     48
12034+ABAE
12035+ABAE
12036+ABAE              ;  48
12037+ABAE
12038+ABAE              font64
12039+ABAE
12040+ABAE 00 00 00 00                      defb #00,#00,#00,#00,#00,#00	; 032  space
12040+ABB2 00 00
12041+ABB4 44 44 44 44                      defb #44,#44,#44,#44,#00,#44	; 033  !
12041+ABB8 00 44
12042+ABBA AA AA 00 00                      defb #AA,#AA,#00,#00,#00,#00	; 034  "
12042+ABBE 00 00
12043+ABC0 AA EE AA AA                      defb #AA,#EE,#AA,#AA,#EE,#AA	; 035  #
12043+ABC4 EE AA
12044+ABC6 44 EE CC 66                      defb #44,#EE,#CC,#66,#EE,#44	; 036  $
12044+ABCA EE 44
12045+ABCC AA 22 44 44                      defb #AA,#22,#44,#44,#88,#AA	; 037  %
12045+ABD0 88 AA
12046+ABD2 44 AA 44 AA                      defb #44,#AA,#44,#AA,#AA,#55	; 038  &
12046+ABD6 AA 55
12047+ABD8 22 44 00 00                      defb #22,#44,#00,#00,#00,#00	; 039  '
12047+ABDC 00 00
12048+ABDE 22 44 44 44                      defb #22,#44,#44,#44,#44,#22	; 040  (
12048+ABE2 44 22
12049+ABE4 44 22 22 22                      defb #44,#22,#22,#22,#22,#44	; 041  )
12049+ABE8 22 44
12050+ABEA 00 AA 44 AA                      defb #00,#AA,#44,#AA,#00,#00	; 042  *
12050+ABEE 00 00
12051+ABF0 00 44 EE 44                      defb #00,#44,#EE,#44,#00,#00	; 043  +
12051+ABF4 00 00
12052+ABF6 00 00 00 00                      defb #00,#00,#00,#00,#22,#44	; 044  ,
12052+ABFA 22 44
12053+ABFC 00 00 EE 00                      defb #00,#00,#EE,#00,#00,#00	; 045  -
12053+AC00 00 00
12054+AC02 00 00 00 00                      defb #00,#00,#00,#00,#00,#44	; 046  .
12054+AC06 00 44
12055+AC08 22 22 44 44                      defb #22,#22,#44,#44,#88,#88	; 047  /
12055+AC0C 88 88
12056+AC0E 44 AA AA AA                      defb #44,#AA,#AA,#AA,#AA,#44	; 048  0
12056+AC12 AA 44
12057+AC14 44 CC 44 44                      defb #44,#CC,#44,#44,#44,#EE	; 049  1
12057+AC18 44 EE
12058+AC1A 44 AA 22 44                      defb #44,#AA,#22,#44,#88,#EE	; 050  2
12058+AC1E 88 EE
12059+AC20 EE 22 44 22                      defb #EE,#22,#44,#22,#22,#CC	; 051  3
12059+AC24 22 CC
12060+AC26 22 66 AA EE                      defb #22,#66,#AA,#EE,#22,#22	; 052  4
12060+AC2A 22 22
12061+AC2C EE 88 CC 22                      defb #EE,#88,#CC,#22,#22,#CC	; 053  5
12061+AC30 22 CC
12062+AC32 66 88 CC AA                      defb #66,#88,#CC,#AA,#AA,#44	; 054  6
12062+AC36 AA 44
12063+AC38 EE 22 44 88                      defb #EE,#22,#44,#88,#88,#88	; 055  7
12063+AC3C 88 88
12064+AC3E 44 AA 44 AA                      defb #44,#AA,#44,#AA,#AA,#44	; 056  8
12064+AC42 AA 44
12065+AC44 44 AA AA 66                      defb #44,#AA,#AA,#66,#22,#CC	; 057  9
12065+AC48 22 CC
12066+AC4A 00 44 00 00                      defb #00,#44,#00,#00,#44,#00	; 058  :
12066+AC4E 44 00
12067+AC50 00 22 00 00                      defb #00,#22,#00,#00,#22,#44	; 059  ;
12067+AC54 22 44
12068+AC56 00 22 44 88                      defb #00,#22,#44,#88,#44,#22	; 060  <
12068+AC5A 44 22
12069+AC5C 00 EE 00 EE                      defb #00,#EE,#00,#EE,#00,#00	; 061  =
12069+AC60 00 00
12070+AC62 00 88 44 22                      defb #00,#88,#44,#22,#44,#88	; 062  >
12070+AC66 44 88
12071+AC68 44 AA 22 44                      defb #44,#AA,#22,#44,#00,#44	; 063  ?
12071+AC6C 00 44
12072+AC6E 66 BB DD FF                      defb #66,#BB,#DD,#FF,#CC,#66	; 064  @
12072+AC72 CC 66
12073+AC74 66 AA AA EE                      defb #66,#AA,#AA,#EE,#AA,#AA	; 065  A
12073+AC78 AA AA
12074+AC7A CC AA CC AA                      defb #CC,#AA,#CC,#AA,#AA,#CC	; 066  B
12074+AC7E AA CC
12075+AC80 44 AA 88 88                      defb #44,#AA,#88,#88,#AA,#44	; 067  C
12075+AC84 AA 44
12076+AC86 CC AA AA AA                      defb #CC,#AA,#AA,#AA,#AA,#CC	; 068  D
12076+AC8A AA CC
12077+AC8C EE 88 CC 88                      defb #EE,#88,#CC,#88,#88,#EE	; 069  E
12077+AC90 88 EE
12078+AC92 EE 88 CC 88                      defb #EE,#88,#CC,#88,#88,#88	; 070  F
12078+AC96 88 88
12079+AC98 66 88 88 AA                      defb #66,#88,#88,#AA,#AA,#66	; 071  G
12079+AC9C AA 66
12080+AC9E AA AA EE AA                      defb #AA,#AA,#EE,#AA,#AA,#AA	; 072  H
12080+ACA2 AA AA
12081+ACA4 EE 44 44 44                      defb #EE,#44,#44,#44,#44,#EE	; 073  I
12081+ACA8 44 EE
12082+ACAA 66 22 22 22                      defb #66,#22,#22,#22,#AA,#44	; 074  J
12082+ACAE AA 44
12083+ACB0 AA AA CC AA                      defb #AA,#AA,#CC,#AA,#AA,#AA	; 075  K
12083+ACB4 AA AA
12084+ACB6 88 88 88 88                      defb #88,#88,#88,#88,#88,#EE	; 076  L
12084+ACBA 88 EE
12085+ACBC AA EE EE EE                      defb #AA,#EE,#EE,#EE,#AA,#AA	; 077  M
12085+ACC0 AA AA
12086+ACC2 AA AA EE EE                      defb #AA,#AA,#EE,#EE,#EE,#AA	; 078  N
12086+ACC6 EE AA
12087+ACC8 66 AA AA AA                      defb #66,#AA,#AA,#AA,#AA,#CC	; 079  O
12087+ACCC AA CC
12088+ACCE CC AA AA CC                      defb #CC,#AA,#AA,#CC,#88,#88	; 080  P
12088+ACD2 88 88
12089+ACD4 44 AA AA AA                      defb #44,#AA,#AA,#AA,#EE,#77	; 081  Q
12089+ACD8 EE 77
12090+ACDA CC AA AA CC                      defb #CC,#AA,#AA,#CC,#AA,#AA	; 082  R
12090+ACDE AA AA
12091+ACE0 66 88 CC 66                      defb #66,#88,#CC,#66,#22,#CC	; 083  S
12091+ACE4 22 CC
12092+ACE6 EE 44 44 44                      defb #EE,#44,#44,#44,#44,#44	; 084  T
12092+ACEA 44 44
12093+ACEC AA AA AA AA                      defb #AA,#AA,#AA,#AA,#AA,#66	; 085  U
12093+ACF0 AA 66
12094+ACF2 AA AA AA AA                      defb #AA,#AA,#AA,#AA,#AA,#44	; 086  V
12094+ACF6 AA 44
12095+ACF8 AA AA EE EE                      defb #AA,#AA,#EE,#EE,#EE,#44	; 087  W
12095+ACFC EE 44
12096+ACFE AA AA 44 AA                      defb #AA,#AA,#44,#AA,#AA,#AA	; 088  X
12096+AD02 AA AA
12097+AD04 AA AA AA 44                      defb #AA,#AA,#AA,#44,#44,#44	; 089  Y
12097+AD08 44 44
12098+AD0A EE 22 44 44                      defb #EE,#22,#44,#44,#88,#EE	; 090  Z
12098+AD0E 88 EE
12099+AD10 66 44 44 44                      defb #66,#44,#44,#44,#44,#66	; 091  [
12099+AD14 44 66
12100+AD16 88 88 44 44                      defb #88,#88,#44,#44,#22,#22	; 092  \
12100+AD1A 22 22
12101+AD1C 66 22 22 22                      defb #66,#22,#22,#22,#22,#66	; 093  ]
12101+AD20 22 66
12102+AD22 44 AA 00 00                      defb #44,#AA,#00,#00,#00,#00	; 094  ^
12102+AD26 00 00
12103+AD28 00 00 00 00                      defb #00,#00,#00,#00,#00,#EE	; 095  _
12103+AD2C 00 EE
12104+AD2E 55 AA 00 00                      defb #55,#AA,#00,#00,#00,#00	; 096  ~
12104+AD32 00 00
12105+AD34 44 EE 44 44                      defb #44,#EE,#44,#44,#44,#44	; 097  cross
12105+AD38 44 44
12106+AD3A 44 EE 44 44                      defb #44,#EE,#44,#44,#EE,#44	; 098  double cross
12106+AD3E EE 44
12107+AD40 66 88 EE EE                      defb #66,#88,#EE,#EE,#88,#66	; 099  euro
12107+AD44 88 66
12108+AD46 66 BB DD DD                      defb #66,#BB,#DD,#DD,#BB,#66	; 100  copyright
12108+AD4A BB 66
12109+AD4C EE 22 00 00                      defb #EE,#22,#00,#00,#00,#00	; 101  -|
12109+AD50 00 00
12110+AD52 44 AA 44 00                      defb #44,#AA,#44,#00,#00,#00	; 102  gradus
12110+AD56 00 00
12111+AD58 44 EE 44 00                      defb #44,#EE,#44,#00,#EE,#00	; 103  +-
12111+AD5C EE 00
12112+AD5E 44 44 44 44                      defb #44,#44,#44,#44,#44,#44	; 104  |
12112+AD62 44 44
12113+AD64 00 00 FF 00                      defb #00,#00,#FF,#00,#00,#00	; 105  pseudographic -
12113+AD68 00 00
12114+AD6A 44 44 FF 44                      defb #44,#44,#FF,#44,#44,#44	; 106  pseudographic cross
12114+AD6E 44 44
12115+AD70 00 00 CC 44                      defb #00,#00,#CC,#44,#44,#44	; 107  pseudographic left-down
12115+AD74 44 44
12116+AD76 00 00 77 44                      defb #00,#00,#77,#44,#44,#44	; 108  pseudographic right-down
12116+AD7A 44 44
12117+AD7C 44 44 CC 00                      defb #44,#44,#CC,#00,#00,#00	; 109  pseudographic left-up
12117+AD80 00 00
12118+AD82 44 44 77 00                      defb #44,#44,#77,#00,#00,#00	; 110  pseudographic right-up
12118+AD86 00 00
12119+AD88 22 EE 44 EE                      defb #22,#EE,#44,#EE,#88,#00	; 111  <>
12119+AD8C 88 00
12120+AD8E 22 55 44 EE                      defb #22,#55,#44,#EE,#44,#FF	; 112  funt
12120+AD92 44 FF
12121+AD94 22 44 CC 44                      defb #22,#44,#CC,#44,#44,#22	; 113  {
12121+AD98 44 22
12122+AD9A 88 44 66 44                      defb #88,#44,#66,#44,#44,#88	; 114  }
12122+AD9E 44 88
12123+ADA0 66 AA AA EE                      defb #66,#AA,#AA,#EE,#AA,#AA	; 115  
12123+ADA4 AA AA
12124+ADA6 EE 88 CC AA                      defb #EE,#88,#CC,#AA,#AA,#CC	; 116  
12124+ADAA AA CC
12125+ADAC CC AA CC AA                      defb #CC,#AA,#CC,#AA,#AA,#CC	; 117  
12125+ADB0 AA CC
12126+ADB2 EE 88 88 88                      defb #EE,#88,#88,#88,#88,#88	; 118  
12126+ADB6 88 88
12127+ADB8 22 66 AA AA                      defb #22,#66,#AA,#AA,#AA,#FF	; 119  
12127+ADBC AA FF
12128+ADBE EE 88 CC 88                      defb #EE,#88,#CC,#88,#88,#EE	; 120  
12128+ADC2 88 EE
12129+ADC4 AA EE 44 EE                      defb #AA,#EE,#44,#EE,#EE,#AA	; 121  
12129+ADC8 EE AA
12130+ADCA CC 22 44 22                      defb #CC,#22,#44,#22,#22,#CC	; 122  
12130+ADCE 22 CC
12131+ADD0 AA AA AA EE                      defb #AA,#AA,#AA,#EE,#EE,#AA	; 123  
12131+ADD4 EE AA
12132+ADD6 44 AA AA EE                      defb #44,#AA,#AA,#EE,#EE,#AA	; 124  
12132+ADDA EE AA
12133+ADDC AA AA CC AA                      defb #AA,#AA,#CC,#AA,#AA,#AA	; 125  
12133+ADE0 AA AA
12134+ADE2 22 66 AA AA                      defb #22,#66,#AA,#AA,#AA,#AA	; 126  
12134+ADE6 AA AA
12135+ADE8 AA EE EE EE                      defb #AA,#EE,#EE,#EE,#AA,#AA	; 127  
12135+ADEC AA AA
12136+ADEE AA AA EE AA                      defb #AA,#AA,#EE,#AA,#AA,#AA	; 128  
12136+ADF2 AA AA
12137+ADF4 66 AA AA AA                      defb #66,#AA,#AA,#AA,#AA,#CC	; 129  
12137+ADF8 AA CC
12138+ADFA EE AA AA AA                      defb #EE,#AA,#AA,#AA,#AA,#AA	; 130  
12138+ADFE AA AA
12139+AE00 CC AA AA CC                      defb #CC,#AA,#AA,#CC,#88,#88	; 131  
12139+AE04 88 88
12140+AE06 44 AA 88 88                      defb #44,#AA,#88,#88,#AA,#44	; 132  
12140+AE0A AA 44
12141+AE0C EE 44 44 44                      defb #EE,#44,#44,#44,#44,#44	; 133  
12141+AE10 44 44
12142+AE12 AA AA AA 66                      defb #AA,#AA,#AA,#66,#22,#CC	; 134  
12142+AE16 22 CC
12143+AE18 44 EE EE EE                      defb #44,#EE,#EE,#EE,#44,#44	; 135  
12143+AE1C 44 44
12144+AE1E AA AA 44 AA                      defb #AA,#AA,#44,#AA,#AA,#AA	; 136  
12144+AE22 AA AA
12145+AE24 AA AA AA AA                      defb #AA,#AA,#AA,#AA,#AA,#FF	; 137  
12145+AE28 AA FF
12146+AE2A AA AA AA 66                      defb #AA,#AA,#AA,#66,#22,#22	; 138  
12146+AE2E 22 22
12147+AE30 AA AA EE EE                      defb #AA,#AA,#EE,#EE,#EE,#EE	; 139  
12147+AE34 EE EE
12148+AE36 AA AA EE EE                      defb #AA,#AA,#EE,#EE,#EE,#FF	; 140  
12148+AE3A EE FF
12149+AE3C CC 44 66 55                      defb #CC,#44,#66,#55,#55,#66	; 141  
12149+AE40 55 66
12150+AE42 99 99 DD BB                      defb #99,#99,#DD,#BB,#BB,#DD	; 142  
12150+AE46 BB DD
12151+AE48 88 88 CC AA                      defb #88,#88,#CC,#AA,#AA,#CC	; 143  
12151+AE4C AA CC
12152+AE4E CC 22 66 22                      defb #CC,#22,#66,#22,#22,#CC	; 144  
12152+AE52 22 CC
12153+AE54 AA DD DD DD                      defb #AA,#DD,#DD,#DD,#DD,#AA	; 145  
12153+AE58 DD AA
12154+AE5A 66 AA AA 66                      defb #66,#AA,#AA,#66,#AA,#AA	; 146  
12154+AE5E AA AA
12155+AE60
12156+AE60
12157+AE60
12158+AE60              ;      
12159+AE60
12160+AE60 00 40 00 41  table_addr_scr		defw	#4000,#4100,#4200,#4300,#4400,#4500,#4600,#4700
12160+AE64 00 42 00 43
12160+AE68 00 44 00 45
12160+AE6C 00 46 00 47
12161+AE70 20 40 20 41  			defw	#4020,#4120,#4220,#4320,#4420,#4520,#4620,#4720
12161+AE74 20 42 20 43
12161+AE78 20 44 20 45
12161+AE7C 20 46 20 47
12162+AE80 40 40 40 41  			defw	#4040,#4140,#4240,#4340,#4440,#4540,#4640,#4740
12162+AE84 40 42 40 43
12162+AE88 40 44 40 45
12162+AE8C 40 46 40 47
12163+AE90 60 40 60 41  			defw	#4060,#4160,#4260,#4360,#4460,#4560,#4660,#4760
12163+AE94 60 42 60 43
12163+AE98 60 44 60 45
12163+AE9C 60 46 60 47
12164+AEA0 80 40 80 41  			defw	#4080,#4180,#4280,#4380,#4480,#4580,#4680,#4780
12164+AEA4 80 42 80 43
12164+AEA8 80 44 80 45
12164+AEAC 80 46 80 47
12165+AEB0 A0 40 A0 41  			defw	#40a0,#41a0,#42a0,#43a0,#44a0,#45a0,#46a0,#47a0
12165+AEB4 A0 42 A0 43
12165+AEB8 A0 44 A0 45
12165+AEBC A0 46 A0 47
12166+AEC0 C0 40 C0 41  			defw	#40c0,#41c0,#42c0,#43c0,#44c0,#45c0,#46c0,#47c0
12166+AEC4 C0 42 C0 43
12166+AEC8 C0 44 C0 45
12166+AECC C0 46 C0 47
12167+AED0 E0 40 E0 41  			defw	#40e0,#41e0,#42e0,#43e0,#44e0,#45e0,#46e0,#47e0
12167+AED4 E0 42 E0 43
12167+AED8 E0 44 E0 45
12167+AEDC E0 46 E0 47
12168+AEE0
12169+AEE0 00 48 00 49  			defw	#4800,#4900,#4a00,#4b00,#4c00,#4d00,#4e00,#4f00
12169+AEE4 00 4A 00 4B
12169+AEE8 00 4C 00 4D
12169+AEEC 00 4E 00 4F
12170+AEF0 20 48 20 49  			defw	#4820,#4920,#4a20,#4b20,#4c20,#4d20,#4e20,#4f20
12170+AEF4 20 4A 20 4B
12170+AEF8 20 4C 20 4D
12170+AEFC 20 4E 20 4F
12171+AF00 40 48 40 49  			defw	#4840,#4940,#4a40,#4b40,#4c40,#4d40,#4e40,#4f40
12171+AF04 40 4A 40 4B
12171+AF08 40 4C 40 4D
12171+AF0C 40 4E 40 4F
12172+AF10 60 48 60 49  			defw	#4860,#4960,#4a60,#4b60,#4c60,#4d60,#4e60,#4f60
12172+AF14 60 4A 60 4B
12172+AF18 60 4C 60 4D
12172+AF1C 60 4E 60 4F
12173+AF20 80 48 80 49  			defw	#4880,#4980,#4a80,#4b80,#4c80,#4d80,#4e80,#4f80
12173+AF24 80 4A 80 4B
12173+AF28 80 4C 80 4D
12173+AF2C 80 4E 80 4F
12174+AF30 A0 48 A0 49  			defw	#48a0,#49a0,#4aa0,#4ba0,#4ca0,#4da0,#4ea0,#4fa0
12174+AF34 A0 4A A0 4B
12174+AF38 A0 4C A0 4D
12174+AF3C A0 4E A0 4F
12175+AF40 C0 48 C0 49  			defw	#48c0,#49c0,#4ac0,#4bc0,#4cc0,#4dc0,#4ec0,#4fc0
12175+AF44 C0 4A C0 4B
12175+AF48 C0 4C C0 4D
12175+AF4C C0 4E C0 4F
12176+AF50 E0 48 E0 49  			defw	#48e0,#49e0,#4ae0,#4be0,#4ce0,#4de0,#4ee0,#4fe0
12176+AF54 E0 4A E0 4B
12176+AF58 E0 4C E0 4D
12176+AF5C E0 4E E0 4F
12177+AF60
12178+AF60 00 50 00 51  			defw	#5000,#5100,#5200,#5300,#5400,#5500,#5600,#5700
12178+AF64 00 52 00 53
12178+AF68 00 54 00 55
12178+AF6C 00 56 00 57
12179+AF70 20 50 20 51  			defw	#5020,#5120,#5220,#5320,#5420,#5520,#5620,#5720
12179+AF74 20 52 20 53
12179+AF78 20 54 20 55
12179+AF7C 20 56 20 57
12180+AF80 40 50 40 51  			defw	#5040,#5140,#5240,#5340,#5440,#5540,#5640,#5740
12180+AF84 40 52 40 53
12180+AF88 40 54 40 55
12180+AF8C 40 56 40 57
12181+AF90 60 50 60 51  			defw	#5060,#5160,#5260,#5360,#5460,#5560,#5660,#5760
12181+AF94 60 52 60 53
12181+AF98 60 54 60 55
12181+AF9C 60 56 60 57
12182+AFA0 80 50 80 51  			defw	#5080,#5180,#5280,#5380,#5480,#5580,#5680,#5780
12182+AFA4 80 52 80 53
12182+AFA8 80 54 80 55
12182+AFAC 80 56 80 57
12183+AFB0 A0 50 A0 51  			defw	#50a0,#51a0,#52a0,#53a0,#54a0,#55a0,#56a0,#57a0
12183+AFB4 A0 52 A0 53
12183+AFB8 A0 54 A0 55
12183+AFBC A0 56 A0 57
12184+AFC0 C0 50 C0 51  			defw	#50c0,#51c0,#52c0,#53c0,#54c0,#55c0,#56c0,#57c0
12184+AFC4 C0 52 C0 53
12184+AFC8 C0 54 C0 55
12184+AFCC C0 56 C0 57
12185+AFD0 E0 50 E0 51  			defw	#50e0,#51e0,#52e0,#53e0,#54e0,#55e0,#56e0,#57e0
12185+AFD4 E0 52 E0 53
12185+AFD8 E0 54 E0 55
12185+AFDC E0 56 E0 57
12186+AFE0
12187+AFE0
12188+AFE0
12189+AFE0 05 00 00 00  string_number			defb	5,0,0,0,0,0				;    16- 
12189+AFE4 00 00
12190+AFE6 00 00        number_temp			defw	0					;  16- 
12191+AFE8 00 00        rnd				defw	0					;  
12192+AFEA
12193+AFEA
12194+AFEA
12195+AFEA 00 00        addr_arraybyte_index		defw	0					;      arraybyte
12196+AFEC 00 00        addr_arrayword_index		defw	0					;      arrayword
12197+AFEE 00 00        addr_arraystring_index		defw	0					;      arraystring
12198+AFF0 00 00        addr_arraybyte_index111		defw	0					;      arraybyte  
12199+AFF2 00 00        addr_arrayword_index111		defw	0					;      arrayword  
12200+AFF4
12201+AFF4
12202+AFF4
12203+AFF4 00           col_screen			defb	0					;  
12204+AFF5 00           row_screen			defb	0					;  
12205+AFF6 00           half_tile_screen		defb	0					;  (0=/1=)
12206+AFF7 38           attr_screen			defb	56					;  
12207+AFF8 00           attr_sprite			defb	0					;  
12208+AFF9
12209+AFF9 00 00        col_screen_temp			defw	0					;    
12210+AFFB 00           half_tile_screen_temp		defb	0					;  
12211+AFFC
12212+AFFC
12213+AFFC
12214+AFFC 00           col_window			defb	0					;  
12215+AFFD 00           row_window			defb	0					;  
12216+AFFE 00           width_window			defb	0					;  
12217+AFFF 00           height_window			defb	0					;  
12218+B000
12219+B000
12220+B000
12221+B000 00           code_key_1			defb	0					;    1
12222+B001 00           code_key_2			defb	0					;    2
12223+B002
12224+B002 20 10 4D 4E  table_code_key			defb	32,16,77,78,66				;      
12224+B006 42
12225+B007 0D 4C 4B 4A  				defb	13,76,75,74,72
12225+B00B 48
12226+B00C 50 4F 49 55  				defb	80,79,73,85,89
12226+B010 59
12227+B011 30 39 38 37  				defb	48,57,56,55,54
12227+B015 36
12228+B016 31 32 33 34  				defb	49,50,51,52,53
12228+B01A 35
12229+B01B 51 57 45 52  				defb	81,87,69,82,84
12229+B01F 54
12230+B020 41 53 44 46  				defb	65,83,68,70,71
12230+B024 47
12231+B025 11 5A 58 43  				defb	17,90,88,67,86
12231+B029 56
12232+B02A
12233+B02A
12234+B02A
12235+B02A 00 00        map_addr_array		defw	0
12236+B02C 00           map_xmax_array		defb	0
12237+B02D 00           map_ymax_array		defb	0
12238+B02E 00 00        map_addr_sprites	defw	0
12239+B030 00           map_xscr		defb	0
12240+B031 00           map_yscr		defb	0
12241+B032 00           map_width_scr		defb	0
12242+B033 00           map_height_scr		defb	0
12243+B034
12244+B034 00           map_x			defb	0
12245+B035 00           map_y			defb	0
12246+B036 00           map_xmin		defb	0
12247+B037 00           map_ymin		defb	0
12248+B038 00           map_xmax		defb	0
12249+B039 00           map_ymax		defb	0
12250+B03A 00           map_xlen		defb	0
12251+B03B 00           map_ylen		defb	0
12252+B03C 00 00        map_addr_curr		defw	0
12253+B03E 00           map_xscr_curr		defb	0
12254+B03F 00           map_yscr_curr		defb	0
12255+B040
12256+B040 00           map_id_elem		defb	0
12257+B041 00           map_distance_elem	defb	0
12258+B042 00 00        map_condition		defw	0
12259+B044 00           map_x_elem		defb	0
12260+B045 00           map_y_elem		defb	0
12261+B046 00           map_value_elem		defb	0
12262+B047 00           map_distance_curr	defb	0
12263+B048 00 00        map_addr_source		defw	0
12264+B04A
12265+B04A CD CC C4 DC  table_condition		defb	#cd,#cc,#c4,#dc,#d4
12265+B04E D4
12266+B04F
12267+B04F
12268+B04F
12269+B04F
12270+B04F 00           sound_loop		defb	0		;  
12271+B050 00           sound_freq		defb	0		; 
12272+B051 00           sound_time		defb	0		;  
12273+B052
12274+B052
12275+B052
12276+B052
12277+B052              ; ***** Library End *****
12278+B052
12279+B052
12280+B052              ; Variable Area
12281+B052 00           _X1	defb	0
12282+B053 00           _Y1	defb	0
12283+B054 00           _X2	defb	0
12284+B055 00           _Y2	defb	0
12285+B056 00           _COLOR1	defb	0
12286+B057 00           _COLOR2	defb	0
12287+B058 00           _COLOR3	defb	0
12288+B059 00           _COLOR4	defb	0
12289+B05A 00           _X	defb	0
12290+B05B 00           _Y	defb	0
12291+B05C 00           _I	defb	0
12292+B05D 00           _OVER	defb	0
12293+B05E 00           _A	defb	0
12294+B05F 00           _B	defb	0
12295+B060 00           _Z	defb	0
12296+B061 00           _COLORBLOCK	defb	0
12297+B062 00           _S	defb	0
12298+B063 00           _SEVENFLAG	defb	0
12299+B064 00           _LEVELOLD	defb	0
12300+B065 00           _LEVEL	defb	0
12301+B066 00           _COLORBOMB	defb	0
12302+B067 00           _KEY1	defb	0
12303+B068 00           _KEY2	defb	0
12304+B069 00 00        _SCORE	defw	0
12305+B06B 00 00        _BESTSCORE	defw	0
12306+B06D              _STARTMAP
12307+B06D 01 05 05 05  	defb	1,5,5,5,5,5,5,5,5,5,5,5,5,5,5,5,5,5,5,5,5,5,5,5,5,5,5,5,5,5,5,2
12307+B071 05 05 05 05
12307+B075 05 05 05 05
12307+B079 05 05 05 05
12307+B07D 05 05 05 05
12307+B081 05 05 05 05
12307+B085 05 05 05 05
12307+B089 05 05 05 02
12308+B08D 08 00 00 00  	defb	8,0,0,0,0,0,0,0,0,0,0,0,0,0,0,0,0,0,0,0,0,0,0,0,0,0,0,0,0,0,0,6
12308+B091 00 00 00 00
12308+B095 00 00 00 00
12308+B099 00 00 00 00
12308+B09D 00 00 00 00
12308+B0A1 00 00 00 00
12308+B0A5 00 00 00 00
12308+B0A9 00 00 00 06
12309+B0AD 08 00 00 00  	defb	8,0,0,0,0,0,0,0,0,0,0,0,0,0,0,0,0,0,0,0,0,0,0,0,0,0,0,0,0,0,0,6
12309+B0B1 00 00 00 00
12309+B0B5 00 00 00 00
12309+B0B9 00 00 00 00
12309+B0BD 00 00 00 00
12309+B0C1 00 00 00 00
12309+B0C5 00 00 00 00
12309+B0C9 00 00 00 06
12310+B0CD 08 00 00 00  	defb	8,0,0,0,0,0,0,0,0,0,0,0,0,0,0,0,0,0,0,0,0,0,0,0,0,0,0,0,0,0,0,6
12310+B0D1 00 00 00 00
12310+B0D5 00 00 00 00
12310+B0D9 00 00 00 00
12310+B0DD 00 00 00 00
12310+B0E1 00 00 00 00
12310+B0E5 00 00 00 00
12310+B0E9 00 00 00 06
12311+B0ED 08 00 00 00  	defb	8,0,0,0,0,0,0,0,0,0,0,0,0,0,0,0,0,0,0,0,0,0,0,0,0,0,0,0,0,0,0,6
12311+B0F1 00 00 00 00
12311+B0F5 00 00 00 00
12311+B0F9 00 00 00 00
12311+B0FD 00 00 00 00
12311+B101 00 00 00 00
12311+B105 00 00 00 00
12311+B109 00 00 00 06
12312+B10D 08 00 00 00  	defb	8,0,0,0,0,0,0,0,0,0,0,0,0,0,0,0,0,0,0,0,0,0,0,0,0,0,0,0,0,0,0,6
12312+B111 00 00 00 00
12312+B115 00 00 00 00
12312+B119 00 00 00 00
12312+B11D 00 00 00 00
12312+B121 00 00 00 00
12312+B125 00 00 00 00
12312+B129 00 00 00 06
12313+B12D 08 00 00 00  	defb	8,0,0,0,0,0,0,0,0,0,0,0,0,0,0,0,0,0,0,0,0,0,0,0,0,0,0,0,0,0,0,6
12313+B131 00 00 00 00
12313+B135 00 00 00 00
12313+B139 00 00 00 00
12313+B13D 00 00 00 00
12313+B141 00 00 00 00
12313+B145 00 00 00 00
12313+B149 00 00 00 06
12314+B14D 08 00 00 00  	defb	8,0,0,0,0,0,0,0,0,0,0,0,0,0,0,0,0,0,0,0,0,0,0,0,0,0,0,0,0,0,0,6
12314+B151 00 00 00 00
12314+B155 00 00 00 00
12314+B159 00 00 00 00
12314+B15D 00 00 00 00
12314+B161 00 00 00 00
12314+B165 00 00 00 00
12314+B169 00 00 00 06
12315+B16D 08 00 00 00  	defb	8,0,0,0,0,0,0,0,0,0,0,0,0,0,0,0,0,0,0,0,0,0,0,0,0,0,0,0,0,0,0,6
12315+B171 00 00 00 00
12315+B175 00 00 00 00
12315+B179 00 00 00 00
12315+B17D 00 00 00 00
12315+B181 00 00 00 00
12315+B185 00 00 00 00
12315+B189 00 00 00 06
12316+B18D 08 00 00 00  	defb	8,0,0,0,0,0,0,0,0,0,0,0,0,0,0,0,0,0,0,0,0,0,0,0,0,0,0,0,0,0,0,6
12316+B191 00 00 00 00
12316+B195 00 00 00 00
12316+B199 00 00 00 00
12316+B19D 00 00 00 00
12316+B1A1 00 00 00 00
12316+B1A5 00 00 00 00
12316+B1A9 00 00 00 06
12317+B1AD 08 00 00 00  	defb	8,0,0,0,0,0,0,0,0,0,0,0,0,0,0,0,0,0,0,0,0,0,0,0,0,0,0,0,0,0,0,6
12317+B1B1 00 00 00 00
12317+B1B5 00 00 00 00
12317+B1B9 00 00 00 00
12317+B1BD 00 00 00 00
12317+B1C1 00 00 00 00
12317+B1C5 00 00 00 00
12317+B1C9 00 00 00 06
12318+B1CD 08 00 00 00  	defb	8,0,0,0,0,0,0,0,0,0,0,0,0,0,0,0,0,0,0,0,0,0,0,0,0,0,0,0,0,0,0,6
12318+B1D1 00 00 00 00
12318+B1D5 00 00 00 00
12318+B1D9 00 00 00 00
12318+B1DD 00 00 00 00
12318+B1E1 00 00 00 00
12318+B1E5 00 00 00 00
12318+B1E9 00 00 00 06
12319+B1ED 08 00 00 00  	defb	8,0,0,0,0,0,0,0,0,0,0,0,0,0,0,0,0,0,0,0,0,0,0,0,0,0,0,0,0,0,0,6
12319+B1F1 00 00 00 00
12319+B1F5 00 00 00 00
12319+B1F9 00 00 00 00
12319+B1FD 00 00 00 00
12319+B201 00 00 00 00
12319+B205 00 00 00 00
12319+B209 00 00 00 06
12320+B20D 08 00 00 00  	defb	8,0,0,0,0,0,0,0,0,0,0,0,0,0,0,0,0,0,0,0,0,0,0,0,0,0,0,0,0,0,0,6
12320+B211 00 00 00 00
12320+B215 00 00 00 00
12320+B219 00 00 00 00
12320+B21D 00 00 00 00
12320+B221 00 00 00 00
12320+B225 00 00 00 00
12320+B229 00 00 00 06
12321+B22D 08 00 00 00  	defb	8,0,0,0,0,0,0,0,0,0,0,0,0,0,0,0,0,0,0,0,0,0,0,0,0,0,0,0,0,0,0,6
12321+B231 00 00 00 00
12321+B235 00 00 00 00
12321+B239 00 00 00 00
12321+B23D 00 00 00 00
12321+B241 00 00 00 00
12321+B245 00 00 00 00
12321+B249 00 00 00 06
12322+B24D 08 00 00 00  	defb	8,0,0,0,0,0,0,0,0,0,0,0,0,0,0,0,0,0,0,0,0,0,0,0,0,0,0,0,0,0,0,6
12322+B251 00 00 00 00
12322+B255 00 00 00 00
12322+B259 00 00 00 00
12322+B25D 00 00 00 00
12322+B261 00 00 00 00
12322+B265 00 00 00 00
12322+B269 00 00 00 06
12323+B26D 08 00 00 00  	defb	8,0,0,0,0,0,0,0,0,0,0,0,0,0,0,0,0,0,0,0,0,0,0,0,0,0,0,0,0,0,0,6
12323+B271 00 00 00 00
12323+B275 00 00 00 00
12323+B279 00 00 00 00
12323+B27D 00 00 00 00
12323+B281 00 00 00 00
12323+B285 00 00 00 00
12323+B289 00 00 00 06
12324+B28D 08 00 00 00  	defb	8,0,0,0,0,0,0,0,0,0,0,0,0,0,0,0,0,0,0,0,0,0,0,0,0,0,0,0,0,0,0,6
12324+B291 00 00 00 00
12324+B295 00 00 00 00
12324+B299 00 00 00 00
12324+B29D 00 00 00 00
12324+B2A1 00 00 00 00
12324+B2A5 00 00 00 00
12324+B2A9 00 00 00 06
12325+B2AD 08 00 00 00  	defb	8,0,0,0,0,0,0,0,0,0,0,0,0,0,0,0,0,0,0,0,0,0,0,0,0,0,0,0,0,0,0,6
12325+B2B1 00 00 00 00
12325+B2B5 00 00 00 00
12325+B2B9 00 00 00 00
12325+B2BD 00 00 00 00
12325+B2C1 00 00 00 00
12325+B2C5 00 00 00 00
12325+B2C9 00 00 00 06
12326+B2CD 08 00 00 00  	defb	8,0,0,0,0,0,0,0,0,0,0,0,0,0,0,0,0,0,0,0,0,0,0,0,0,0,0,0,0,0,0,6
12326+B2D1 00 00 00 00
12326+B2D5 00 00 00 00
12326+B2D9 00 00 00 00
12326+B2DD 00 00 00 00
12326+B2E1 00 00 00 00
12326+B2E5 00 00 00 00
12326+B2E9 00 00 00 06
12327+B2ED 08 00 00 00  	defb	8,0,0,0,0,0,0,0,0,0,0,0,0,0,0,0,0,0,0,0,0,0,0,0,0,0,0,0,0,0,0,6
12327+B2F1 00 00 00 00
12327+B2F5 00 00 00 00
12327+B2F9 00 00 00 00
12327+B2FD 00 00 00 00
12327+B301 00 00 00 00
12327+B305 00 00 00 00
12327+B309 00 00 00 06
12328+B30D 04 07 07 07  	defb	4,7,7,7,7,7,7,7,7,7,7,7,7,7,7,7,7,7,7,7,7,7,7,7,7,7,7,7,7,7,7,3
12328+B311 07 07 07 07
12328+B315 07 07 07 07
12328+B319 07 07 07 07
12328+B31D 07 07 07 07
12328+B321 07 07 07 07
12328+B325 07 07 07 07
12328+B329 07 07 07 03
12329+B32D              _MAP
12330+B32D 09 09 09 09  	defb	9,9,9,9,9,9,9,9,9,9,9,9,9,9,9,9,9,9,9,9
12330+B331 09 09 09 09
12330+B335 09 09 09 09
12330+B339 09 09 09 09
12330+B33D 09 09 09 09
12331+B341 09 00 00 00  	defb	9,0,0,0,0,0,0,0,0,0,0,0,0,0,0,0,0,0,0,9
12331+B345 00 00 00 00
12331+B349 00 00 00 00
12331+B34D 00 00 00 00
12331+B351 00 00 00 09
12332+B355 09 00 00 00  	defb	9,0,0,0,0,0,0,0,0,0,0,0,0,0,0,0,0,0,0,9
12332+B359 00 00 00 00
12332+B35D 00 00 00 00
12332+B361 00 00 00 00
12332+B365 00 00 00 09
12333+B369 09 00 00 00  	defb	9,0,0,0,0,0,0,0,0,0,0,0,0,0,0,0,0,0,0,9
12333+B36D 00 00 00 00
12333+B371 00 00 00 00
12333+B375 00 00 00 00
12333+B379 00 00 00 09
12334+B37D 09 00 00 00  	defb	9,0,0,0,0,0,0,0,0,0,0,0,0,0,0,0,0,0,0,9
12334+B381 00 00 00 00
12334+B385 00 00 00 00
12334+B389 00 00 00 00
12334+B38D 00 00 00 09
12335+B391 09 00 00 00  	defb	9,0,0,0,0,0,0,0,0,0,0,0,0,0,0,0,0,0,0,9
12335+B395 00 00 00 00
12335+B399 00 00 00 00
12335+B39D 00 00 00 00
12335+B3A1 00 00 00 09
12336+B3A5 09 00 00 00  	defb	9,0,0,0,0,0,0,0,0,0,0,0,0,0,0,0,0,0,0,9
12336+B3A9 00 00 00 00
12336+B3AD 00 00 00 00
12336+B3B1 00 00 00 00
12336+B3B5 00 00 00 09
12337+B3B9 09 00 00 00  	defb	9,0,0,0,0,0,0,0,0,0,0,0,0,0,0,0,0,0,0,9
12337+B3BD 00 00 00 00
12337+B3C1 00 00 00 00
12337+B3C5 00 00 00 00
12337+B3C9 00 00 00 09
12338+B3CD 09 00 00 00  	defb	9,0,0,0,0,0,0,0,0,0,0,0,0,0,0,0,0,0,0,9
12338+B3D1 00 00 00 00
12338+B3D5 00 00 00 00
12338+B3D9 00 00 00 00
12338+B3DD 00 00 00 09
12339+B3E1 09 00 00 00  	defb	9,0,0,0,0,0,0,0,0,0,0,0,0,0,0,0,0,0,0,9
12339+B3E5 00 00 00 00
12339+B3E9 00 00 00 00
12339+B3ED 00 00 00 00
12339+B3F1 00 00 00 09
12340+B3F5 09 00 00 00  	defb	9,0,0,0,0,0,0,0,0,0,0,0,0,0,0,0,0,0,0,9
12340+B3F9 00 00 00 00
12340+B3FD 00 00 00 00
12340+B401 00 00 00 00
12340+B405 00 00 00 09
12341+B409 09 00 00 00  	defb	9,0,0,0,0,0,0,0,0,0,0,0,0,0,0,0,0,0,0,9
12341+B40D 00 00 00 00
12341+B411 00 00 00 00
12341+B415 00 00 00 00
12341+B419 00 00 00 09
12342+B41D 09 00 00 00  	defb	9,0,0,0,0,0,0,0,0,0,0,0,0,0,0,0,0,0,0,9
12342+B421 00 00 00 00
12342+B425 00 00 00 00
12342+B429 00 00 00 00
12342+B42D 00 00 00 09
12343+B431 09 00 00 00  	defb	9,0,0,0,0,0,0,0,0,0,0,0,0,0,0,0,0,0,0,9
12343+B435 00 00 00 00
12343+B439 00 00 00 00
12343+B43D 00 00 00 00
12343+B441 00 00 00 09
12344+B445 09 00 00 00  	defb	9,0,0,0,0,0,0,0,0,0,0,0,0,0,0,0,0,0,0,9
12344+B449 00 00 00 00
12344+B44D 00 00 00 00
12344+B451 00 00 00 00
12344+B455 00 00 00 09
12345+B459 09 00 00 00  	defb	9,0,0,0,0,0,0,0,0,0,0,0,0,0,0,0,0,0,0,9
12345+B45D 00 00 00 00
12345+B461 00 00 00 00
12345+B465 00 00 00 00
12345+B469 00 00 00 09
12346+B46D 09 00 00 00  	defb	9,0,0,0,0,0,0,0,0,0,0,0,0,0,0,0,0,0,0,9
12346+B471 00 00 00 00
12346+B475 00 00 00 00
12346+B479 00 00 00 00
12346+B47D 00 00 00 09
12347+B481 09 00 00 00  	defb	9,0,0,0,0,0,0,0,0,0,0,0,0,0,0,0,0,0,0,9
12347+B485 00 00 00 00
12347+B489 00 00 00 00
12347+B48D 00 00 00 00
12347+B491 00 00 00 09
12348+B495 09 00 00 00  	defb	9,0,0,0,0,0,0,0,0,0,0,0,0,0,0,0,0,0,0,9
12348+B499 00 00 00 00
12348+B49D 00 00 00 00
12348+B4A1 00 00 00 00
12348+B4A5 00 00 00 09
12349+B4A9 09 09 09 09  	defb	9,9,9,9,9,9,9,9,9,9,9,9,9,9,9,9,9,9,9,9
12349+B4AD 09 09 09 09
12349+B4B1 09 09 09 09
12349+B4B5 09 09 09 09
12349+B4B9 09 09 09 09
12350+B4BD              _MAPBLOCK	dup	6*6
12351+B4BD 00          >	defb	0
12351+B4BE 00          >	defb	0
12351+B4BF 00          >	defb	0
12351+B4C0 00          >	defb	0
12351+B4C1 00          >	defb	0
12351+B4C2 00          >	defb	0
12351+B4C3 00          >	defb	0
12351+B4C4 00          >	defb	0
12351+B4C5 00          >	defb	0
12351+B4C6 00          >	defb	0
12351+B4C7 00          >	defb	0
12351+B4C8 00          >	defb	0
12351+B4C9 00          >	defb	0
12351+B4CA 00          >	defb	0
12351+B4CB 00          >	defb	0
12351+B4CC 00          >	defb	0
12351+B4CD 00          >	defb	0
12351+B4CE 00          >	defb	0
12351+B4CF 00          >	defb	0
12351+B4D0 00          >	defb	0
12351+B4D1 00          >	defb	0
12351+B4D2 00          >	defb	0
12351+B4D3 00          >	defb	0
12351+B4D4 00          >	defb	0
12351+B4D5 00          >	defb	0
12351+B4D6 00          >	defb	0
12351+B4D7 00          >	defb	0
12351+B4D8 00          >	defb	0
12351+B4D9 00          >	defb	0
12351+B4DA 00          >	defb	0
12351+B4DB 00          >	defb	0
12351+B4DC 00          >	defb	0
12351+B4DD 00          >	defb	0
12351+B4DE 00          >	defb	0
12351+B4DF 00          >	defb	0
12351+B4E0 00          >	defb	0
12352+B4E1              	edup
12353+B4E1              _MAPDELX	dup	6*6
12354+B4E1 00          >	defb	0
12354+B4E2 00          >	defb	0
12354+B4E3 00          >	defb	0
12354+B4E4 00          >	defb	0
12354+B4E5 00          >	defb	0
12354+B4E6 00          >	defb	0
12354+B4E7 00          >	defb	0
12354+B4E8 00          >	defb	0
12354+B4E9 00          >	defb	0
12354+B4EA 00          >	defb	0
12354+B4EB 00          >	defb	0
12354+B4EC 00          >	defb	0
12354+B4ED 00          >	defb	0
12354+B4EE 00          >	defb	0
12354+B4EF 00          >	defb	0
12354+B4F0 00          >	defb	0
12354+B4F1 00          >	defb	0
12354+B4F2 00          >	defb	0
12354+B4F3 00          >	defb	0
12354+B4F4 00          >	defb	0
12354+B4F5 00          >	defb	0
12354+B4F6 00          >	defb	0
12354+B4F7 00          >	defb	0
12354+B4F8 00          >	defb	0
12354+B4F9 00          >	defb	0
12354+B4FA 00          >	defb	0
12354+B4FB 00          >	defb	0
12354+B4FC 00          >	defb	0
12354+B4FD 00          >	defb	0
12354+B4FE 00          >	defb	0
12354+B4FF 00          >	defb	0
12354+B500 00          >	defb	0
12354+B501 00          >	defb	0
12354+B502 00          >	defb	0
12354+B503 00          >	defb	0
12354+B504 00          >	defb	0
12355+B505              	edup
12356+B505              _MAPDELY	dup	6*6
12357+B505 00          >	defb	0
12357+B506 00          >	defb	0
12357+B507 00          >	defb	0
12357+B508 00          >	defb	0
12357+B509 00          >	defb	0
12357+B50A 00          >	defb	0
12357+B50B 00          >	defb	0
12357+B50C 00          >	defb	0
12357+B50D 00          >	defb	0
12357+B50E 00          >	defb	0
12357+B50F 00          >	defb	0
12357+B510 00          >	defb	0
12357+B511 00          >	defb	0
12357+B512 00          >	defb	0
12357+B513 00          >	defb	0
12357+B514 00          >	defb	0
12357+B515 00          >	defb	0
12357+B516 00          >	defb	0
12357+B517 00          >	defb	0
12357+B518 00          >	defb	0
12357+B519 00          >	defb	0
12357+B51A 00          >	defb	0
12357+B51B 00          >	defb	0
12357+B51C 00          >	defb	0
12357+B51D 00          >	defb	0
12357+B51E 00          >	defb	0
12357+B51F 00          >	defb	0
12357+B520 00          >	defb	0
12357+B521 00          >	defb	0
12357+B522 00          >	defb	0
12357+B523 00          >	defb	0
12357+B524 00          >	defb	0
12357+B525 00          >	defb	0
12357+B526 00          >	defb	0
12357+B527 00          >	defb	0
12357+B528 00          >	defb	0
12358+B529              	edup
12359+B529              _MAPDEL	dup	6*6
12360+B529 00          >	defb	0
12360+B52A 00          >	defb	0
12360+B52B 00          >	defb	0
12360+B52C 00          >	defb	0
12360+B52D 00          >	defb	0
12360+B52E 00          >	defb	0
12360+B52F 00          >	defb	0
12360+B530 00          >	defb	0
12360+B531 00          >	defb	0
12360+B532 00          >	defb	0
12360+B533 00          >	defb	0
12360+B534 00          >	defb	0
12360+B535 00          >	defb	0
12360+B536 00          >	defb	0
12360+B537 00          >	defb	0
12360+B538 00          >	defb	0
12360+B539 00          >	defb	0
12360+B53A 00          >	defb	0
12360+B53B 00          >	defb	0
12360+B53C 00          >	defb	0
12360+B53D 00          >	defb	0
12360+B53E 00          >	defb	0
12360+B53F 00          >	defb	0
12360+B540 00          >	defb	0
12360+B541 00          >	defb	0
12360+B542 00          >	defb	0
12360+B543 00          >	defb	0
12360+B544 00          >	defb	0
12360+B545 00          >	defb	0
12360+B546 00          >	defb	0
12360+B547 00          >	defb	0
12360+B548 00          >	defb	0
12360+B549 00          >	defb	0
12360+B54A 00          >	defb	0
12360+B54B 00          >	defb	0
12360+B54C 00          >	defb	0
12361+B54D              	edup
12362+B54D 00           _L6	defb	0
12363+B54E 00           _L21	defb	0
12364+B54F 00           _L40	defb	0
12365+B550 00           _L57	defb	0
12366+B551 00           _L80	defb	0
12367+B552 00           _L97	defb	0
12368+B553 00           Lim_X	defb	0
12369+B554 00           Lim_Y	defb	0
12370+B555 00           _L121	defb	0
12371+B556 00           _L145	defb	0
12372+B557 00           _L162	defb	0
12373+B558 00           Lim_A	defb	0
12374+B559 00           Lim_B	defb	0
12375+B55A 00           _L321	defb	0
12376+B55B 00           _L351	defb	0
12377+B55C 00           _L406	defb	0
12378+B55D 00           Lim_I	defb	0
12379+B55E 00           _L487	defb	0
12380+B55F 00           Lim_Z	defb	0
12381+B560 00           _L536	defb	0
12382+B561 00           _L585	defb	0
12383+B562 00           _L634	defb	0
12384+B563 00           _L677	defb	0
12385+B564
12386+B564
12387+B564              ; String constants
12388+B564 25           _STR0	defb	37
12389+B565 84 81 74 7B  	defb	132,129,116,123,131,115,124,133,120,32,129,119,123,128,115,125,129,117,142,120,32,144,126,120,127,120,128,133,142,32,117,32,126,123,128,123,123
12389+B569 83 73 7C 85
12389+B56D 78 20 81 77
12389+B571 7B 80 73 7D
12389+B575 81 75 8E 78
12389+B579 20 90 7E 78
12389+B57D 7F 78 80 85
12389+B581 8E 20 75 20
12389+B585 7E 7B 80 7B
12389+B589 7B
12390+B58A
12391+B58A 1F           _STR1	defb	31
12392+B58B 7B 20 81 85  	defb	123,32,129,133,125,131,129,120,133,132,146,32,117,115,127,32,132,120,119,143,127,129,124,32,144,126,120,127,120,128,133
12392+B58F 7D 83 81 78
12392+B593 85 84 92 20
12392+B597 75 73 7F 20
12392+B59B 84 78 77 8F
12392+B59F 7F 81 7C 20
12392+B5A3 90 7E 78 7F
12392+B5A7 78 80 85
12393+B5AA
12394+B5AA 18           _STR2	defb	24
12395+B5AB 80 81 20 74  	defb	128,129,32,116,134,119,133,120,32,129,132,133,129,131,129,121,128,142,32,132,32,128,123,127
12395+B5AF 86 77 85 78
12395+B5B3 20 81 84 85
12395+B5B7 81 83 81 79
12395+B5BB 80 8E 20 84
12395+B5BF 20 80 7B 7F
12396+B5C3
12397+B5C3 1E           _STR3	defb	30
12398+B5C4 86 82 83 73  	defb	134,130,131,115,117,126,120,128,123,120,58,32,67,85,82,83,79,82,32,123,126,123,32,81,44,65,44,79,44,80
12398+B5C8 75 7E 78 80
12398+B5CC 7B 78 3A 20
12398+B5D0 43 55 52 53
12398+B5D4 4F 52 20 7B
12398+B5D8 7E 7B 20 51
12398+B5DC 2C 41 2C 4F
12398+B5E0 2C 50
12399+B5E2
12400+B5E2 1A           _STR4	defb	26
12401+B5E3 73 75 85 81  	defb	115,117,133,129,131,58,32,131,129,127,115,128,32,132,125,129,131,123,125,32,32,32,50,48,50,50
12401+B5E7 83 3A 20 83
12401+B5EB 81 7F 73 80
12401+B5EF 20 84 7D 81
12401+B5F3 83 7B 7D 20
12401+B5F7 20 20 32 30
12401+B5FB 32 32
12402+B5FD
12403+B5FD 04           _STR5	defb	4
12404+B5FE 30 30 30 30  	defb	48,48,48,48
12405+B602
12406+B602
12407+B602
12408+B602
12409+B602
12410+B602 76           HALT:	halt
12411+B603 C9           		ret
12412+B604
12413+B604              IM2INIT:
12414+B604 AF                   xor a
12415+B605 6F                   ld l,a
12416+B606 3E D7                ld a,0+((LastAddr+255)>>8)
12417+B608 ED 47                ld i,a
12418+B60A 67                   ld h,a
12419+B60B 57                   ld d,a
12420+B60C 5D                   ld e,l
12421+B60D 1C                   inc e
12422+B60E 01 00 01             ld bc,256
12423+B611 3C                   inc a
12424+B612 77                   ld (hl),a
12425+B613 ED B0                ldir
12426+B615 67                   ld h,a
12427+B616 6F                   ld l,a
12428+B617 36 C3                ld (hl),0c3h
12429+B619 11 24 B6             ld de,Im2Go
12430+B61C 23                   inc hl
12431+B61D 73                   ld (hl),e
12432+B61E 23                   inc hl
12433+B61F 72                   ld (hl),d
12434+B620 ED 5E                im 2
12435+B622 FB                   ei
12436+B623 C9                   ret
12437+B624              Im2Go
12438+B624 F5                   push af
12439+B625 E5                   push hl
12440+B626 D5                   push de
12441+B627 C5                   push bc
12442+B628 08                   ex af,af'
12443+B629 D9                   exx
12444+B62A F5                   push af
12445+B62B E5                   push hl
12446+B62C D5                   push de
12447+B62D C5                   push bc
12448+B62E DD E5                push ix
12449+B630 FD E5                push iy
12450+B632 CD 05 BB             call 0xBB05
12451+B635 21 49 B6             ld hl,FrameCounter
12452+B638 34                   inc (hl)
12453+B639 FD E1                pop iy
12454+B63B DD E1                pop ix
12455+B63D C1                   pop bc
12456+B63E D1                   pop de
12457+B63F E1                   pop hl
12458+B640 F1                   pop af
12459+B641 08                   ex af,af'
12460+B642 D9                   exx
12461+B643 C1                   pop bc
12462+B644 D1                   pop de
12463+B645 E1                   pop hl
12464+B646 F1                   pop af
12465+B647 FB                   ei
12466+B648 C9                   ret
12467+B649              FrameCounter
12468+B649 C9                   defb 0c9h
12469+B64A
12470+B64A
12471+B64A F3           MUSOFF:	di
12472+B64B 3E 3F        		ld a,63
12473+B64D ED 47        		ld i,a
12474+B64F ED 56        		im 1
12475+B651 FB           		ei
12476+B652 CD 00 BB     		call 0xBB00
12477+B655 C9           		ret
12478+B656
12479+B656
12480+B656              MUSLOAD:
12481+B656              	org 0xBB00
12482+BB00              	inchob "music.$c"
12483+C611 C9           	ret
12484+C612
12485+C612              SPRBLOCK1:
12486+C612 09           	DEFB 9
12487+C613 00 00 00 3F      DEFB 0,0, $00,$3F,$7F,$73,$6D,$6D,$71,$7E
12487+C617 7F 73 6D 6D
12487+C61B 71 7E
12488+C61D 00 01 00 FF      DEFB 0,1, $00,$FF,$FF,$FF,$99,$FF,$FF,$FF
12488+C621 FF FF 99 FF
12488+C625 FF FF
12489+C627 00 02 00 FC      DEFB 0,2, $00,$FC,$FE,$CE,$B6,$B6,$8E,$7E
12489+C62B FE CE B6 B6
12489+C62F 8E 7E
12490+C631 01 00 7F 77      DEFB 1,0, $7F,$77,$77,$7F,$7F,$77,$77,$7F
12490+C635 77 7F 7F 77
12490+C639 77 7F
12491+C63B 01 01 42 BD      DEFB 1,1, $42,$BD,$7E,$66,$66,$7E,$BD,$42
12491+C63F 7E 66 66 7E
12491+C643 BD 42
12492+C645 01 02 FE EE      DEFB 1,2, $FE,$EE,$EE,$FE,$FE,$EE,$EE,$FE
12492+C649 EE FE FE EE
12492+C64D EE FE
12493+C64F 02 00 7E 71      DEFB 2,0, $7E,$71,$6D,$6D,$73,$7F,$3F,$00
12493+C653 6D 6D 73 7F
12493+C657 3F 00
12494+C659 02 01 FF FF      DEFB 2,1, $FF,$FF,$FF,$99,$FF,$FF,$FF,$00
12494+C65D FF 99 FF FF
12494+C661 FF 00
12495+C663 02 02 7E 8E      DEFB 2,2, $7E,$8E,$B6,$B6,$CE,$FE,$FC,$00
12495+C667 B6 B6 CE FE
12495+C66B FC 00
12496+C66D
12497+C66D              SPRBLOCK2:
12498+C66D 09               DEFB 9
12499+C66E 00 00 00 3F      DEFB 0,0, $00,$3F,$7F,$73,$6D,$6C,$73,$7B
12499+C672 7F 73 6D 6C
12499+C676 73 7B
12500+C678 00 01 00 FF      DEFB 0,1, $00,$FF,$FF,$FF,$55,$AA,$FF,$FF
12500+C67C FF FF 55 AA
12500+C680 FF FF
12501+C682 00 02 00 FC      DEFB 0,2, $00,$FC,$FE,$CE,$36,$B6,$CE,$DE
12501+C686 FE CE 36 B6
12501+C68A CE DE
12502+C68C 01 00 77 7B      DEFB 1,0, $77,$7B,$77,$7B,$77,$7B,$77,$7B
12502+C690 77 7B 77 7B
12502+C694 77 7B
12503+C696 01 01 C3 BD      DEFB 1,1, $C3,$BD,$66,$5A,$5A,$66,$BD,$C3
12503+C69A 66 5A 5A 66
12503+C69E BD C3
12504+C6A0 01 02 EE DE      DEFB 1,2, $EE,$DE,$EE,$DE,$EE,$DE,$EE,$DE
12504+C6A4 EE DE EE DE
12504+C6A8 EE DE
12505+C6AA 02 00 77 73      DEFB 2,0, $77,$73,$6C,$6D,$73,$7F,$3F,$00
12505+C6AE 6C 6D 73 7F
12505+C6B2 3F 00
12506+C6B4 02 01 FF FF      DEFB 2,1, $FF,$FF,$AA,$55,$FF,$FF,$FF,$00
12506+C6B8 AA 55 FF FF
12506+C6BC FF 00
12507+C6BE 02 02 EE CE      DEFB 2,2, $EE,$CE,$B6,$36,$CE,$FE,$FC,$00
12507+C6C2 B6 36 CE FE
12507+C6C6 FC 00
12508+C6C8
12509+C6C8              SPRBLOCK3:
12510+C6C8 09               DEFB 9
12511+C6C9 00 00 00 3F      DEFB 0,0, $00,$3F,$7F,$73,$6D,$6C,$73,$7A
12511+C6CD 7F 73 6D 6C
12511+C6D1 73 7A
12512+C6D3 00 01 00 FF      DEFB 0,1, $00,$FF,$FF,$FF,$FF,$18,$DB,$DB
12512+C6D7 FF FF FF 18
12512+C6DB DB DB
12513+C6DD 00 02 00 FC      DEFB 0,2, $00,$FC,$FE,$CE,$B6,$36,$CE,$5E
12513+C6E1 FE CE B6 36
12513+C6E5 CE 5E
12514+C6E7 01 00 7B 7B      DEFB 1,0, $7B,$7B,$78,$7F,$7F,$78,$7B,$7B
12514+C6EB 78 7F 7F 78
12514+C6EF 7B 7B
12515+C6F1 01 01 C3 BD      DEFB 1,1, $C3,$BD,$7E,$66,$66,$7E,$BD,$C3
12515+C6F5 7E 66 66 7E
12515+C6F9 BD C3
12516+C6FB 01 02 DE DE      DEFB 1,2, $DE,$DE,$1E,$FE,$FE,$1E,$DE,$DE
12516+C6FF 1E FE FE 1E
12516+C703 DE DE
12517+C705 02 00 7A 73      DEFB 2,0, $7A,$73,$6C,$6D,$73,$7F,$3F,$00
12517+C709 6C 6D 73 7F
12517+C70D 3F 00
12518+C70F 02 01 DB DB      DEFB 2,1, $DB,$DB,$18,$FF,$FF,$FF,$FF,$00
12518+C713 18 FF FF FF
12518+C717 FF 00
12519+C719 02 02 5E CE      DEFB 2,2, $5E,$CE,$36,$B6,$CE,$FE,$FC,$00
12519+C71D 36 B6 CE FE
12519+C721 FC 00
12520+C723
12521+C723              SPRBLOCK4:
12522+C723 09               DEFB 9
12523+C724 00 00 00 3F      DEFB 0,0, $00,$3F,$7F,$72,$6D,$6C,$73,$6B
12523+C728 7F 72 6D 6C
12523+C72C 73 6B
12524+C72E 00 01 00 FF      DEFB 0,1, $00,$FF,$FF,$00,$FF,$FF,$7E,$BD
12524+C732 FF 00 FF FF
12524+C736 7E BD
12525+C738 00 02 00 FC      DEFB 0,2, $00,$FC,$FE,$4E,$B6,$36,$CE,$D6
12525+C73C FE 4E B6 36
12525+C740 CE D6
12526+C742 01 00 6D 6E      DEFB 1,0, $6D,$6E,$6F,$6F,$6F,$6F,$6E,$6D
12526+C746 6F 6F 6F 6F
12526+C74A 6E 6D
12527+C74C 01 01 C3 BD      DEFB 1,1, $C3,$BD,$5A,$7E,$7E,$5A,$BD,$C3
12527+C750 5A 7E 7E 5A
12527+C754 BD C3
12528+C756 01 02 B6 76      DEFB 1,2, $B6,$76,$F6,$F6,$F6,$F6,$76,$B6
12528+C75A F6 F6 F6 F6
12528+C75E 76 B6
12529+C760 02 00 6B 73      DEFB 2,0, $6B,$73,$6C,$6D,$72,$7F,$3F,$00
12529+C764 6C 6D 72 7F
12529+C768 3F 00
12530+C76A 02 01 BD 7E      DEFB 2,1, $BD,$7E,$FF,$FF,$00,$FF,$FF,$00
12530+C76E FF FF 00 FF
12530+C772 FF 00
12531+C774 02 02 D6 CE      DEFB 2,2, $D6,$CE,$36,$B6,$4E,$FE,$FC,$00
12531+C778 36 B6 4E FE
12531+C77C FC 00
12532+C77E
12533+C77E              SPRBLOCK5:
12534+C77E 09               DEFB 9
12535+C77F 00 00 00 3F      DEFB 0,0, $00,$3F,$7F,$73,$6D,$6C,$73,$7B
12535+C783 7F 73 6D 6C
12535+C787 73 7B
12536+C789 00 01 00 FF      DEFB 0,1, $00,$FF,$FF,$FF,$E7,$18,$E7,$FF
12536+C78D FF FF E7 18
12536+C791 E7 FF
12537+C793 00 02 00 FC      DEFB 0,2, $00,$FC,$FE,$CE,$B6,$36,$CE,$DE
12537+C797 FE CE B6 36
12537+C79B CE DE
12538+C79D 01 00 7B 7B      DEFB 1,0, $7B,$7B,$7B,$75,$75,$7B,$7B,$7B
12538+C7A1 7B 75 75 7B
12538+C7A5 7B 7B
12539+C7A7 01 01 C3 BD      DEFB 1,1, $C3,$BD,$7E,$66,$66,$7E,$BD,$C3
12539+C7AB 7E 66 66 7E
12539+C7AF BD C3
12540+C7B1 01 02 DE DE      DEFB 1,2, $DE,$DE,$DE,$AE,$AE,$DE,$DE,$DE
12540+C7B5 DE AE AE DE
12540+C7B9 DE DE
12541+C7BB 02 00 7B 73      DEFB 2,0, $7B,$73,$6C,$6D,$73,$7F,$3F,$00
12541+C7BF 6C 6D 73 7F
12541+C7C3 3F 00
12542+C7C5 02 01 FF E7      DEFB 2,1, $FF,$E7,$18,$E7,$FF,$FF,$FF,$00
12542+C7C9 18 E7 FF FF
12542+C7CD FF 00
12543+C7CF 02 02 DE CE      DEFB 2,2, $DE,$CE,$36,$B6,$CE,$FE,$FC,$00
12543+C7D3 36 B6 CE FE
12543+C7D7 FC 00
12544+C7D9
12545+C7D9              SPRBLOCK6:
12546+C7D9 09               DEFB 9
12547+C7DA 00 00 00 3F      DEFB 0,0, $00,$3F,$7F,$72,$6D,$6D,$73,$6E
12547+C7DE 7F 72 6D 6D
12547+C7E2 73 6E
12548+C7E4 00 01 00 FF      DEFB 0,1, $00,$FF,$FF,$3C,$BD,$BD,$BD,$BD
12548+C7E8 FF 3C BD BD
12548+C7EC BD BD
12549+C7EE 00 02 00 FC      DEFB 0,2, $00,$FC,$FE,$4E,$B6,$B6,$CE,$76
12549+C7F2 FE 4E B6 B6
12549+C7F6 CE 76
12550+C7F8 01 00 6F 60      DEFB 1,0, $6F,$60,$7F,$7F,$7F,$7F,$60,$6F
12550+C7FC 7F 7F 7F 7F
12550+C800 60 6F
12551+C802 01 01 C3 BD      DEFB 1,1, $C3,$BD,$42,$5A,$5A,$42,$BD,$C3
12551+C806 42 5A 5A 42
12551+C80A BD C3
12552+C80C 01 02 F6 06      DEFB 1,2, $F6,$06,$FE,$FE,$FE,$FE,$06,$F6
12552+C810 FE FE FE FE
12552+C814 06 F6
12553+C816 02 00 6E 73      DEFB 2,0, $6E,$73,$6D,$6D,$72,$7F,$3F,$00
12553+C81A 6D 6D 72 7F
12553+C81E 3F 00
12554+C820 02 01 BD BD      DEFB 2,1, $BD,$BD,$BD,$BD,$3C,$FF,$FF,$00
12554+C824 BD BD 3C FF
12554+C828 FF 00
12555+C82A 02 02 76 CE      DEFB 2,2, $76,$CE,$B6,$B6,$4E,$FE,$FC,$00
12555+C82E B6 B6 4E FE
12555+C832 FC 00
12556+C834
12557+C834              SPRBLOCK7:
12558+C834 09               DEFB 9
12559+C835 00 00 00 3F      DEFB 0,0, $00,$3F,$7F,$73,$6D,$6D,$72,$7D
12559+C839 7F 73 6D 6D
12559+C83D 72 7D
12560+C83F 00 01 00 FF      DEFB 0,1, $00,$FF,$FF,$24,$FF,$E7,$FF,$3C
12560+C843 FF 24 FF E7
12560+C847 FF 3C
12561+C849 00 02 00 FC      DEFB 0,2, $00,$FC,$FE,$CE,$B6,$B6,$4E,$BE
12561+C84D FE CE B6 B6
12561+C851 4E BE
12562+C853 01 00 6E 6E      DEFB 1,0, $6E,$6E,$7F,$6B,$6B,$7F,$6E,$6E
12562+C857 7F 6B 6B 7F
12562+C85B 6E 6E
12563+C85D 01 01 C3 BD      DEFB 1,1, $C3,$BD,$5A,$7E,$7E,$5A,$BD,$C3
12563+C861 5A 7E 7E 5A
12563+C865 BD C3
12564+C867 01 02 76 76      DEFB 1,2, $76,$76,$FE,$D6,$D6,$FE,$76,$76
12564+C86B FE D6 D6 FE
12564+C86F 76 76
12565+C871 02 00 7D 72      DEFB 2,0, $7D,$72,$6D,$6D,$73,$7F,$3F,$00
12565+C875 6D 6D 73 7F
12565+C879 3F 00
12566+C87B 02 01 3C FF      DEFB 2,1, $3C,$FF,$E7,$FF,$24,$FF,$FF,$00
12566+C87F E7 FF 24 FF
12566+C883 FF 00
12567+C885 02 02 BE 4E      DEFB 2,2, $BE,$4E,$B6,$B6,$CE,$FE,$FC,$00
12567+C889 B6 B6 CE FE
12567+C88D FC 00
12568+C88F
12569+C88F              SPRCLR:
12570+C88F 09           	DEFB 9
12571+C890 00 00 00 00      DEFB 0,0, $00,$00,$00,$00,$00,$00,$00,$00
12571+C894 00 00 00 00
12571+C898 00 00
12572+C89A 00 01 00 00      DEFB 0,1, $00,$00,$00,$00,$00,$00,$00,$00
12572+C89E 00 00 00 00
12572+C8A2 00 00
12573+C8A4 00 02 00 00      DEFB 0,2, $00,$00,$00,$00,$00,$00,$00,$00
12573+C8A8 00 00 00 00
12573+C8AC 00 00
12574+C8AE 01 00 00 00      DEFB 1,0, $00,$00,$00,$00,$00,$00,$00,$00
12574+C8B2 00 00 00 00
12574+C8B6 00 00
12575+C8B8 01 01 00 00      DEFB 1,1, $00,$00,$00,$00,$00,$00,$00,$00
12575+C8BC 00 00 00 00
12575+C8C0 00 00
12576+C8C2 01 02 00 00      DEFB 1,2, $00,$00,$00,$00,$00,$00,$00,$00
12576+C8C6 00 00 00 00
12576+C8CA 00 00
12577+C8CC 02 00 00 00      DEFB 2,0, $00,$00,$00,$00,$00,$00,$00,$00
12577+C8D0 00 00 00 00
12577+C8D4 00 00
12578+C8D6 02 01 00 00      DEFB 2,1, $00,$00,$00,$00,$00,$00,$00,$00
12578+C8DA 00 00 00 00
12578+C8DE 00 00
12579+C8E0 02 02 00 00      DEFB 2,2, $00,$00,$00,$00,$00,$00,$00,$00
12579+C8E4 00 00 00 00
12579+C8E8 00 00
12580+C8EA
12581+C8EA              SPRBOMB1:
12582+C8EA 09               DEFB 9
12583+C8EB 00 00 00 00      DEFB 0,0, $00,$00,$00,$00,$03,$07,$0F,$0F
12583+C8EF 00 00 03 07
12583+C8F3 0F 0F
12584+C8F5 00 01 00 00      DEFB 0,1, $00,$00,$00,$C0,$E0,$F3,$F7,$F7
12584+C8F9 00 C0 E0 F3
12584+C8FD F7 F7
12585+C8FF 00 02 00 00      DEFB 0,2, $00,$00,$00,$00,$00,$80,$C0,$E0
12585+C903 00 00 00 80
12585+C907 C0 E0
12586+C909 01 00 0F 07      DEFB 1,0, $0F,$07,$03,$00,$00,$03,$07,$07
12586+C90D 03 00 00 03
12586+C911 07 07
12587+C913 01 01 FF FF      DEFB 1,1, $FF,$FF,$FF,$FF,$FF,$FF,$FF,$FF
12587+C917 FF FF FF FF
12587+C91B FF FF
12588+C91D 01 02 E0 E0      DEFB 1,2, $E0,$E0,$C0,$00,$E0,$F0,$F0,$F0
12588+C921 C0 00 E0 F0
12588+C925 F0 F0
12589+C927 02 00 07 03      DEFB 2,0, $07,$03,$01,$00,$00,$00,$00,$00
12589+C92B 01 00 00 00
12589+C92F 00 00
12590+C931 02 01 EF EF      DEFB 2,1, $EF,$EF,$CF,$07,$01,$00,$00,$00
12590+C935 CF 07 01 00
12590+C939 00 00
12591+C93B 02 02 F0 F0      DEFB 2,2, $F0,$F0,$E0,$C0,$80,$00,$00,$00
12591+C93F E0 C0 80 00
12591+C943 00 00
12592+C945
12593+C945              SPRBOMB2:
12594+C945 09               DEFB 9
12595+C946 00 00 00 03      DEFB 0,0, $00,$03,$0F,$3F,$3F,$7F,$7F,$7F
12595+C94A 0F 3F 3F 7F
12595+C94E 7F 7F
12596+C950 00 01 00 00      DEFB 0,1, $00,$00,$80,$C0,$E3,$F7,$F7,$FF
12596+C954 80 C0 E3 F7
12596+C958 F7 FF
12597+C95A 00 02 00 00      DEFB 0,2, $00,$00,$30,$F8,$FC,$FC,$FE,$FE
12597+C95E 30 F8 FC FC
12597+C962 FE FE
12598+C964 01 00 3F 1F      DEFB 1,0, $3F,$1F,$07,$03,$07,$0F,$1F,$1F
12598+C968 07 03 07 0F
12598+C96C 1F 1F
12599+C96E 01 01 FF FF      DEFB 1,1, $FF,$FF,$FF,$FF,$FF,$FF,$FF,$FF
12599+C972 FF FF FF FF
12599+C976 FF FF
12600+C978 01 02 FC F8      DEFB 1,2, $FC,$F8,$F0,$E0,$E0,$F0,$F8,$FC
12600+C97C F0 E0 E0 F0
12600+C980 F8 FC
12601+C982 02 00 1F 1F      DEFB 2,0, $1F,$1F,$1F,$0F,$07,$00,$00,$00
12601+C986 1F 0F 07 00
12601+C98A 00 00
12602+C98C 02 01 FF EF      DEFB 2,1, $FF,$EF,$EF,$C7,$87,$03,$00,$00
12602+C990 EF C7 87 03
12602+C994 00 00
12603+C996 02 02 FE FE      DEFB 2,2, $FE,$FE,$FE,$FC,$FC,$F8,$F0,$00
12603+C99A FE FC FC F8
12603+C99E F0 00
12604+C9A0
12605+C9A0              SPRBOMB3:
12606+C9A0 09               DEFB 9
12607+C9A1 00 00 1E 3F      DEFB 0,0, $1E,$3F,$7F,$7F,$7F,$FF,$FF,$FF
12607+C9A5 7F 7F 7F FF
12607+C9A9 FF FF
12608+C9AB 00 01 01 03      DEFB 0,1, $01,$03,$87,$CF,$EF,$E7,$F7,$F7
12608+C9AF 87 CF EF E7
12608+C9B3 F7 F7
12609+C9B5 00 02 FC FE      DEFB 0,2, $FC,$FE,$FF,$FF,$FF,$FF,$FF,$FF
12609+C9B9 FF FF FF FF
12609+C9BD FF FF
12610+C9BF 01 00 FF 7F      DEFB 1,0, $FF,$7F,$37,$00,$07,$0F,$1F,$3F
12610+C9C3 37 00 07 0F
12610+C9C7 1F 3F
12611+C9C9 01 01 E7 03      DEFB 1,1, $E7,$03,$00,$01,$E1,$F3,$F3,$FF
12611+C9CD 00 01 E1 F3
12611+C9D1 F3 FF
12612+C9D3 01 02 FC F8      DEFB 1,2, $FC,$F8,$F0,$E0,$E0,$FC,$FE,$FF
12612+C9D7 F0 E0 E0 FC
12612+C9DB FE FF
12613+C9DD 02 00 7F 7F      DEFB 2,0, $7F,$7F,$FF,$FF,$FF,$7F,$3F,$00
12613+C9E1 FF FF FF 7F
12613+C9E5 3F 00
12614+C9E7 02 01 EF EF      DEFB 2,1, $EF,$EF,$EF,$C7,$C7,$C3,$80,$00
12614+C9EB EF C7 C7 C3
12614+C9EF 80 00
12615+C9F1 02 02 FF FF      DEFB 2,2, $FF,$FF,$FF,$FF,$FE,$F8,$F0,$00
12615+C9F5 FF FF FE F8
12615+C9F9 F0 00
12616+C9FB
12617+C9FB              SPRBOMB4:
12618+C9FB 09               DEFB 9
12619+C9FC 00 00 3E 7F      DEFB 0,0, $3E,$7F,$FF,$FF,$FF,$7F,$3F,$1F
12619+CA00 FF FF FF 7F
12619+CA04 3F 1F
12620+CA06 00 01 00 00      DEFB 0,1, $00,$00,$00,$00,$00,$01,$81,$C3
12620+CA0A 00 00 00 01
12620+CA0E 81 C3
12621+CA10 00 02 3C 7E      DEFB 0,2, $3C,$7E,$FF,$FF,$FF,$FF,$FE,$FC
12621+CA14 FF FF FF FF
12621+CA18 FE FC
12622+CA1A 01 00 07 01      DEFB 1,0, $07,$01,$00,$00,$00,$00,$00,$01
12622+CA1E 00 00 00 00
12622+CA22 00 01
12623+CA24 01 01 C7 82      DEFB 1,1, $C7,$82,$00,$00,$00,$01,$63,$E1
12623+CA28 00 00 00 01
12623+CA2C 63 E1
12624+CA2E 01 02 30 00      DEFB 1,2, $30,$00,$00,$00,$00,$80,$C0,$F0
12624+CA32 00 00 00 80
12624+CA36 C0 F0
12625+CA38 02 00 0F 1F      DEFB 2,0, $0F,$1F,$3F,$3F,$FF,$FF,$7F,$3C
12625+CA3C 3F 3F FF FF
12625+CA40 7F 3C
12626+CA42 02 01 C1 C1      DEFB 2,1, $C1,$C1,$C0,$C0,$80,$00,$00,$00
12626+CA46 C0 C0 80 00
12626+CA4A 00 00
12627+CA4C 02 02 FF FF      DEFB 2,2, $FF,$FF,$FF,$FF,$FF,$7E,$7E,$38
12627+CA50 FF FF FF 7E
12627+CA54 7E 38
12628+CA56
12629+CA56              SPRLEVEL1:
12630+CA56 18               DEFB 24
12631+CA57 00 00 80 3F      DEFB 0,0, $80,$3F,$40,$40,$40,$40,$40,$40
12631+CA5B 40 40 40 40
12631+CA5F 40 40
12632+CA61 00 01 00 FF      DEFB 0,1, $00,$FF,$00,$00,$63,$62,$22,$36
12632+CA65 00 00 63 62
12632+CA69 22 36
12633+CA6B 00 02 00 FF      DEFB 0,2, $00,$FF,$00,$00,$17,$18,$1A,$18
12633+CA6F 00 00 17 18
12633+CA73 1A 18
12634+CA75 00 03 00 FF      DEFB 0,3, $00,$FF,$00,$00,$01,$82,$86,$86
12634+CA79 00 00 01 82
12634+CA7D 86 86
12635+CA7F 00 04 00 FF      DEFB 0,4, $00,$FF,$00,$00,$C0,$20,$30,$B0
12635+CA83 00 00 C0 20
12635+CA87 30 B0
12636+CA89 00 05 00 FF      DEFB 0,5, $00,$FF,$00,$00,$70,$88,$88,$F8
12636+CA8D 00 00 70 88
12636+CA91 88 F8
12637+CA93 00 06 00 FF      DEFB 0,6, $00,$FF,$00,$00,$0E,$11,$30,$34
12637+CA97 00 00 0E 11
12637+CA9B 30 34
12638+CA9D 00 07 00 FF      DEFB 0,7, $00,$FF,$00,$00,$0C,$0C,$0C,$0D
12638+CAA1 00 00 0C 0C
12638+CAA5 0C 0D
12639+CAA7 00 08 00 FF      DEFB 0,8, $00,$FF,$00,$00,$61,$61,$61,$61
12639+CAAB 00 00 61 61
12639+CAAF 61 61
12640+CAB1 00 09 00 FF      DEFB 0,9, $00,$FF,$00,$00,$00,$00,$00,$70
12640+CAB5 00 00 00 00
12640+CAB9 00 70
12641+CABB 00 0A 00 FF      DEFB 0,10, $00,$FF,$00,$00,$06,$16,$36,$06
12641+CABF 00 00 06 16
12641+CAC3 36 06
12642+CAC5 00 0B 01 FC      DEFB 0,11, $01,$FC,$02,$02,$02,$02,$02,$02
12642+CAC9 02 02 02 02
12642+CACD 02 02
12643+CACF 01 00 40 40      DEFB 1,0, $40,$40,$40,$40,$40,$40,$3F,$80
12643+CAD3 40 40 40 40
12643+CAD7 3F 80
12644+CAD9 01 01 14 0C      DEFB 1,1, $14,$0C,$08,$38,$00,$00,$FF,$00
12644+CADD 08 38 00 00
12644+CAE1 FF 00
12645+CAE3 01 02 17 10      DEFB 1,2, $17,$10,$10,$10,$00,$00,$FF,$00
12645+CAE7 10 10 00 00
12645+CAEB FF 00
12646+CAED 01 03 06 06      DEFB 1,3, $06,$06,$02,$01,$00,$00,$FF,$00
12646+CAF1 02 01 00 00
12646+CAF5 FF 00
12647+CAF7 01 04 B0 30      DEFB 1,4, $B0,$30,$20,$C0,$00,$00,$FF,$00
12647+CAFB 20 C0 00 00
12647+CAFF FF 00
12648+CB01 01 05 C4 C4      DEFB 1,5, $C4,$C4,$C4,$F8,$00,$00,$FF,$00
12648+CB05 C4 F8 00 00
12648+CB09 FF 00
12649+CB0B 01 06 34 30      DEFB 1,6, $34,$30,$11,$0E,$00,$00,$FF,$00
12649+CB0F 11 0E 00 00
12649+CB13 FF 00
12650+CB15 01 07 0D 0C      DEFB 1,7, $0D,$0C,$0C,$0C,$00,$00,$FF,$00
12650+CB19 0C 0C 00 00
12650+CB1D FF 00
12651+CB1F 01 08 61 61      DEFB 1,8, $61,$61,$61,$61,$00,$00,$FF,$00
12651+CB23 61 61 00 00
12651+CB27 FF 00
12652+CB29 01 09 88 A8      DEFB 1,9, $88,$A8,$88,$70,$00,$00,$FF,$00
12652+CB2D 88 70 00 00
12652+CB31 FF 00
12653+CB33 01 0A 06 06      DEFB 1,10, $06,$06,$06,$06,$00,$00,$FF,$00
12653+CB37 06 06 00 00
12653+CB3B FF 00
12654+CB3D 01 0B 02 02      DEFB 1,11, $02,$02,$02,$02,$02,$02,$FC,$01
12654+CB41 02 02 02 02
12654+CB45 FC 01
12655+CB47
12656+CB47              SPRLEVEL2:
12657+CB47 18               DEFB 24
12658+CB48 00 00 80 3F      DEFB 0,0, $80,$3F,$40,$40,$40,$40,$40,$40
12658+CB4C 40 40 40 40
12658+CB50 40 40
12659+CB52 00 01 00 FF      DEFB 0,1, $00,$FF,$00,$00,$63,$62,$22,$36
12659+CB56 00 00 63 62
12659+CB5A 22 36
12660+CB5C 00 02 00 FF      DEFB 0,2, $00,$FF,$00,$00,$17,$18,$1A,$18
12660+CB60 00 00 17 18
12660+CB64 1A 18
12661+CB66 00 03 00 FF      DEFB 0,3, $00,$FF,$00,$00,$01,$82,$86,$86
12661+CB6A 00 00 01 82
12661+CB6E 86 86
12662+CB70 00 04 00 FF      DEFB 0,4, $00,$FF,$00,$00,$C0,$20,$30,$B0
12662+CB74 00 00 C0 20
12662+CB78 30 B0
12663+CB7A 00 05 00 FF      DEFB 0,5, $00,$FF,$00,$00,$70,$88,$88,$F8
12663+CB7E 00 00 70 88
12663+CB82 88 F8
12664+CB84 00 06 00 FF      DEFB 0,6, $00,$FF,$00,$00,$0E,$11,$30,$34
12664+CB88 00 00 0E 11
12664+CB8C 30 34
12665+CB8E 00 07 00 FF      DEFB 0,7, $00,$FF,$00,$00,$0C,$0C,$0C,$0D
12665+CB92 00 00 0C 0C
12665+CB96 0C 0D
12666+CB98 00 08 00 FF      DEFB 0,8, $00,$FF,$00,$00,$61,$61,$61,$61
12666+CB9C 00 00 61 61
12666+CBA0 61 61
12667+CBA2 00 09 00 FF      DEFB 0,9, $00,$FF,$00,$00,$00,$00,$00,$70
12667+CBA6 00 00 00 00
12667+CBAA 00 70
12668+CBAC 00 0A 00 FF      DEFB 0,10, $00,$FF,$00,$00,$14,$66,$66,$06
12668+CBB0 00 00 14 66
12668+CBB4 66 06
12669+CBB6 00 0B 01 FC      DEFB 0,11, $01,$FC,$02,$02,$02,$02,$02,$02
12669+CBBA 02 02 02 02
12669+CBBE 02 02
12670+CBC0 01 00 40 40      DEFB 1,0, $40,$40,$40,$40,$40,$40,$3F,$80
12670+CBC4 40 40 40 40
12670+CBC8 3F 80
12671+CBCA 01 01 14 0C      DEFB 1,1, $14,$0C,$08,$38,$00,$00,$FF,$00
12671+CBCE 08 38 00 00
12671+CBD2 FF 00
12672+CBD4 01 02 17 10      DEFB 1,2, $17,$10,$10,$10,$00,$00,$FF,$00
12672+CBD8 10 10 00 00
12672+CBDC FF 00
12673+CBDE 01 03 06 06      DEFB 1,3, $06,$06,$02,$01,$00,$00,$FF,$00
12673+CBE2 02 01 00 00
12673+CBE6 FF 00
12674+CBE8 01 04 B0 30      DEFB 1,4, $B0,$30,$20,$C0,$00,$00,$FF,$00
12674+CBEC 20 C0 00 00
12674+CBF0 FF 00
12675+CBF2 01 05 C4 C4      DEFB 1,5, $C4,$C4,$C4,$F8,$00,$00,$FF,$00
12675+CBF6 C4 F8 00 00
12675+CBFA FF 00
12676+CBFC 01 06 34 30      DEFB 1,6, $34,$30,$11,$0E,$00,$00,$FF,$00
12676+CC00 11 0E 00 00
12676+CC04 FF 00
12677+CC06 01 07 0D 0C      DEFB 1,7, $0D,$0C,$0C,$0C,$00,$00,$FF,$00
12677+CC0A 0C 0C 00 00
12677+CC0E FF 00
12678+CC10 01 08 61 61      DEFB 1,8, $61,$61,$61,$61,$00,$00,$FF,$00
12678+CC14 61 61 00 00
12678+CC18 FF 00
12679+CC1A 01 09 88 A8      DEFB 1,9, $88,$A8,$88,$70,$00,$00,$FF,$00
12679+CC1E 88 70 00 00
12679+CC22 FF 00
12680+CC24 01 0A 04 08      DEFB 1,10, $04,$08,$30,$76,$00,$00,$FF,$00
12680+CC28 30 76 00 00
12680+CC2C FF 00
12681+CC2E 01 0B 02 02      DEFB 1,11, $02,$02,$02,$02,$02,$02,$FC,$01
12681+CC32 02 02 02 02
12681+CC36 FC 01
12682+CC38
12683+CC38              SPRLEVEL3:
12684+CC38 18               DEFB 24
12685+CC39 00 00 80 3F      DEFB 0,0, $80,$3F,$40,$40,$40,$40,$40,$40
12685+CC3D 40 40 40 40
12685+CC41 40 40
12686+CC43 00 01 00 FF      DEFB 0,1, $00,$FF,$00,$00,$63,$62,$22,$36
12686+CC47 00 00 63 62
12686+CC4B 22 36
12687+CC4D 00 02 00 FF      DEFB 0,2, $00,$FF,$00,$00,$17,$18,$1A,$18
12687+CC51 00 00 17 18
12687+CC55 1A 18
12688+CC57 00 03 00 FF      DEFB 0,3, $00,$FF,$00,$00,$01,$82,$86,$86
12688+CC5B 00 00 01 82
12688+CC5F 86 86
12689+CC61 00 04 00 FF      DEFB 0,4, $00,$FF,$00,$00,$C0,$20,$30,$B0
12689+CC65 00 00 C0 20
12689+CC69 30 B0
12690+CC6B 00 05 00 FF      DEFB 0,5, $00,$FF,$00,$00,$70,$88,$88,$F8
12690+CC6F 00 00 70 88
12690+CC73 88 F8
12691+CC75 00 06 00 FF      DEFB 0,6, $00,$FF,$00,$00,$0E,$11,$30,$34
12691+CC79 00 00 0E 11
12691+CC7D 30 34
12692+CC7F 00 07 00 FF      DEFB 0,7, $00,$FF,$00,$00,$0C,$0C,$0C,$0D
12692+CC83 00 00 0C 0C
12692+CC87 0C 0D
12693+CC89 00 08 00 FF      DEFB 0,8, $00,$FF,$00,$00,$61,$61,$61,$61
12693+CC8D 00 00 61 61
12693+CC91 61 61
12694+CC93 00 09 00 FF      DEFB 0,9, $00,$FF,$00,$00,$00,$00,$00,$70
12694+CC97 00 00 00 00
12694+CC9B 00 70
12695+CC9D 00 0A 00 FF      DEFB 0,10, $00,$FF,$00,$00,$3C,$46,$46,$14
12695+CCA1 00 00 3C 46
12695+CCA5 46 14
12696+CCA7 00 0B 01 FC      DEFB 0,11, $01,$FC,$02,$02,$02,$02,$02,$02
12696+CCAB 02 02 02 02
12696+CCAF 02 02
12697+CCB1 01 00 40 40      DEFB 1,0, $40,$40,$40,$40,$40,$40,$3F,$80
12697+CCB5 40 40 40 40
12697+CCB9 3F 80
12698+CCBB 01 01 14 0C      DEFB 1,1, $14,$0C,$08,$38,$00,$00,$FF,$00
12698+CCBF 08 38 00 00
12698+CCC3 FF 00
12699+CCC5 01 02 17 10      DEFB 1,2, $17,$10,$10,$10,$00,$00,$FF,$00
12699+CCC9 10 10 00 00
12699+CCCD FF 00
12700+CCCF 01 03 06 06      DEFB 1,3, $06,$06,$02,$01,$00,$00,$FF,$00
12700+CCD3 02 01 00 00
12700+CCD7 FF 00
12701+CCD9 01 04 B0 30      DEFB 1,4, $B0,$30,$20,$C0,$00,$00,$FF,$00
12701+CCDD 20 C0 00 00
12701+CCE1 FF 00
12702+CCE3 01 05 C4 C4      DEFB 1,5, $C4,$C4,$C4,$F8,$00,$00,$FF,$00
12702+CCE7 C4 F8 00 00
12702+CCEB FF 00
12703+CCED 01 06 34 30      DEFB 1,6, $34,$30,$11,$0E,$00,$00,$FF,$00
12703+CCF1 11 0E 00 00
12703+CCF5 FF 00
12704+CCF7 01 07 0D 0C      DEFB 1,7, $0D,$0C,$0C,$0C,$00,$00,$FF,$00
12704+CCFB 0C 0C 00 00
12704+CCFF FF 00
12705+CD01 01 08 61 61      DEFB 1,8, $61,$61,$61,$61,$00,$00,$FF,$00
12705+CD05 61 61 00 00
12705+CD09 FF 00
12706+CD0B 01 09 88 A8      DEFB 1,9, $88,$A8,$88,$70,$00,$00,$FF,$00
12706+CD0F 88 70 00 00
12706+CD13 FF 00
12707+CD15 01 0A 14 46      DEFB 1,10, $14,$46,$46,$3C,$00,$00,$FF,$00
12707+CD19 46 3C 00 00
12707+CD1D FF 00
12708+CD1F 01 0B 02 02      DEFB 1,11, $02,$02,$02,$02,$02,$02,$FC,$01
12708+CD23 02 02 02 02
12708+CD27 FC 01
12709+CD29
12710+CD29              SPRLEVEL4:
12711+CD29 18               DEFB 24
12712+CD2A 00 00 80 3F      DEFB 0,0, $80,$3F,$40,$40,$40,$40,$40,$40
12712+CD2E 40 40 40 40
12712+CD32 40 40
12713+CD34 00 01 00 FF      DEFB 0,1, $00,$FF,$00,$00,$63,$62,$22,$36
12713+CD38 00 00 63 62
12713+CD3C 22 36
12714+CD3E 00 02 00 FF      DEFB 0,2, $00,$FF,$00,$00,$17,$18,$1A,$18
12714+CD42 00 00 17 18
12714+CD46 1A 18
12715+CD48 00 03 00 FF      DEFB 0,3, $00,$FF,$00,$00,$01,$82,$86,$86
12715+CD4C 00 00 01 82
12715+CD50 86 86
12716+CD52 00 04 00 FF      DEFB 0,4, $00,$FF,$00,$00,$C0,$20,$30,$B0
12716+CD56 00 00 C0 20
12716+CD5A 30 B0
12717+CD5C 00 05 00 FF      DEFB 0,5, $00,$FF,$00,$00,$70,$88,$88,$F8
12717+CD60 00 00 70 88
12717+CD64 88 F8
12718+CD66 00 06 00 FF      DEFB 0,6, $00,$FF,$00,$00,$0E,$11,$30,$34
12718+CD6A 00 00 0E 11
12718+CD6E 30 34
12719+CD70 00 07 00 FF      DEFB 0,7, $00,$FF,$00,$00,$0C,$0C,$0C,$0D
12719+CD74 00 00 0C 0C
12719+CD78 0C 0D
12720+CD7A 00 08 00 FF      DEFB 0,8, $00,$FF,$00,$00,$61,$61,$61,$61
12720+CD7E 00 00 61 61
12720+CD82 61 61
12721+CD84 00 09 00 FF      DEFB 0,9, $00,$FF,$00,$00,$00,$00,$00,$70
12721+CD88 00 00 00 00
12721+CD8C 00 70
12722+CD8E 00 0A 00 FF      DEFB 0,10, $00,$FF,$00,$00,$46,$46,$46,$26
12722+CD92 00 00 46 46
12722+CD96 46 26
12723+CD98 00 0B 01 FC      DEFB 0,11, $01,$FC,$02,$02,$02,$02,$02,$02
12723+CD9C 02 02 02 02
12723+CDA0 02 02
12724+CDA2 01 00 40 40      DEFB 1,0, $40,$40,$40,$40,$40,$40,$3F,$80
12724+CDA6 40 40 40 40
12724+CDAA 3F 80
12725+CDAC 01 01 14 0C      DEFB 1,1, $14,$0C,$08,$38,$00,$00,$FF,$00
12725+CDB0 08 38 00 00
12725+CDB4 FF 00
12726+CDB6 01 02 17 10      DEFB 1,2, $17,$10,$10,$10,$00,$00,$FF,$00
12726+CDBA 10 10 00 00
12726+CDBE FF 00
12727+CDC0 01 03 06 06      DEFB 1,3, $06,$06,$02,$01,$00,$00,$FF,$00
12727+CDC4 02 01 00 00
12727+CDC8 FF 00
12728+CDCA 01 04 B0 30      DEFB 1,4, $B0,$30,$20,$C0,$00,$00,$FF,$00
12728+CDCE 20 C0 00 00
12728+CDD2 FF 00
12729+CDD4 01 05 C4 C4      DEFB 1,5, $C4,$C4,$C4,$F8,$00,$00,$FF,$00
12729+CDD8 C4 F8 00 00
12729+CDDC FF 00
12730+CDDE 01 06 34 30      DEFB 1,6, $34,$30,$11,$0E,$00,$00,$FF,$00
12730+CDE2 11 0E 00 00
12730+CDE6 FF 00
12731+CDE8 01 07 0D 0C      DEFB 1,7, $0D,$0C,$0C,$0C,$00,$00,$FF,$00
12731+CDEC 0C 0C 00 00
12731+CDF0 FF 00
12732+CDF2 01 08 61 61      DEFB 1,8, $61,$61,$61,$61,$00,$00,$FF,$00
12732+CDF6 61 61 00 00
12732+CDFA FF 00
12733+CDFC 01 09 88 A8      DEFB 1,9, $88,$A8,$88,$70,$00,$00,$FF,$00
12733+CE00 88 70 00 00
12733+CE04 FF 00
12734+CE06 01 0A 16 06      DEFB 1,10, $16,$06,$06,$06,$00,$00,$FF,$00
12734+CE0A 06 06 00 00
12734+CE0E FF 00
12735+CE10 01 0B 02 02      DEFB 1,11, $02,$02,$02,$02,$02,$02,$FC,$01
12735+CE14 02 02 02 02
12735+CE18 FC 01
12736+CE1A
12737+CE1A              SPRLEVEL5:
12738+CE1A 18               DEFB 24
12739+CE1B 00 00 80 3F      DEFB 0,0, $80,$3F,$40,$40,$40,$40,$40,$40
12739+CE1F 40 40 40 40
12739+CE23 40 40
12740+CE25 00 01 00 FF      DEFB 0,1, $00,$FF,$00,$00,$63,$62,$22,$36
12740+CE29 00 00 63 62
12740+CE2D 22 36
12741+CE2F 00 02 00 FF      DEFB 0,2, $00,$FF,$00,$00,$17,$18,$1A,$18
12741+CE33 00 00 17 18
12741+CE37 1A 18
12742+CE39 00 03 00 FF      DEFB 0,3, $00,$FF,$00,$00,$01,$82,$86,$86
12742+CE3D 00 00 01 82
12742+CE41 86 86
12743+CE43 00 04 00 FF      DEFB 0,4, $00,$FF,$00,$00,$C0,$20,$30,$B0
12743+CE47 00 00 C0 20
12743+CE4B 30 B0
12744+CE4D 00 05 00 FF      DEFB 0,5, $00,$FF,$00,$00,$70,$88,$88,$F8
12744+CE51 00 00 70 88
12744+CE55 88 F8
12745+CE57 00 06 00 FF      DEFB 0,6, $00,$FF,$00,$00,$0E,$11,$30,$34
12745+CE5B 00 00 0E 11
12745+CE5F 30 34
12746+CE61 00 07 00 FF      DEFB 0,7, $00,$FF,$00,$00,$0C,$0C,$0C,$0D
12746+CE65 00 00 0C 0C
12746+CE69 0C 0D
12747+CE6B 00 08 00 FF      DEFB 0,8, $00,$FF,$00,$00,$61,$61,$61,$61
12747+CE6F 00 00 61 61
12747+CE73 61 61
12748+CE75 00 09 00 FF      DEFB 0,9, $00,$FF,$00,$00,$00,$00,$00,$70
12748+CE79 00 00 00 00
12748+CE7D 00 70
12749+CE7F 00 0A 00 FF      DEFB 0,10, $00,$FF,$00,$00,$3C,$60,$60,$38
12749+CE83 00 00 3C 60
12749+CE87 60 38
12750+CE89 00 0B 01 FC      DEFB 0,11, $01,$FC,$02,$02,$02,$02,$02,$02
12750+CE8D 02 02 02 02
12750+CE91 02 02
12751+CE93 01 00 40 40      DEFB 1,0, $40,$40,$40,$40,$40,$40,$3F,$80
12751+CE97 40 40 40 40
12751+CE9B 3F 80
12752+CE9D 01 01 14 0C      DEFB 1,1, $14,$0C,$08,$38,$00,$00,$FF,$00
12752+CEA1 08 38 00 00
12752+CEA5 FF 00
12753+CEA7 01 02 17 10      DEFB 1,2, $17,$10,$10,$10,$00,$00,$FF,$00
12753+CEAB 10 10 00 00
12753+CEAF FF 00
12754+CEB1 01 03 06 06      DEFB 1,3, $06,$06,$02,$01,$00,$00,$FF,$00
12754+CEB5 02 01 00 00
12754+CEB9 FF 00
12755+CEBB 01 04 B0 30      DEFB 1,4, $B0,$30,$20,$C0,$00,$00,$FF,$00
12755+CEBF 20 C0 00 00
12755+CEC3 FF 00
12756+CEC5 01 05 C4 C4      DEFB 1,5, $C4,$C4,$C4,$F8,$00,$00,$FF,$00
12756+CEC9 C4 F8 00 00
12756+CECD FF 00
12757+CECF 01 06 34 30      DEFB 1,6, $34,$30,$11,$0E,$00,$00,$FF,$00
12757+CED3 11 0E 00 00
12757+CED7 FF 00
12758+CED9 01 07 0D 0C      DEFB 1,7, $0D,$0C,$0C,$0C,$00,$00,$FF,$00
12758+CEDD 0C 0C 00 00
12758+CEE1 FF 00
12759+CEE3 01 08 61 61      DEFB 1,8, $61,$61,$61,$61,$00,$00,$FF,$00
12759+CEE7 61 61 00 00
12759+CEEB FF 00
12760+CEED 01 09 88 A8      DEFB 1,9, $88,$A8,$88,$70,$00,$00,$FF,$00
12760+CEF1 88 70 00 00
12760+CEF5 FF 00
12761+CEF7 01 0A 04 16      DEFB 1,10, $04,$16,$44,$38,$00,$00,$FF,$00
12761+CEFB 44 38 00 00
12761+CEFF FF 00
12762+CF01 01 0B 02 02      DEFB 1,11, $02,$02,$02,$02,$02,$02,$FC,$01
12762+CF05 02 02 02 02
12762+CF09 FC 01
12763+CF0B
12764+CF0B              SPRLEVEL6:
12765+CF0B 38               DEFB 56
12766+CF0C 00 00 80 3F      DEFB 0,0, $80,$3F,$40,$40,$40,$40,$40,$40
12766+CF10 40 40 40 40
12766+CF14 40 40
12767+CF16 00 01 00 FF      DEFB 0,1, $00,$FF,$00,$00,$00,$00,$00,$00
12767+CF1A 00 00 00 00
12767+CF1E 00 00
12768+CF20 00 02 00 FF      DEFB 0,2, $00,$FF,$00,$00,$00,$00,$00,$00
12768+CF24 00 00 00 00
12768+CF28 00 00
12769+CF2A 00 03 00 FF      DEFB 0,3, $00,$FF,$00,$00,$00,$00,$00,$00
12769+CF2E 00 00 00 00
12769+CF32 00 00
12770+CF34 00 04 00 FF      DEFB 0,4, $00,$FF,$00,$00,$00,$00,$0C,$12
12770+CF38 00 00 00 00
12770+CF3C 0C 12
12771+CF3E 00 05 00 FF      DEFB 0,5, $00,$FF,$00,$00,$00,$00,$7E,$5A
12771+CF42 00 00 00 00
12771+CF46 7E 5A
12772+CF48 00 06 00 FF      DEFB 0,6, $00,$FF,$00,$00,$00,$00,$CD,$CD
12772+CF4C 00 00 00 00
12772+CF50 CD CD
12773+CF52 00 07 00 FF      DEFB 0,7, $00,$FF,$00,$00,$00,$00,$E3,$93
12773+CF56 00 00 00 00
12773+CF5A E3 93
12774+CF5C 00 08 00 FF      DEFB 0,8, $00,$FF,$00,$00,$00,$00,$06,$06
12774+CF60 00 00 00 00
12774+CF64 06 06
12775+CF66 00 09 00 FF      DEFB 0,9, $00,$FF,$00,$00,$00,$00,$FC,$B4
12775+CF6A 00 00 00 00
12775+CF6E FC B4
12776+CF70 00 0A 00 FF      DEFB 0,10, $00,$FF,$00,$00,$00,$00,$00,$00
12776+CF74 00 00 00 00
12776+CF78 00 00
12777+CF7A 00 0B 00 FF      DEFB 0,11, $00,$FF,$00,$00,$00,$00,$00,$00
12777+CF7E 00 00 00 00
12777+CF82 00 00
12778+CF84 00 0C 00 FF      DEFB 0,12, $00,$FF,$00,$00,$00,$00,$00,$00
12778+CF88 00 00 00 00
12778+CF8C 00 00
12779+CF8E 00 0D 01 FC      DEFB 0,13, $01,$FC,$02,$02,$02,$02,$02,$02
12779+CF92 02 02 02 02
12779+CF96 02 02
12780+CF98 01 00 40 40      DEFB 1,0, $40,$40,$40,$40,$40,$40,$40,$40
12780+CF9C 40 40 40 40
12780+CFA0 40 40
12781+CFA2 01 01 00 00      DEFB 1,1, $00,$00,$00,$00,$00,$00,$00,$00
12781+CFA6 00 00 00 00
12781+CFAA 00 00
12782+CFAC 01 02 00 00      DEFB 1,2, $00,$00,$00,$00,$00,$00,$00,$00
12782+CFB0 00 00 00 00
12782+CFB4 00 00
12783+CFB6 01 03 00 00      DEFB 1,3, $00,$00,$00,$00,$00,$00,$00,$00
12783+CFBA 00 00 00 00
12783+CFBE 00 00
12784+CFC0 01 04 33 33      DEFB 1,4, $33,$33,$33,$33,$12,$0C,$00,$00
12784+CFC4 33 33 12 0C
12784+CFC8 00 00
12785+CFCA 01 05 18 18      DEFB 1,5, $18,$18,$18,$18,$18,$18,$00,$00
12785+CFCE 18 18 18 18
12785+CFD2 00 00
12786+CFD4 01 06 C9 F1      DEFB 1,6, $C9,$F1,$F1,$D9,$CD,$CD,$00,$00
12786+CFD8 F1 D9 CD CD
12786+CFDC 00 00
12787+CFDE 01 07 9B 93      DEFB 1,7, $9B,$93,$E3,$83,$83,$83,$00,$00
12787+CFE2 E3 83 83 83
12787+CFE6 00 00
12788+CFE8 01 08 06 C6      DEFB 1,8, $06,$C6,$26,$36,$26,$C6,$00,$00
12788+CFEC 26 36 26 C6
12788+CFF0 00 00
12789+CFF2 01 09 30 30      DEFB 1,9, $30,$30,$30,$30,$30,$30,$00,$00
12789+CFF6 30 30 30 30
12789+CFFA 00 00
12790+CFFC 01 0A 00 00      DEFB 1,10, $00,$00,$00,$00,$00,$00,$00,$00
12790+D000 00 00 00 00
12790+D004 00 00
12791+D006 01 0B 00 00      DEFB 1,11, $00,$00,$00,$00,$00,$00,$00,$00
12791+D00A 00 00 00 00
12791+D00E 00 00
12792+D010 01 0C 00 00      DEFB 1,12, $00,$00,$00,$00,$00,$00,$00,$00
12792+D014 00 00 00 00
12792+D018 00 00
12793+D01A 01 0D 02 02      DEFB 1,13, $02,$02,$02,$02,$02,$02,$02,$02
12793+D01E 02 02 02 02
12793+D022 02 02
12794+D024 02 00 40 40      DEFB 2,0, $40,$40,$41,$42,$46,$46,$46,$46
12794+D028 41 42 46 46
12794+D02C 46 46
12795+D02E 02 01 00 00      DEFB 2,1, $00,$00,$8F,$4C,$6C,$0D,$0D,$6C
12795+D032 8F 4C 6C 0D
12795+D036 0D 6C
12796+D038 02 02 00 00      DEFB 2,2, $00,$00,$DC,$5E,$1A,$1B,$19,$19
12796+D03C DC 5E 1A 1B
12796+D040 19 19
12797+D042 02 03 00 00      DEFB 2,3, $00,$00,$30,$30,$30,$3C,$32,$B3
12797+D046 30 30 30 3C
12797+D04A 32 B3
12798+D04C 02 04 00 00      DEFB 2,4, $00,$00,$63,$77,$6B,$6B,$63,$63
12798+D050 63 77 6B 6B
12798+D054 63 63
12799+D056 02 05 00 00      DEFB 2,5, $00,$00,$18,$24,$66,$66,$66,$66
12799+D05A 18 24 66 66
12799+D05E 66 66
12800+D060 02 06 30 00      DEFB 2,6, $30,$00,$CC,$CC,$CC,$DC,$EC,$CC
12800+D064 CC CC CC DC
12800+D068 EC CC
12801+D06A 02 07 00 00      DEFB 2,7, $00,$00,$1C,$32,$23,$0B,$0B,$23
12801+D06E 1C 32 23 0B
12801+D072 0B 23
12802+D074 02 08 00 00      DEFB 2,8, $00,$00,$0E,$0E,$1E,$16,$36,$26
12802+D078 0E 0E 1E 16
12802+D07C 36 26
12803+D07E 02 09 00 00      DEFB 2,9, $00,$00,$FD,$C5,$C1,$D1,$D1,$C1
12803+D082 FD C5 C1 D1
12803+D086 D1 C1
12804+D088 02 0A 00 00      DEFB 2,10, $00,$00,$8D,$DD,$AD,$AD,$8D,$8D
12804+D08C 8D DD AD AD
12804+D090 8D 8D
12805+D092 02 0B 00 00      DEFB 2,11, $00,$00,$FB,$8B,$83,$A3,$A3,$83
12805+D096 FB 8B 83 A3
12805+D09A A3 83
12806+D09C 02 0C 00 00      DEFB 2,12, $00,$00,$37,$35,$31,$F1,$31,$31
12806+D0A0 37 35 31 F1
12806+D0A4 31 31
12807+D0A6 02 0D 02 02      DEFB 2,13, $02,$02,$E2,$A2,$82,$82,$82,$82
12807+D0AA E2 A2 82 82
12807+D0AE 82 82
12808+D0B0 03 00 42 41      DEFB 3,0, $42,$41,$40,$40,$40,$40,$3F,$80
12808+D0B4 40 40 40 40
12808+D0B8 3F 80
12809+D0BA 03 01 4C 8F      DEFB 3,1, $4C,$8F,$00,$00,$00,$00,$FF,$00
12809+D0BE 00 00 00 00
12809+D0C2 FF 00
12810+D0C4 03 02 59 DF      DEFB 3,2, $59,$DF,$00,$00,$00,$00,$FF,$00
12810+D0C8 00 00 00 00
12810+D0CC FF 00
12811+D0CE 03 03 B2 BC      DEFB 3,3, $B2,$BC,$00,$00,$00,$00,$FF,$00
12811+D0D2 00 00 00 00
12811+D0D6 FF 00
12812+D0D8 03 04 63 63      DEFB 3,4, $63,$63,$00,$00,$00,$00,$FF,$00
12812+D0DC 00 00 00 00
12812+D0E0 FF 00
12813+D0E2 03 05 24 18      DEFB 3,5, $24,$18,$00,$00,$00,$00,$FF,$00
12813+D0E6 00 00 00 00
12813+D0EA FF 00
12814+D0EC 03 06 CC CC      DEFB 3,6, $CC,$CC,$00,$00,$00,$00,$FF,$00
12814+D0F0 00 00 00 00
12814+D0F4 FF 00
12815+D0F6 03 07 32 1C      DEFB 3,7, $32,$1C,$00,$00,$00,$00,$FF,$00
12815+D0FA 00 00 00 00
12815+D0FE FF 00
12816+D100 03 08 66 66      DEFB 3,8, $66,$66,$00,$00,$00,$00,$FF,$00
12816+D104 00 00 00 00
12816+D108 FF 00
12817+D10A 03 09 C5 FD      DEFB 3,9, $C5,$FD,$00,$00,$00,$00,$FF,$00
12817+D10E 00 00 00 00
12817+D112 FF 00
12818+D114 03 0A 8D 8D      DEFB 3,10, $8D,$8D,$00,$00,$00,$00,$FF,$00
12818+D118 00 00 00 00
12818+D11C FF 00
12819+D11E 03 0B 8B FB      DEFB 3,11, $8B,$FB,$00,$00,$00,$00,$FF,$00
12819+D122 00 00 00 00
12819+D126 FF 00
12820+D128 03 0C 31 31      DEFB 3,12, $31,$31,$00,$00,$00,$00,$FF,$00
12820+D12C 00 00 00 00
12820+D130 FF 00
12821+D132 03 0D 82 82      DEFB 3,13, $82,$82,$02,$02,$02,$02,$FC,$01
12821+D136 02 02 02 02
12821+D13A FC 01
12822+D13C
12823+D13C              SPRTITUL1:
12824+D13C 30               DEFB 48
12825+D13D 00 00 00 00      DEFB 0,0, $00,$00,$01,$07,$0E,$1C,$18,$38
12825+D141 01 07 0E 1C
12825+D145 18 38
12826+D147 00 01 00 70      DEFB 0,1, $00,$70,$FC,$8F,$03,$01,$00,$00
12826+D14B FC 8F 03 01
12826+D14F 00 00
12827+D151 00 02 00 00      DEFB 0,2, $00,$00,$00,$00,$81,$83,$03,$07
12827+D155 00 00 81 83
12827+D159 03 07
12828+D15B 00 03 00 0E      DEFB 0,3, $00,$0E,$3F,$F1,$C0,$80,$00,$00
12828+D15F 3F F1 C0 80
12828+D163 00 00
12829+D165 00 04 00 01      DEFB 0,4, $00,$01,$81,$E1,$71,$31,$01,$01
12829+D169 81 E1 71 31
12829+D16D 01 01
12830+D16F 00 05 00 F8      DEFB 0,5, $00,$F8,$FE,$8F,$83,$80,$80,$80
12830+D173 FE 8F 83 80
12830+D177 80 80
12831+D179 00 06 00 00      DEFB 0,6, $00,$00,$00,$80,$C0,$E0,$60,$70
12831+D17D 00 80 C0 E0
12831+D181 60 70
12832+D183 00 07 00 C0      DEFB 0,7, $00,$C0,$C0,$C0,$C0,$C0,$C0,$C0
12832+D187 C0 C0 C0 C0
12832+D18B C0 C0
12833+D18D 00 08 00 01      DEFB 0,8, $00,$01,$01,$01,$01,$01,$01,$01
12833+D191 01 01 01 01
12833+D195 01 01
12834+D197 00 09 00 80      DEFB 0,9, $00,$80,$E0,$F0,$B8,$98,$9C,$8F
12834+D19B E0 F0 B8 98
12834+D19F 9C 8F
12835+D1A1 00 0A 00 06      DEFB 0,10, $00,$06,$1E,$3E,$76,$66,$E6,$C6
12835+D1A5 1E 3E 76 66
12835+D1A9 E6 C6
12836+D1AB 00 0B 00 00      DEFB 0,11, $00,$00,$01,$07,$06,$0C,$0C,$18
12836+D1AF 01 07 06 0C
12836+D1B3 0C 18
12837+D1B5 00 0C 00 78      DEFB 0,12, $00,$78,$FE,$87,$01,$00,$00,$00
12837+D1B9 FE 87 01 00
12837+D1BD 00 00
12838+D1BF 00 0D 00 01      DEFB 0,13, $00,$01,$01,$81,$81,$C1,$C1,$61
12838+D1C3 01 81 81 C1
12838+D1C7 C1 61
12839+D1C9 00 0E 00 83      DEFB 0,14, $00,$83,$87,$87,$83,$80,$80,$80
12839+D1CD 87 87 83 80
12839+D1D1 80 80
12840+D1D3 00 0F 00 06      DEFB 0,15, $00,$06,$86,$86,$06,$06,$1E,$3E
12840+D1D7 86 86 06 06
12840+D1DB 1E 3E
12841+D1DD 01 00 30 30      DEFB 1,0, $30,$30,$60,$60,$60,$60,$30,$30
12841+D1E1 60 60 60 60
12841+D1E5 30 30
12842+D1E7 01 01 00 00      DEFB 1,1, $00,$00,$00,$00,$00,$00,$00,$00
12842+D1EB 00 00 00 00
12842+D1EF 00 00
12843+D1F1 01 02 06 06      DEFB 1,2, $06,$06,$0C,$0C,$0C,$0C,$06,$06
12843+D1F5 0C 0C 0C 0C
12843+D1F9 06 06
12844+D1FB 01 03 00 00      DEFB 1,3, $00,$00,$06,$0F,$0F,$06,$00,$00
12844+D1FF 06 0F 0F 06
12844+D203 00 00
12845+D205 01 04 01 01      DEFB 1,4, $01,$01,$01,$01,$01,$01,$01,$01
12845+D209 01 01 01 01
12845+D20D 01 01
12846+D20F 01 05 80 80      DEFB 1,5, $80,$80,$80,$80,$80,$80,$80,$80
12846+D213 80 80 80 80
12846+D217 80 80
12847+D219 01 06 30 30      DEFB 1,6, $30,$30,$38,$18,$18,$18,$18,$18
12847+D21D 38 18 18 18
12847+D221 18 18
12848+D223 01 07 C0 C0      DEFB 1,7, $C0,$C0,$C0,$CF,$DF,$F0,$E0,$C6
12848+D227 C0 CF DF F0
12848+D22B E0 C6
12849+D22D 01 08 01 01      DEFB 1,8, $01,$01,$01,$01,$C1,$E1,$61,$31
12849+D231 01 01 C1 E1
12849+D235 61 31
12850+D237 01 09 87 83      DEFB 1,9, $87,$83,$83,$80,$80,$80,$80,$80
12850+D23B 83 80 80 80
12850+D23F 80 80
12851+D241 01 0A 86 06      DEFB 1,10, $86,$06,$06,$06,$06,$06,$06,$06
12851+D245 06 06 06 06
12851+D249 06 06
12852+D24B 01 0B 18 18      DEFB 1,11, $18,$18,$30,$30,$30,$30,$18,$18
12852+D24F 30 30 30 30
12852+D253 18 18
12853+D255 01 0C 00 00      DEFB 1,12, $00,$00,$30,$78,$78,$30,$00,$00
12853+D259 30 78 78 30
12853+D25D 00 00
12854+D25F 01 0D 61 61      DEFB 1,13, $61,$61,$31,$31,$31,$31,$61,$61
12854+D263 31 31 31 31
12854+D267 61 61
12855+D269 01 0E 80 80      DEFB 1,14, $80,$80,$81,$83,$87,$8E,$9C,$B8
12855+D26D 81 83 87 8E
12855+D271 9C B8
12856+D273 01 0F 76 E6      DEFB 1,15, $76,$E6,$C6,$86,$06,$06,$06,$06
12856+D277 C6 86 06 06
12856+D27B 06 06
12857+D27D 02 00 30 18      DEFB 2,0, $30,$18,$18,$0E,$07,$01,$00,$00
12857+D281 18 0E 07 01
12857+D285 00 00
12858+D287 02 01 00 00      DEFB 2,1, $00,$00,$01,$03,$8F,$FC,$70,$00
12858+D28B 01 03 8F FC
12858+D28F 70 00
12859+D291 02 02 06 03      DEFB 2,2, $06,$03,$83,$81,$00,$00,$00,$00
12859+D295 83 81 00 00
12859+D299 00 00
12860+D29B 02 03 00 00      DEFB 2,3, $00,$00,$00,$C0,$F1,$3F,$0E,$00
12860+D29F 00 C0 F1 3F
12860+D2A3 0E 00
12861+D2A5 02 04 01 01      DEFB 2,4, $01,$01,$31,$71,$E1,$81,$01,$00
12861+D2A9 31 71 E1 81
12861+D2AD 01 00
12862+D2AF 02 05 80 80      DEFB 2,5, $80,$80,$80,$80,$80,$FF,$FF,$00
12862+D2B3 80 80 80 FF
12862+D2B7 FF 00
12863+D2B9 02 06 18 18      DEFB 2,6, $18,$18,$18,$18,$18,$F8,$F8,$00
12863+D2BD 18 18 18 F8
12863+D2C1 F8 00
12864+D2C3 02 07 CF CF      DEFB 2,7, $CF,$CF,$C6,$60,$70,$3F,$0F,$00
12864+D2C7 C6 60 70 3F
12864+D2CB 0F 00
12865+D2CD 02 08 31 31      DEFB 2,8, $31,$31,$31,$61,$E1,$C1,$01,$00
12865+D2D1 31 61 E1 C1
12865+D2D5 01 00
12866+D2D7 02 09 80 80      DEFB 2,9, $80,$80,$80,$80,$80,$80,$80,$00
12866+D2DB 80 80 80 80
12866+D2DF 80 00
12867+D2E1 02 0A 06 06      DEFB 2,10, $06,$06,$06,$06,$06,$06,$06,$00
12867+D2E5 06 06 06 06
12867+D2E9 06 00
12868+D2EB 02 0B 18 0C      DEFB 2,11, $18,$0C,$0C,$06,$07,$01,$00,$00
12868+D2EF 0C 06 07 01
12868+D2F3 00 00
12869+D2F5 02 0C 00 00      DEFB 2,12, $00,$00,$00,$01,$87,$FE,$78,$00
12869+D2F9 00 01 87 FE
12869+D2FD 78 00
12870+D2FF 02 0D 61 C1      DEFB 2,13, $61,$C1,$C1,$81,$81,$01,$01,$00
12870+D303 C1 81 81 01
12870+D307 01 00
12871+D309 02 0E F0 E0      DEFB 2,14, $F0,$E0,$80,$80,$80,$80,$80,$00
12871+D30D 80 80 80 80
12871+D311 80 00
12872+D313 02 0F 06 06      DEFB 2,15, $06,$06,$06,$06,$06,$06,$06,$00
12872+D317 06 06 06 06
12872+D31B 06 00
12873+D31D
12874+D31D              SPRTITUL2:
12875+D31D 30               DEFB 48
12876+D31E 00 00 00 03      DEFB 0,0, $00,$03,$0F,$3C,$70,$60,$00,$00
12876+D322 0F 3C 70 60
12876+D326 00 00
12877+D328 00 01 00 80      DEFB 0,1, $00,$80,$E0,$78,$1C,$0E,$06,$07
12877+D32C E0 78 1C 0E
12877+D330 06 07
12878+D332 00 02 00 00      DEFB 0,2, $00,$00,$00,$00,$01,$03,$03,$07
12878+D336 00 00 01 03
12878+D33A 03 07
12879+D33C 00 03 00 0F      DEFB 0,3, $00,$0F,$3F,$F8,$E0,$80,$00,$00
12879+D340 3F F8 E0 80
12879+D344 00 00
12880+D346 00 04 00 C0      DEFB 0,4, $00,$C0,$C0,$C0,$C0,$C1,$C1,$C3
12880+D34A C0 C0 C0 C1
12880+D34E C1 C3
12881+D350 00 05 00 07      DEFB 0,5, $00,$07,$1F,$78,$E0,$C0,$80,$80
12881+D354 1F 78 E0 C0
12881+D358 80 80
12882+D35A 00 06 00 00      DEFB 0,6, $00,$00,$C0,$F0,$38,$18,$00,$00
12882+D35E C0 F0 38 18
12882+D362 00 00
12883+D364 00 07 00 C0      DEFB 0,7, $00,$C0,$F0,$F8,$DC,$CC,$CE,$C7
12883+D368 F0 F8 DC CC
12883+D36C CE C7
12884+D36E 00 08 00 03      DEFB 0,8, $00,$03,$0F,$1F,$3B,$33,$73,$E3
12884+D372 0F 1F 3B 33
12884+D376 73 E3
12885+D378 00 09 00 00      DEFB 0,9, $00,$00,$00,$01,$03,$07,$06,$0E
12885+D37C 00 01 03 07
12885+D380 06 0E
12886+D382 00 0A 00 1C      DEFB 0,10, $00,$1C,$7F,$E3,$80,$00,$00,$00
12886+D386 7F E3 80 00
12886+D38A 00 00
12887+D38C 00 0B 00 03      DEFB 0,11, $00,$03,$03,$C3,$E3,$63,$03,$03
12887+D390 03 C3 E3 63
12887+D394 03 03
12888+D396 00 0C 00 00      DEFB 0,12, $00,$00,$00,$00,$00,$00,$00,$00
12888+D39A 00 00 00 00
12888+D39E 00 00
12889+D3A0 00 0D 00 0C      DEFB 0,13, $00,$0C,$0C,$0C,$0C,$0C,$0C,$0C
12889+D3A4 0C 0C 0C 0C
12889+D3A8 0C 0C
12890+D3AA 00 0E 00 7F      DEFB 0,14, $00,$7F,$7F,$01,$01,$01,$01,$01
12890+D3AE 7F 01 01 01
12890+D3B2 01 01
12891+D3B4 00 0F 00 FE      DEFB 0,15, $00,$FE,$FE,$80,$80,$80,$80,$80
12891+D3B8 FE 80 80 80
12891+D3BC 80 80
12892+D3BE 01 00 00 00      DEFB 1,0, $00,$00,$03,$07,$07,$03,$00,$00
12892+D3C2 03 07 07 03
12892+D3C6 00 00
12893+D3C8 01 01 03 03      DEFB 1,1, $03,$03,$01,$81,$81,$01,$03,$03
12893+D3CC 01 81 81 01
12893+D3D0 03 03
12894+D3D2 01 02 06 06      DEFB 1,2, $06,$06,$8E,$8C,$8C,$8C,$0C,$0C
12894+D3D6 8E 8C 8C 8C
12894+D3DA 0C 0C
12895+D3DC 01 03 00 00      DEFB 1,3, $00,$00,$00,$00,$00,$00,$00,$00
12895+D3E0 00 00 00 00
12895+D3E4 00 00
12896+D3E6 01 04 C3 C3      DEFB 1,4, $C3,$C3,$C6,$C6,$C6,$C6,$C3,$C3
12896+D3EA C6 C6 C6 C6
12896+D3EE C3 C3
12897+D3F0 01 05 00 00      DEFB 1,5, $00,$00,$03,$07,$07,$03,$00,$00
12897+D3F4 03 07 07 03
12897+D3F8 00 00
12898+D3FA 01 06 00 00      DEFB 1,6, $00,$00,$00,$80,$80,$00,$00,$00
12898+D3FE 00 80 80 00
12898+D402 00 00
12899+D404 01 07 C3 C1      DEFB 1,7, $C3,$C1,$C1,$C0,$C0,$C0,$C0,$C0
12899+D408 C1 C0 C0 C0
12899+D40C C0 C0
12900+D40E 01 08 C3 83      DEFB 1,8, $C3,$83,$83,$03,$03,$03,$03,$03
12900+D412 83 03 03 03
12900+D416 03 03
12901+D418 01 09 0C 0C      DEFB 1,9, $0C,$0C,$18,$18,$18,$18,$0C,$0C
12901+D41C 18 18 18 18
12901+D420 0C 0C
12902+D422 01 0A 00 00      DEFB 1,10, $00,$00,$0C,$1E,$1E,$0C,$00,$00
12902+D426 0C 1E 1E 0C
12902+D42A 00 00
12903+D42C 01 0B 03 03      DEFB 1,11, $03,$03,$03,$03,$03,$03,$03,$03
12903+D430 03 03 03 03
12903+D434 03 03
12904+D436 01 0C 00 00      DEFB 1,12, $00,$00,$06,$0F,$0F,$06,$00,$00
12904+D43A 06 0F 0F 06
12904+D43E 00 00
12905+D440 01 0D 0C 0C      DEFB 1,13, $0C,$0C,$0C,$0C,$0C,$0C,$0C,$0C
12905+D444 0C 0C 0C 0C
12905+D448 0C 0C
12906+D44A 01 0E 01 01      DEFB 1,14, $01,$01,$01,$01,$01,$01,$01,$01
12906+D44E 01 01 01 01
12906+D452 01 01
12907+D454 01 0F 80 80      DEFB 1,15, $80,$80,$80,$80,$80,$80,$80,$80
12907+D458 80 80 80 80
12907+D45C 80 80
12908+D45E 02 00 00 00      DEFB 2,0, $00,$00,$60,$70,$3C,$0F,$03,$00
12908+D462 60 70 3C 0F
12908+D466 03 00
12909+D468 02 01 03 06      DEFB 2,1, $03,$06,$06,$1C,$78,$E0,$80,$00
12909+D46C 06 1C 78 E0
12909+D470 80 00
12910+D472 02 02 0C 0C      DEFB 2,2, $0C,$0C,$0C,$0C,$0C,$0C,$0C,$00
12910+D476 0C 0C 0C 0C
12910+D47A 0C 00
12911+D47C 02 03 00 00      DEFB 2,3, $00,$00,$00,$00,$00,$00,$00,$00
12911+D480 00 00 00 00
12911+D484 00 00
12912+D486 02 04 C3 C1      DEFB 2,4, $C3,$C1,$C1,$C0,$C0,$C0,$C0,$00
12912+D48A C1 C0 C0 C0
12912+D48E C0 00
12913+D490 02 05 00 80      DEFB 2,5, $00,$80,$80,$E0,$78,$1F,$07,$00
12913+D494 80 E0 78 1F
12913+D498 07 00
12914+D49A 02 06 00 00      DEFB 2,6, $00,$00,$18,$38,$F0,$C0,$00,$00
12914+D49E 18 38 F0 C0
12914+D4A2 00 00
12915+D4A4 02 07 C0 C0      DEFB 2,7, $C0,$C0,$C0,$C0,$C0,$C0,$C0,$00
12915+D4A8 C0 C0 C0 C0
12915+D4AC C0 00
12916+D4AE 02 08 03 03      DEFB 2,8, $03,$03,$03,$03,$03,$03,$03,$00
12916+D4B2 03 03 03 03
12916+D4B6 03 00
12917+D4B8 02 09 0C 06      DEFB 2,9, $0C,$06,$06,$03,$01,$00,$00,$00
12917+D4BC 06 03 01 00
12917+D4C0 00 00
12918+D4C2 02 0A 00 00      DEFB 2,10, $00,$00,$00,$80,$E3,$7F,$1C,$00
12918+D4C6 00 80 E3 7F
12918+D4CA 1C 00
12919+D4CC 02 0B 03 03      DEFB 2,11, $03,$03,$63,$E3,$C3,$03,$03,$00
12919+D4D0 63 E3 C3 03
12919+D4D4 03 00
12920+D4D6 02 0C 00 00      DEFB 2,12, $00,$00,$00,$00,$00,$00,$00,$00
12920+D4DA 00 00 00 00
12920+D4DE 00 00
12921+D4E0 02 0D 0C 0C      DEFB 2,13, $0C,$0C,$0C,$0C,$0C,$0C,$0C,$00
12921+D4E4 0C 0C 0C 0C
12921+D4E8 0C 00
12922+D4EA 02 0E 01 01      DEFB 2,14, $01,$01,$01,$01,$01,$01,$01,$00
12922+D4EE 01 01 01 01
12922+D4F2 01 00
12923+D4F4 02 0F 80 80      DEFB 2,15, $80,$80,$80,$80,$80,$80,$80,$00
12923+D4F8 80 80 80 80
12923+D4FC 80 00
12924+D4FE
12925+D4FE              SPRRECORD:
12926+D4FE 06               DEFB 6
12927+D4FF 00 00 00 5C      DEFB 0,0, $00,$5C,$62,$6A,$62,$5C,$40,$40
12927+D503 62 6A 62 5C
12927+D507 40 40
12928+D509 00 01 00 1C      DEFB 0,1, $00,$1C,$22,$40,$58,$40,$22,$1C
12928+D50D 22 40 58 40
12928+D511 22 1C
12929+D513 00 02 00 44      DEFB 0,2, $00,$44,$44,$58,$60,$58,$44,$44
12929+D517 44 58 60 58
12929+D51B 44 44
12930+D51D 00 03 00 38      DEFB 0,3, $00,$38,$44,$82,$92,$82,$44,$38
12930+D521 44 82 92 82
12930+D525 44 38
12931+D527 00 04 00 5C      DEFB 0,4, $00,$5C,$62,$6A,$62,$5C,$40,$40
12931+D52B 62 6A 62 5C
12931+D52F 40 40
12932+D531 00 05 00 70      DEFB 0,5, $00,$70,$48,$44,$44,$42,$42,$7E
12932+D535 48 44 44 42
12932+D539 42 7E
12933+D53B
12934+D53B              SPRSCORE:
12935+D53B 04               DEFB 4
12936+D53C 00 00 00 1C      DEFB 0,0, $00,$1C,$22,$40,$40,$40,$22,$1C
12936+D540 22 40 40 40
12936+D544 22 1C
12937+D546 00 01 00 42      DEFB 0,1, $00,$42,$42,$42,$12,$0A,$02,$02
12937+D54A 42 42 12 0A
12937+D54E 02 02
12938+D550 00 02 00 1C      DEFB 0,2, $00,$1C,$22,$40,$58,$40,$22,$1C
12938+D554 22 40 58 40
12938+D558 22 1C
12939+D55A 00 03 00 54      DEFB 0,3, $00,$54,$54,$10,$10,$10,$10,$10
12939+D55E 54 10 10 10
12939+D562 10 10
12940+D564
12941+D564              SPRQUEUE:
12942+D564 08               DEFB 8
12943+D565 00 00 00 01      DEFB 0,0, $00,$01,$02,$04,$04,$04,$02,$01
12943+D569 02 04 04 04
12943+D56D 02 01
12944+D56F 00 01 00 C4      DEFB 0,1, $00,$C4,$24,$14,$91,$10,$20,$C0
12944+D573 24 14 91 10
12944+D577 20 C0
12945+D579 00 02 00 21      DEFB 0,2, $00,$21,$22,$24,$25,$A4,$22,$21
12945+D57D 22 24 25 A4
12945+D581 22 21
12946+D583 00 03 00 C5      DEFB 0,3, $00,$C5,$26,$06,$86,$05,$24,$C4
12946+D587 26 06 86 05
12946+D58B 24 C4
12947+D58D 00 04 00 C1      DEFB 0,4, $00,$C1,$22,$A4,$25,$C4,$02,$01
12947+D591 22 A4 25 C4
12947+D595 02 01
12948+D597 00 05 00 C7      DEFB 0,5, $00,$C7,$24,$04,$84,$04,$24,$C7
12948+D59B 24 04 84 04
12948+D59F 24 C7
12949+D5A1 00 06 00 04      DEFB 0,6, $00,$04,$84,$45,$46,$26,$26,$E5
12949+D5A5 84 45 46 26
12949+D5A9 26 E5
12950+D5AB 00 07 00 00      DEFB 0,7, $00,$00,$00,$C0,$20,$A0,$20,$C0
12950+D5AF 00 C0 20 A0
12950+D5B3 20 C0
12951+D5B5
12952+D5B5              SPRNEWREC:
12953+D5B5 0C           	DEFB 12
12954+D5B6 00 00 00 42      DEFB 0,0, $00,$42,$42,$42,$5A,$42,$42,$42
12954+D5BA 42 42 5A 42
12954+D5BE 42 42
12955+D5C0 00 01 00 1C      DEFB 0,1, $00,$1C,$22,$41,$49,$41,$22,$1C
12955+D5C4 22 41 49 41
12955+D5C8 22 1C
12956+D5CA 00 02 00 3C      DEFB 0,2, $00,$3C,$22,$22,$3D,$21,$21,$3E
12956+D5CE 22 22 3D 21
12956+D5D2 21 3E
12957+D5D4 00 03 00 20      DEFB 0,3, $00,$20,$20,$2C,$32,$22,$22,$3C
12957+D5D8 20 2C 32 22
12957+D5DC 22 3C
12958+D5DE 00 04 02 94      DEFB 0,4, $02,$94,$90,$91,$92,$94,$98,$90
12958+D5E2 90 91 92 94
12958+D5E6 98 90
12959+D5E8 00 05 00 80      DEFB 0,5, $00,$80,$80,$80,$80,$80,$80,$80
12959+D5EC 80 80 80 80
12959+D5F0 80 80
12960+D5F2 00 06 00 B8      DEFB 0,6, $00,$B8,$C4,$D4,$C4,$B8,$80,$80
12960+D5F6 C4 D4 C4 B8
12960+D5FA 80 80
12961+D5FC 00 07 00 38      DEFB 0,7, $00,$38,$44,$80,$B0,$80,$44,$38
12961+D600 44 80 B0 80
12961+D604 44 38
12962+D606 00 08 00 88      DEFB 0,8, $00,$88,$88,$B1,$C1,$B1,$88,$88
12962+D60A 88 B1 C1 B1
12962+D60E 88 88
12963+D610 00 09 00 70      DEFB 0,9, $00,$70,$88,$04,$24,$04,$88,$70
12963+D614 88 04 24 04
12963+D618 88 70
12964+D61A 00 0A 00 B8      DEFB 0,10, $00,$B8,$C4,$D4,$C4,$B8,$80,$80
12964+D61E C4 D4 C4 B8
12964+D622 80 80
12965+D624 00 0B 00 E0      DEFB 0,11, $00,$E0,$90,$88,$88,$84,$84,$FC
12965+D628 90 88 88 84
12965+D62C 84 FC
12966+D62E
12967+D62E              SPRMAP:
12968+D62E 00 00 00 00  	DEFB 0,  $00,$00,$00,$00,$00,$00,$00,$00
12968+D632 00 00 00 00
12968+D636 00
12969+D637
12970+D637 07 7F C0 9F  	DEFB 7,  $7F,$C0,$9F,$B0,$A7,$AC,$A9,$AA
12970+D63B B0 A7 AC A9
12970+D63F AA
12971+D640 07 FE 03 F9      DEFB 7,  $FE,$03,$F9,$0D,$E5,$35,$95,$55
12971+D644 0D E5 35 95
12971+D648 55
12972+D649 07 55 95 35  	DEFB 7,  $55,$95,$35,$E5,$0D,$F9,$03,$FE
12972+D64D E5 0D F9 03
12972+D651 FE
12973+D652 07 AA A9 AC  	DEFB 7,  $AA,$A9,$AC,$A7,$B0,$9F,$C0,$7F
12973+D656 A7 B0 9F C0
12973+D65A 7F
12974+D65B
12975+D65B 07 FF 00 FF  	DEFB 7,  $FF,$00,$FF,$00,$FF,$00,$FF,$00
12975+D65F 00 FF 00 FF
12975+D663 00
12976+D664 07 55 55 55  	DEFB 7,  $55,$55,$55,$55,$55,$55,$55,$55
12976+D668 55 55 55 55
12976+D66C 55
12977+D66D 07 00 FF 00  	DEFB 7,  $00,$FF,$00,$FF,$00,$FF,$00,$FF
12977+D671 FF 00 FF 00
12977+D675 FF
12978+D676 07 AA AA AA  	DEFB 7,  $AA,$AA,$AA,$AA,$AA,$AA,$AA,$AA
12978+D67A AA AA AA AA
12978+D67E AA
12979+D67F
12980+D67F 07 55 FE 67  	DEFB 7,  $55,$FE,$67,$DA,$5B,$E6,$7F,$AA
12980+D683 DA 5B E6 7F
12980+D687 AA
12981+D688
12982+D688              LastAddr
12983+D688
# file closed: game.pas.asm
    6 D688              end_file
    7 D688              					display "code size: ", /d, end_file - begin_file
    8 D688              					savesna 	"game.sna", MAIN
game.asm(9): warning: [SAVETAP] Tape file will not contains data from 0x5B00 to 0x5E00
    9 D688              					savetap 	"game.tap", MAIN
   10 D688              					SLDOPT 		COMMENT WPMEM, LOGPOINT, ASSERTION
   11 D688
# file closed: game.asm
